

Microchip MPLAB XC8 Assembler V2.10 build 88905656 
                                                                                               Thu Oct 10 04:07:34 2019

Microchip MPLAB XC8 C Compiler v2.10 (Free license) build 20190730164152 Og1 
     1                           	processor	18F4550
     2                           	fnconf	rparam,??,?,0
     3                           	opt	pw 120
     4                           	opt	flic
     5                           	psect	idataBANK1,global,class=CODE,delta=1,noexec
     6                           	psect	smallconst,global,reloc=2,class=SMALLCONST,delta=1,noexec
     7                           	psect	cinit,global,reloc=2,class=CODE,delta=1
     8                           	psect	bssBANK0,global,class=BANK0,space=1,delta=1,lowdata,noexec
     9                           	psect	bssBANK1,global,class=BANK1,space=1,delta=1,lowdata,noexec
    10                           	psect	dataBANK1,global,class=BANK1,space=1,delta=1,lowdata,noexec
    11                           	psect	bssBANK2,global,class=BANK2,space=1,delta=1,lowdata,noexec
    12                           	psect	cstackBANK1,global,class=BANK1,space=1,delta=1,noexec
    13                           	psect	cstackBANK0,global,class=BANK0,space=1,delta=1,noexec
    14                           	psect	cstackCOMRAM,global,class=COMRAM,space=1,delta=1,noexec
    15                           	psect	text0,global,reloc=2,class=CODE,delta=1
    16                           	psect	text1,global,reloc=2,class=CODE,delta=1
    17                           	psect	text2,global,reloc=2,class=CODE,delta=1
    18                           	psect	text3,global,reloc=2,class=CODE,delta=1
    19                           	psect	text4,global,reloc=2,class=CODE,delta=1
    20                           	psect	text5,global,reloc=2,class=CODE,delta=1
    21                           	psect	text6,global,reloc=2,class=CODE,delta=1
    22                           	psect	text7,global,reloc=2,class=CODE,delta=1
    23                           	psect	text8,global,reloc=2,class=CODE,delta=1
    24                           	psect	text9,global,reloc=2,class=CODE,delta=1
    25                           	psect	text10,global,reloc=2,class=CODE,delta=1,group=2
    26                           	psect	text11,global,reloc=2,class=CODE,delta=1
    27                           	psect	text12,global,reloc=2,class=CODE,delta=1
    28                           	psect	text13,global,reloc=2,class=CODE,delta=1,group=2
    29                           	psect	text14,global,reloc=2,class=CODE,delta=1
    30                           	psect	text15,global,reloc=2,class=CODE,delta=1
    31                           	psect	text16,global,reloc=2,class=CODE,delta=1,group=2
    32                           	psect	text17,global,reloc=2,class=CODE,delta=1,group=2
    33                           	psect	text18,global,reloc=2,class=CODE,delta=1,group=2
    34                           	psect	text19,global,reloc=2,class=CODE,delta=1,group=2
    35                           	psect	text20,global,reloc=2,class=CODE,delta=1,group=2
    36                           	psect	text21,global,reloc=2,class=CODE,delta=1,group=1
    37                           	psect	text22,global,reloc=2,class=CODE,delta=1,group=1
    38                           	psect	text23,global,reloc=2,class=CODE,delta=1
    39                           	psect	text24,global,reloc=2,class=CODE,delta=1,group=2
    40                           	psect	text25,global,reloc=2,class=CODE,delta=1,group=1
    41                           	psect	text26,global,reloc=2,class=CODE,delta=1,group=1
    42                           	psect	text27,global,reloc=2,class=CODE,delta=1
    43                           	psect	text28,global,reloc=2,class=CODE,delta=1
    44                           	psect	text29,global,reloc=2,class=CODE,delta=1,group=2
    45                           	psect	text30,global,reloc=2,class=CODE,delta=1,group=2
    46                           	psect	text31,global,reloc=2,class=CODE,delta=1,group=2
    47                           	psect	text32,global,reloc=2,class=CODE,delta=1,group=2
    48                           	psect	text33,global,reloc=2,class=CODE,delta=1,group=2
    49                           	psect	text34,global,reloc=2,class=CODE,delta=1
    50                           	psect	text35,global,reloc=2,class=CODE,delta=1,group=2
    51                           	psect	text36,global,reloc=2,class=CODE,delta=1,group=2
    52                           	psect	text37,global,reloc=2,class=CODE,delta=1,group=2
    53                           	psect	text38,global,reloc=2,class=CODE,delta=1,group=2
    54                           	psect	text39,global,reloc=2,class=CODE,delta=1,group=2
    55                           	psect	text40,global,reloc=2,class=CODE,delta=1,group=2
    56                           	psect	text41,global,reloc=2,class=CODE,delta=1,group=2
    57                           	psect	text42,global,reloc=2,class=CODE,delta=1,group=2
    58                           	psect	text43,global,reloc=2,class=CODE,delta=1,group=1
    59                           	psect	text44,global,reloc=2,class=CODE,delta=1,group=1
    60                           	psect	text45,global,reloc=2,class=CODE,delta=1,group=1
    61                           	psect	text46,global,reloc=2,class=CODE,delta=1,group=1
    62                           	psect	text47,global,reloc=2,class=CODE,delta=1,group=1
    63                           	psect	text48,global,reloc=2,class=CODE,delta=1,group=1
    64                           	psect	text49,global,reloc=2,class=CODE,delta=1,group=1
    65                           	psect	text50,global,reloc=2,class=CODE,delta=1,group=1
    66                           	psect	text51,global,reloc=2,class=CODE,delta=1,group=1
    67                           	psect	text52,global,reloc=2,class=CODE,delta=1,group=1
    68                           	psect	text53,global,reloc=2,class=CODE,delta=1,group=1
    69                           	psect	text54,global,reloc=2,class=CODE,delta=1
    70                           	psect	text55,global,reloc=2,class=CODE,delta=1
    71                           	psect	text56,global,reloc=2,class=CODE,delta=1
    72                           	psect	text57,global,reloc=2,class=CODE,delta=1
    73                           	psect	text58,global,reloc=2,class=CODE,delta=1
    74                           	psect	text59,global,reloc=2,class=CODE,delta=1,group=1
    75                           	psect	text60,global,reloc=2,class=CODE,delta=1
    76                           	psect	text61,global,reloc=2,class=CODE,delta=1
    77                           	psect	text62,global,reloc=2,class=CODE,delta=1
    78                           	psect	intsave_regs,global,class=BIGRAM,space=1,delta=1,noexec
    79                           	psect	rparam,global,class=COMRAM,space=1,delta=1,noexec
    80  0000                     
    81                           ; Version 2.10
    82                           ; Generated 31/07/2019 GMT
    83                           ; 
    84                           ; Copyright © 2019, Microchip Technology Inc. and its subsidiaries ("Microchip")
    85                           ; All rights reserved.
    86                           ; 
    87                           ; This software is developed by Microchip Technology Inc. and its subsidiaries ("Microch
      +                          ip").
    88                           ; 
    89                           ; Redistribution and use in source and binary forms, with or without modification, are
    90                           ; permitted provided that the following conditions are met:
    91                           ; 
    92                           ;     1. Redistributions of source code must retain the above copyright notice, this lis
      +                          t of
    93                           ;        conditions and the following disclaimer.
    94                           ; 
    95                           ;     2. Redistributions in binary form must reproduce the above copyright notice, this 
      +                          list
    96                           ;        of conditions and the following disclaimer in the documentation and/or other
    97                           ;        materials provided with the distribution.
    98                           ; 
    99                           ;     3. Microchip's name may not be used to endorse or promote products derived from th
      +                          is
   100                           ;        software without specific prior written permission.
   101                           ; 
   102                           ; THIS SOFTWARE IS PROVIDED BY MICROCHIP "AS IS" AND ANY EXPRESS OR IMPLIED WARRANTIES,
   103                           ; INCLUDING, BUT NOT LIMITED TO, THE IMPLIED WARRANTIES OF MERCHANTABILITY AND FITNESS F
      +                          OR
   104                           ; PURPOSE ARE DISCLAIMED.  IN NO EVENT SHALL MICROCHIP BE LIABLE FOR ANY DIRECT, INDIREC
      +                          T,
   105                           ; INCIDENTAL, SPECIAL, EXEMPLARY, OR CONSEQUENTIAL DAMAGES (INCLUDING BUT NOT LIMITED TO
   106                           ; PROCUREMENT OF SUBSTITUTE GOODS OR SERVICES; LOSS OF USE, DATA OR PROFITS; OR BUSINESS
   107                           ; INTERRUPTION) HOWSOEVER CAUSED AND ON ANY THEORY OF LIABILITY, WHETHER IN CONTRACT, ST
      +                          RICT
   108                           ; LIABILITY, OR TORT (INCLUDING NEGLIGENCE OR OTHERWISE) ARISING IN ANY WAY OUT OF THE U
      +                          SE OF
   109                           ; THIS SOFTWARE, EVEN IF ADVISED OF THE POSSIBILITY OF SUCH DAMAGE.
   110                           ; 
   111                           ; 
   112                           ; Code-generator required, PIC18F4550 Definitions
   113                           ; 
   114                           ; SFR Addresses
   115  0000                     
   116                           	psect	idataBANK1
   117  00629C                     __pidataBANK1:
   118                           	opt callstack 0
   119                           
   120                           ;initializer for main@F3604
   121  00629C  30                 	db	48
   122  00629D  30                 	db	48
   123  00629E  2F                 	db	47
   124  00629F  30                 	db	48
   125  0062A0  30                 	db	48
   126  0062A1  2F                 	db	47
   127  0062A2  30                 	db	48
   128  0062A3  30                 	db	48
   129  0062A4  00                 	db	0
   130                           
   131                           ;initializer for main@F3602
   132  0062A5  30                 	db	48
   133  0062A6  30                 	db	48
   134  0062A7  3A                 	db	58
   135  0062A8  30                 	db	48
   136  0062A9  30                 	db	48
   137  0062AA  3A                 	db	58
   138  0062AB  30                 	db	48
   139  0062AC  30                 	db	48
   140  0062AD  00                 	db	0
   141                           
   142                           ;initializer for stoa@F1166
   143  0062AE  28                 	db	40
   144  0062AF  6E                 	db	110
   145  0062B0  75                 	db	117
   146  0062B1  6C                 	db	108
   147  0062B2  6C                 	db	108
   148  0062B3  29                 	db	41
   149  0062B4  00                 	db	0
   150  0000                     _PORTBbits	set	3969
   151  0000                     _TRISBbits	set	3987
   152  0000                     _TRISD	set	3989
   153  0000                     _ADRESL	set	4035
   154  0000                     _ADRESH	set	4036
   155  0000                     _TRISA	set	3986
   156  0000                     _ADCON2	set	4032
   157  0000                     _ADCON1	set	4033
   158  0000                     _ADCON0bits	set	4034
   159  0000                     _TXREG	set	4013
   160  0000                     _RCREG	set	4014
   161  0000                     _RCSTAbits	set	4011
   162  0000                     _TXSTAbits	set	4012
   163  0000                     _SPBRG	set	4015
   164  0000                     _TRISCbits	set	3988
   165  0000                     _CREN	set	32092
   166  0000                     _LATD3	set	31843
   167  0000                     _LATD2	set	31842
   168  0000                     _LATD7	set	31847
   169  0000                     _LATD6	set	31846
   170  0000                     _LATD5	set	31845
   171  0000                     _LATD4	set	31844
   172  0000                     _TRMT	set	32097
   173  0000                     _RCIF	set	31989
   174                           
   175                           	psect	smallconst
   176  000800                     __psmallconst:
   177                           	opt callstack 0
   178  000800  00                 	db	0
   179  000801                     STR_13:
   180  000801  25                 	db	37
   181  000802  73                 	db	115	;'s'
   182  000803  2C                 	db	44
   183  000804  25                 	db	37
   184  000805  73                 	db	115	;'s'
   185  000806  2C                 	db	44
   186  000807  25                 	db	37
   187  000808  2E                 	db	46
   188  000809  34                 	db	52	;'4'
   189  00080A  66                 	db	102	;'f'
   190  00080B  2C                 	db	44
   191  00080C  25                 	db	37
   192  00080D  2E                 	db	46
   193  00080E  34                 	db	52	;'4'
   194  00080F  66                 	db	102	;'f'
   195  000810  2C                 	db	44
   196  000811  25                 	db	37
   197  000812  2E                 	db	46
   198  000813  32                 	db	50	;'2'
   199  000814  66                 	db	102	;'f'
   200  000815  0D                 	db	13
   201  000816  00                 	db	0
   202  000817                     STR_2:
   203  000817  43                 	db	67	;'C'
   204  000818  6F                 	db	111	;'o'
   205  000819  6E                 	db	110	;'n'
   206  00081A  65                 	db	101	;'e'
   207  00081B  63                 	db	99	;'c'
   208  00081C  74                 	db	116	;'t'
   209  00081D  61                 	db	97	;'a'
   210  00081E  6E                 	db	110	;'n'
   211  00081F  64                 	db	100	;'d'
   212  000820  6F                 	db	111	;'o'
   213  000821  20                 	db	32
   214  000822  47                 	db	71	;'G'
   215  000823  50                 	db	80	;'P'
   216  000824  53                 	db	83	;'S'
   217  000825  2E                 	db	46
   218  000826  2E                 	db	46
   219  000827  2E                 	db	46
   220  000828  00                 	db	0
   221  000829                     STR_10:
   222  000829  25                 	db	37
   223  00082A  63                 	db	99	;'c'
   224  00082B  25                 	db	37
   225  00082C  63                 	db	99	;'c'
   226  00082D  2F                 	db	47
   227  00082E  25                 	db	37
   228  00082F  63                 	db	99	;'c'
   229  000830  25                 	db	37
   230  000831  63                 	db	99	;'c'
   231  000832  2F                 	db	47
   232  000833  25                 	db	37
   233  000834  63                 	db	99	;'c'
   234  000835  25                 	db	37
   235  000836  63                 	db	99	;'c'
   236  000837  00                 	db	0
   237  000838                     STR_1:
   238  000838  45                 	db	69	;'E'
   239  000839  73                 	db	115	;'s'
   240  00083A  70                 	db	112	;'p'
   241  00083B  65                 	db	101	;'e'
   242  00083C  72                 	db	114	;'r'
   243  00083D  65                 	db	101	;'e'
   244  00083E  3A                 	db	58	;':'
   245  00083F  20                 	db	32
   246  000840  25                 	db	37
   247  000841  64                 	db	100	;'d'
   248  000842  20                 	db	32
   249  000843  73                 	db	115	;'s'
   250  000844  65                 	db	101	;'e'
   251  000845  67                 	db	103	;'g'
   252  000846  00                 	db	0
   253  000847                     STR_9:
   254  000847  25                 	db	37
   255  000848  64                 	db	100	;'d'
   256  000849  2F                 	db	47
   257  00084A  25                 	db	37
   258  00084B  63                 	db	99	;'c'
   259  00084C  25                 	db	37
   260  00084D  63                 	db	99	;'c'
   261  00084E  2F                 	db	47
   262  00084F  25                 	db	37
   263  000850  63                 	db	99	;'c'
   264  000851  25                 	db	37
   265  000852  63                 	db	99	;'c'
   266  000853  00                 	db	0
   267  000854                     STR_8:
   268  000854  54                 	db	84	;'T'
   269  000855  45                 	db	69	;'E'
   270  000856  4D                 	db	77	;'M'
   271  000857  50                 	db	80	;'P'
   272  000858  3D                 	db	61	;'='
   273  000859  20                 	db	32
   274  00085A  25                 	db	37
   275  00085B  2E                 	db	46
   276  00085C  32                 	db	50	;'2'
   277  00085D  66                 	db	102	;'f'
   278  00085E  00                 	db	0
   279  00085F                     STR_6:
   280  00085F  4C                 	db	76	;'L'
   281  000860  4F                 	db	79	;'O'
   282  000861  4E                 	db	78	;'N'
   283  000862  47                 	db	71	;'G'
   284  000863  3D                 	db	61	;'='
   285  000864  20                 	db	32
   286  000865  25                 	db	37
   287  000866  2E                 	db	46
   288  000867  34                 	db	52	;'4'
   289  000868  66                 	db	102	;'f'
   290  000869  00                 	db	0
   291  00086A                     STR_5:
   292  00086A  4C                 	db	76	;'L'
   293  00086B  41                 	db	65	;'A'
   294  00086C  54                 	db	84	;'T'
   295  00086D  49                 	db	73	;'I'
   296  00086E  3D                 	db	61	;'='
   297  00086F  20                 	db	32
   298  000870  25                 	db	37
   299  000871  2E                 	db	46
   300  000872  34                 	db	52	;'4'
   301  000873  66                 	db	102	;'f'
   302  000874  00                 	db	0
   303  000875                     STR_28:
   304  000875  49                 	db	73	;'I'
   305  000876  4E                 	db	78	;'N'
   306  000877  46                 	db	70	;'F'
   307  000878  49                 	db	73	;'I'
   308  000879  4E                 	db	78	;'N'
   309  00087A  49                 	db	73	;'I'
   310  00087B  54                 	db	84	;'T'
   311  00087C  59                 	db	89	;'Y'
   312  00087D  00                 	db	0
   313  00087E                     STR_27:
   314  00087E  69                 	db	105	;'i'
   315  00087F  6E                 	db	110	;'n'
   316  000880  66                 	db	102	;'f'
   317  000881  69                 	db	105	;'i'
   318  000882  6E                 	db	110	;'n'
   319  000883  69                 	db	105	;'i'
   320  000884  74                 	db	116	;'t'
   321  000885  79                 	db	121	;'y'
   322  000886  00                 	db	0
   323  000887                     STR_7:
   324  000887  48                 	db	72	;'H'
   325  000888  4F                 	db	79	;'O'
   326  000889  52                 	db	82	;'R'
   327  00088A  41                 	db	65	;'A'
   328  00088B  3D                 	db	61	;'='
   329  00088C  20                 	db	32
   330  00088D  25                 	db	37
   331  00088E  73                 	db	115	;'s'
   332  00088F  00                 	db	0
   333  000890                     STR_11:
   334  000890  46                 	db	70	;'F'
   335  000891  45                 	db	69	;'E'
   336  000892  43                 	db	67	;'C'
   337  000893  48                 	db	72	;'H'
   338  000894  41                 	db	65	;'A'
   339  000895  3D                 	db	61	;'='
   340  000896  20                 	db	32
   341  000897  00                 	db	0
   342  000898                     STR_14:
   343  000898  49                 	db	73	;'I'
   344  000899  4E                 	db	78	;'N'
   345  00089A  46                 	db	70	;'F'
   346  00089B  00                 	db	0
   347  00089C                     STR_18:
   348  00089C  4E                 	db	78	;'N'
   349  00089D  41                 	db	65	;'A'
   350  00089E  4E                 	db	78	;'N'
   351  00089F  00                 	db	0
   352  0008A0                     STR_15:
   353  0008A0  69                 	db	105	;'i'
   354  0008A1  6E                 	db	110	;'n'
   355  0008A2  66                 	db	102	;'f'
   356  0008A3  00                 	db	0
   357  0008A4                     STR_19:
   358  0008A4  6E                 	db	110	;'n'
   359  0008A5  61                 	db	97	;'a'
   360  0008A6  6E                 	db	110	;'n'
   361  0008A7  00                 	db	0
   362  0008A8                     STR_22:
   363  0008A8  6C                 	db	108	;'l'
   364  0008A9  66                 	db	102	;'f'
   365  0008AA  00                 	db	0
   366  0008AB                     STR_3:
   367  0008AB  25                 	db	37
   368  0008AC  64                 	db	100	;'d'
   369  0008AD  00                 	db	0
   370  0000                     
   371                           ; #config settings
   372  0008AE  00                 	db	0	; dummy byte at the end
   373  0000                     
   374                           	psect	cinit
   375  005F78                     __pcinit:
   376                           	opt callstack 0
   377  005F78                     start_initialization:
   378                           	opt callstack 0
   379  005F78                     __initialization:
   380                           	opt callstack 0
   381                           
   382                           ; Initialize objects allocated to BANK1 (25 bytes)
   383                           ; load TBLPTR registers with __pidataBANK1
   384  005F78  0E9C               	movlw	low __pidataBANK1
   385  005F7A  6EF6               	movwf	tblptrl,c
   386  005F7C  0E62               	movlw	high __pidataBANK1
   387  005F7E  6EF7               	movwf	tblptrh,c
   388  005F80  0E00               	movlw	low (__pidataBANK1 shr (0+16))
   389  005F82  6EF8               	movwf	tblptru,c
   390  005F84  EE01  F0DA         	lfsr	0,__pdataBANK1
   391  005F88  EE10 F019          	lfsr	1,25
   392  005F8C                     copy_data0:
   393  005F8C  0009               	tblrd		*+
   394  005F8E  CFF5 FFEE          	movff	tablat,postinc0
   395  005F92  50E5               	movf	postdec1,w,c
   396  005F94  50E1               	movf	fsr1l,w,c
   397  005F96  E1FA               	bnz	copy_data0
   398                           
   399                           ; Clear objects allocated to BANK2 (80 bytes)
   400  005F98  EE02  F000         	lfsr	0,__pbssBANK2
   401  005F9C  0E50               	movlw	80
   402  005F9E                     clear_0:
   403  005F9E  6AEE               	clrf	postinc0,c
   404  005FA0  06E8               	decf	wreg,f,c
   405  005FA2  E1FD               	bnz	clear_0
   406                           
   407                           ; Clear objects allocated to BANK1 (5 bytes)
   408  005FA4  0101               	movlb	1
   409  005FA6  6BF7               	clrf	(__pbssBANK1+4)& (0+255),b
   410  005FA8  6BF6               	clrf	(__pbssBANK1+3)& (0+255),b
   411  005FAA  6BF5               	clrf	(__pbssBANK1+2)& (0+255),b
   412  005FAC  6BF4               	clrf	(__pbssBANK1+1)& (0+255),b
   413  005FAE  6BF3               	clrf	__pbssBANK1& (0+255),b
   414                           
   415                           ; Clear objects allocated to BANK0 (12 bytes)
   416  005FB0  EE00  F0F2         	lfsr	0,__pbssBANK0
   417  005FB4  0E0C               	movlw	12
   418  005FB6                     clear_1:
   419  005FB6  6AEE               	clrf	postinc0,c
   420  005FB8  06E8               	decf	wreg,f,c
   421  005FBA  E1FD               	bnz	clear_1
   422  005FBC                     end_of_initialization:
   423                           	opt callstack 0
   424  005FBC                     __end_of__initialization:
   425                           	opt callstack 0
   426  005FBC  0E00               	movlw	low (__Lmediumconst shr (0+16))
   427  005FBE  6EF8               	movwf	tblptru,c
   428  005FC0  0100               	movlb	0
   429  005FC2  EF4A  F018         	goto	_main	;jump to C main() function
   430                           
   431                           	psect	bssBANK0
   432  0000F2                     __pbssBANK0:
   433                           	opt callstack 0
   434  0000F2                     ___fpclassifyf@F463:
   435                           	opt callstack 0
   436  0000F2                     	ds	4
   437  0000F6                     _nout:
   438                           	opt callstack 0
   439  0000F6                     	ds	2
   440  0000F8                     _width:
   441                           	opt callstack 0
   442  0000F8                     	ds	2
   443  0000FA                     _prec:
   444                           	opt callstack 0
   445  0000FA                     	ds	2
   446  0000FC                     _flags:
   447                           	opt callstack 0
   448  0000FC                     	ds	2
   449                           
   450                           	psect	bssBANK1
   451  0001F3                     __pbssBANK1:
   452                           	opt callstack 0
   453  0001F3                     floorf@F524:
   454                           	opt callstack 0
   455  0001F3                     	ds	4
   456  0001F7                     _diaSiguiente:
   457                           	opt callstack 0
   458  0001F7                     	ds	1
   459                           
   460                           	psect	dataBANK1
   461  0001DA                     __pdataBANK1:
   462                           	opt callstack 0
   463  0001DA                     main@F3604:
   464                           	opt callstack 0
   465  0001DA                     	ds	9
   466  0001E3                     main@F3602:
   467                           	opt callstack 0
   468  0001E3                     	ds	9
   469  0001EC                     stoa@F1166:
   470                           	opt callstack 0
   471  0001EC                     	ds	7
   472                           
   473                           	psect	bssBANK2
   474  000200                     __pbssBANK2:
   475                           	opt callstack 0
   476  000200                     _dbuf:
   477                           	opt callstack 0
   478  000200                     	ds	80
   479                           
   480                           	psect	cstackBANK1
   481  000100                     __pcstackBANK1:
   482                           	opt callstack 0
   483  000100                     main@datoSalida:
   484                           	opt callstack 0
   485                           
   486                           ; 50 bytes @ 0x0
   487  000100                     	ds	50
   488  000132                     main@cadenaFragmentada:
   489                           	opt callstack 0
   490                           
   491                           ; 65 bytes @ 0x32
   492  000132                     	ds	65
   493  000173                     main@bufferFecha:
   494                           	opt callstack 0
   495                           
   496                           ; 20 bytes @ 0x73
   497  000173                     	ds	20
   498  000187                     main@buffer:
   499                           	opt callstack 0
   500                           
   501                           ; 20 bytes @ 0x87
   502  000187                     	ds	20
   503  00019B                     main@horaCompleta:
   504                           	opt callstack 0
   505                           
   506                           ; 9 bytes @ 0x9B
   507  00019B                     	ds	9
   508  0001A4                     main@longitud:
   509                           	opt callstack 0
   510                           
   511                           ; 13 bytes @ 0xA4
   512  0001A4                     	ds	13
   513  0001B1                     main@latitud:
   514                           	opt callstack 0
   515                           
   516                           ; 13 bytes @ 0xB1
   517  0001B1                     	ds	13
   518  0001BE                     main@fecha:
   519                           	opt callstack 0
   520                           
   521                           ; 9 bytes @ 0xBE
   522  0001BE                     	ds	9
   523  0001C7                     main@latitudMostrar:
   524                           	opt callstack 0
   525                           
   526                           ; 4 bytes @ 0xC7
   527  0001C7                     	ds	4
   528  0001CB                     _main$1622:
   529                           	opt callstack 0
   530                           
   531                           ; 4 bytes @ 0xCB
   532  0001CB                     	ds	4
   533  0001CF                     main@longitudMostrar:
   534                           	opt callstack 0
   535                           
   536                           ; 4 bytes @ 0xCF
   537  0001CF                     	ds	4
   538  0001D3                     main@variableMostrar:
   539                           	opt callstack 0
   540                           
   541                           ; 1 bytes @ 0xD3
   542  0001D3                     	ds	1
   543  0001D4                     main@fechaReal:
   544                           	opt callstack 0
   545                           
   546                           ; 2 bytes @ 0xD4
   547  0001D4                     	ds	2
   548  0001D6                     main@temperatura:
   549                           	opt callstack 0
   550                           
   551                           ; 4 bytes @ 0xD6
   552  0001D6                     	ds	4
   553                           
   554                           	psect	cstackBANK0
   555  000060                     __pcstackBANK0:
   556                           	opt callstack 0
   557  000060                     ?_dameGrados:
   558                           	opt callstack 0
   559  000060                     dameGrados@cadenaFragmentada:
   560                           	opt callstack 0
   561  000060                     efgtoa@ou:
   562                           	opt callstack 0
   563                           
   564                           ; 4 bytes @ 0x0
   565  000060                     	ds	4
   566  000064                     _efgtoa$629:
   567                           	opt callstack 0
   568  000064                     _dameGrados$1621:
   569                           	opt callstack 0
   570                           
   571                           ; 4 bytes @ 0x4
   572  000064                     	ds	2
   573  000066                     _efgtoa$630:
   574                           	opt callstack 0
   575                           
   576                           ; 2 bytes @ 0x6
   577  000066                     	ds	2
   578  000068                     dameGrados@gradosDecimal:
   579                           	opt callstack 0
   580  000068                     _efgtoa$634:
   581                           	opt callstack 0
   582                           
   583                           ; 2 bytes @ 0x8
   584  000068                     	ds	2
   585  00006A                     _efgtoa$638:
   586                           	opt callstack 0
   587  00006A                     dameGrados@grados:
   588                           	opt callstack 0
   589                           
   590                           ; 4 bytes @ 0xA
   591  00006A                     	ds	2
   592  00006C                     _efgtoa$639:
   593                           	opt callstack 0
   594                           
   595                           ; 2 bytes @ 0xC
   596  00006C                     	ds	2
   597  00006E                     _efgtoa$640:
   598                           	opt callstack 0
   599                           
   600                           ; 2 bytes @ 0xE
   601  00006E                     	ds	2
   602  000070                     efgtoa@t:
   603                           	opt callstack 0
   604                           
   605                           ; 2 bytes @ 0x10
   606  000070                     	ds	2
   607  000072                     efgtoa@pp:
   608                           	opt callstack 0
   609                           
   610                           ; 2 bytes @ 0x12
   611  000072                     	ds	2
   612  000074                     efgtoa@m:
   613                           	opt callstack 0
   614                           
   615                           ; 2 bytes @ 0x14
   616  000074                     	ds	2
   617  000076                     efgtoa@ne:
   618                           	opt callstack 0
   619                           
   620                           ; 2 bytes @ 0x16
   621  000076                     	ds	2
   622  000078                     efgtoa@d:
   623                           	opt callstack 0
   624                           
   625                           ; 2 bytes @ 0x18
   626  000078                     	ds	2
   627  00007A                     efgtoa@sign:
   628                           	opt callstack 0
   629                           
   630                           ; 2 bytes @ 0x1A
   631  00007A                     	ds	2
   632  00007C                     efgtoa@p:
   633                           	opt callstack 0
   634                           
   635                           ; 2 bytes @ 0x1C
   636  00007C                     	ds	2
   637  00007E                     efgtoa@nmode:
   638                           	opt callstack 0
   639                           
   640                           ; 1 bytes @ 0x1E
   641  00007E                     	ds	1
   642  00007F                     efgtoa@w:
   643                           	opt callstack 0
   644                           
   645                           ; 2 bytes @ 0x1F
   646  00007F                     	ds	2
   647  000081                     efgtoa@mode:
   648                           	opt callstack 0
   649                           
   650                           ; 1 bytes @ 0x21
   651  000081                     	ds	1
   652  000082                     efgtoa@h:
   653                           	opt callstack 0
   654                           
   655                           ; 4 bytes @ 0x22
   656  000082                     	ds	4
   657  000086                     efgtoa@l:
   658                           	opt callstack 0
   659                           
   660                           ; 4 bytes @ 0x26
   661  000086                     	ds	4
   662  00008A                     efgtoa@i:
   663                           	opt callstack 0
   664                           
   665                           ; 2 bytes @ 0x2A
   666  00008A                     	ds	2
   667  00008C                     efgtoa@g:
   668                           	opt callstack 0
   669                           
   670                           ; 4 bytes @ 0x2C
   671  00008C                     	ds	4
   672  000090                     efgtoa@e:
   673                           	opt callstack 0
   674                           
   675                           ; 2 bytes @ 0x30
   676  000090                     	ds	2
   677  000092                     efgtoa@n:
   678                           	opt callstack 0
   679                           
   680                           ; 2 bytes @ 0x32
   681  000092                     	ds	2
   682  000094                     efgtoa@u:
   683                           	opt callstack 0
   684                           
   685                           ; 4 bytes @ 0x34
   686  000094                     	ds	4
   687  000098                     ??_vfpfcnvrt:
   688                           
   689                           ; 1 bytes @ 0x38
   690  000098                     	ds	4
   691  00009C                     vfpfcnvrt@ll:
   692                           	opt callstack 0
   693                           
   694                           ; 8 bytes @ 0x3C
   695  00009C                     	ds	8
   696  0000A4                     vfpfcnvrt@cp:
   697                           	opt callstack 0
   698                           
   699                           ; 2 bytes @ 0x44
   700  0000A4                     	ds	2
   701  0000A6                     _vfpfcnvrt$665:
   702                           	opt callstack 0
   703                           
   704                           ; 2 bytes @ 0x46
   705  0000A6                     	ds	2
   706  0000A8                     _vfpfcnvrt$671:
   707                           	opt callstack 0
   708                           
   709                           ; 2 bytes @ 0x48
   710  0000A8                     	ds	2
   711  0000AA                     vfpfcnvrt@f:
   712                           	opt callstack 0
   713                           
   714                           ; 4 bytes @ 0x4A
   715  0000AA                     	ds	4
   716  0000AE                     vfpfcnvrt@ct:
   717                           	opt callstack 0
   718                           
   719                           ; 3 bytes @ 0x4E
   720  0000AE                     	ds	3
   721  0000B1                     vfpfcnvrt@c:
   722                           	opt callstack 0
   723                           
   724                           ; 1 bytes @ 0x51
   725  0000B1                     	ds	1
   726  0000B2                     ?_vfprintf:
   727                           	opt callstack 0
   728  0000B2                     vfprintf@fp:
   729                           	opt callstack 0
   730                           
   731                           ; 2 bytes @ 0x52
   732  0000B2                     	ds	2
   733  0000B4                     vfprintf@fmt:
   734                           	opt callstack 0
   735                           
   736                           ; 2 bytes @ 0x54
   737  0000B4                     	ds	2
   738  0000B6                     vfprintf@ap:
   739                           	opt callstack 0
   740                           
   741                           ; 2 bytes @ 0x56
   742  0000B6                     	ds	2
   743  0000B8                     ?_sprintf:
   744                           	opt callstack 0
   745  0000B8                     sprintf@s:
   746                           	opt callstack 0
   747                           
   748                           ; 2 bytes @ 0x58
   749  0000B8                     	ds	2
   750  0000BA                     sprintf@fmt:
   751                           	opt callstack 0
   752                           
   753                           ; 2 bytes @ 0x5A
   754  0000BA                     	ds	20
   755  0000CE                     sprintf@ap:
   756                           	opt callstack 0
   757                           
   758                           ; 2 bytes @ 0x6E
   759  0000CE                     	ds	2
   760  0000D0                     sprintf@f:
   761                           	opt callstack 0
   762                           
   763                           ; 6 bytes @ 0x70
   764  0000D0                     	ds	6
   765  0000D6                     mensajeEspera@segundos:
   766                           	opt callstack 0
   767  0000D6                     dameHora@cadenaFragmentada:
   768                           	opt callstack 0
   769                           
   770                           ; 2 bytes @ 0x76
   771  0000D6                     	ds	2
   772  0000D8                     ??_mensajeEspera:
   773  0000D8                     dameHora@hora:
   774                           	opt callstack 0
   775                           
   776                           ; 2 bytes @ 0x78
   777  0000D8                     	ds	2
   778  0000DA                     ??_dameHora:
   779  0000DA                     mensajeEspera@buffer:
   780                           	opt callstack 0
   781                           
   782                           ; 20 bytes @ 0x7A
   783  0000DA                     	ds	4
   784  0000DE                     dameHora@decenaHora:
   785                           	opt callstack 0
   786                           
   787                           ; 2 bytes @ 0x7E
   788  0000DE                     	ds	2
   789  0000E0                     dameHora@unidadHora:
   790                           	opt callstack 0
   791                           
   792                           ; 2 bytes @ 0x80
   793  0000E0                     	ds	2
   794  0000E2                     _dameHora$1620:
   795                           	opt callstack 0
   796                           
   797                           ; 2 bytes @ 0x82
   798  0000E2                     	ds	2
   799  0000E4                     dameHora@horaGMT:
   800                           	opt callstack 0
   801                           
   802                           ; 2 bytes @ 0x84
   803  0000E4                     	ds	2
   804  0000E6                     dameHora@i:
   805                           	opt callstack 0
   806                           
   807                           ; 2 bytes @ 0x86
   808  0000E6                     	ds	8
   809  0000EE                     ??_main:
   810                           
   811                           ; 1 bytes @ 0x8E
   812  0000EE                     	ds	4
   813                           
   814                           	psect	cstackCOMRAM
   815  000001                     __pcstackCOMRAM:
   816                           	opt callstack 0
   817  000001                     ?_strlen:
   818                           	opt callstack 0
   819  000001                     ?___fpclassifyf:
   820                           	opt callstack 0
   821  000001                     ?_isupper:
   822                           	opt callstack 0
   823  000001                     ?_isdigit:
   824                           	opt callstack 0
   825  000001                     ?_strncmp:
   826                           	opt callstack 0
   827  000001                     ?_isspace:
   828                           	opt callstack 0
   829  000001                     ?_isxdigit:
   830                           	opt callstack 0
   831  000001                     ?_islower:
   832                           	opt callstack 0
   833  000001                     ?___wmul:
   834                           	opt callstack 0
   835  000001                     ?___awdiv:
   836                           	opt callstack 0
   837  000001                     ?___flmul:
   838                           	opt callstack 0
   839  000001                     ?_nanf:
   840                           	opt callstack 0
   841  000001                     ?___lmul:
   842                           	opt callstack 0
   843  000001                     ?___aldiv:
   844                           	opt callstack 0
   845  000001                     ?___flneg:
   846                           	opt callstack 0
   847  000001                     ?___fltol:
   848                           	opt callstack 0
   849  000001                     ?___xxtofl:
   850                           	opt callstack 0
   851  000001                     ?___aodiv:
   852                           	opt callstack 0
   853  000001                     ?___aomod:
   854                           	opt callstack 0
   855  000001                     UART_write@dato:
   856                           	opt callstack 0
   857  000001                     Lcd_Port@a:
   858                           	opt callstack 0
   859  000001                     leerGps@cadenaInicial:
   860                           	opt callstack 0
   861  000001                     dameDato@cadenaFragmentada:
   862                           	opt callstack 0
   863  000001                     ___wmul@multiplier:
   864                           	opt callstack 0
   865  000001                     ___awdiv@dividend:
   866                           	opt callstack 0
   867  000001                     isdigit@c:
   868                           	opt callstack 0
   869  000001                     isspace@c:
   870                           	opt callstack 0
   871  000001                     isupper@c:
   872                           	opt callstack 0
   873  000001                     fputc@c:
   874                           	opt callstack 0
   875  000001                     strcpy@dest:
   876                           	opt callstack 0
   877  000001                     strlen@s:
   878                           	opt callstack 0
   879  000001                     strncmp@_l:
   880                           	opt callstack 0
   881  000001                     islower@c:
   882                           	opt callstack 0
   883  000001                     isxdigit@c:
   884                           	opt callstack 0
   885  000001                     nanf@s:
   886                           	opt callstack 0
   887  000001                     ___lmul@multiplier:
   888                           	opt callstack 0
   889  000001                     ___aldiv@dividend:
   890                           	opt callstack 0
   891  000001                     ___fleq@ff1:
   892                           	opt callstack 0
   893  000001                     ___flneg@f1:
   894                           	opt callstack 0
   895  000001                     ___fltol@f1:
   896                           	opt callstack 0
   897  000001                     ___flmul@b:
   898                           	opt callstack 0
   899  000001                     ___xxtofl@val:
   900                           	opt callstack 0
   901  000001                     ___fpclassifyf@x:
   902                           	opt callstack 0
   903  000001                     ___aodiv@dividend:
   904                           	opt callstack 0
   905  000001                     ___aomod@dividend:
   906                           	opt callstack 0
   907                           
   908                           ; 8 bytes @ 0x0
   909  000001                     	ds	1
   910  000002                     ??_Lcd_Cmd:
   911  000002                     Lcd_Write_Char@temp:
   912                           	opt callstack 0
   913  000002                     UART_printf@cadena:
   914                           	opt callstack 0
   915                           
   916                           ; 2 bytes @ 0x1
   917  000002                     	ds	1
   918  000003                     ??_isupper:
   919  000003                     ??_isdigit:
   920  000003                     ??_isspace:
   921  000003                     ??_isxdigit:
   922  000003                     ??_islower:
   923  000003                     ??_leerGps:
   924  000003                     Lcd_Cmd@a:
   925                           	opt callstack 0
   926  000003                     Lcd_Write_Char@y:
   927                           	opt callstack 0
   928  000003                     dameDato@numComas:
   929                           	opt callstack 0
   930  000003                     ___wmul@multiplicand:
   931                           	opt callstack 0
   932  000003                     ___awdiv@divisor:
   933                           	opt callstack 0
   934  000003                     fputc@fp:
   935                           	opt callstack 0
   936  000003                     strcpy@src:
   937                           	opt callstack 0
   938  000003                     strlen@a:
   939                           	opt callstack 0
   940  000003                     strncmp@_r:
   941                           	opt callstack 0
   942                           
   943                           ; 2 bytes @ 0x2
   944  000003                     	ds	1
   945  000004                     ??_Lcd_Init:
   946  000004                     Lcd_Set_Cursor@b:
   947                           	opt callstack 0
   948  000004                     Lcd_Write_Char@a:
   949                           	opt callstack 0
   950                           
   951                           ; 1 bytes @ 0x3
   952  000004                     	ds	1
   953  000005                     ??_fputc:
   954  000005                     ??___fpclassifyf:
   955  000005                     ??_strcpy:
   956  000005                     ??___fltol:
   957  000005                     ??___xxtofl:
   958  000005                     Lcd_Set_Cursor@a:
   959                           	opt callstack 0
   960  000005                     ___awdiv@counter:
   961                           	opt callstack 0
   962  000005                     Lcd_Write_String@a:
   963                           	opt callstack 0
   964  000005                     dameDato@variable:
   965                           	opt callstack 0
   966  000005                     ___wmul@product:
   967                           	opt callstack 0
   968  000005                     strncmp@n:
   969                           	opt callstack 0
   970  000005                     ___lmul@multiplicand:
   971                           	opt callstack 0
   972  000005                     ___aldiv@divisor:
   973                           	opt callstack 0
   974  000005                     ___fleq@ff2:
   975                           	opt callstack 0
   976  000005                     ___flmul@a:
   977                           	opt callstack 0
   978  000005                     nanf@u:
   979                           	opt callstack 0
   980                           
   981                           ; 4 bytes @ 0x4
   982  000005                     	ds	1
   983  000006                     Lcd_Set_Cursor@z:
   984                           	opt callstack 0
   985  000006                     ___awdiv@sign:
   986                           	opt callstack 0
   987                           
   988                           ; 1 bytes @ 0x5
   989  000006                     	ds	1
   990  000007                     ??_strncmp:
   991  000007                     ??_Lcd_Write_String:
   992  000007                     ??_dameDato:
   993  000007                     ?_tolower:
   994                           	opt callstack 0
   995  000007                     ?_toupper:
   996                           	opt callstack 0
   997  000007                     Lcd_Set_Cursor@y:
   998                           	opt callstack 0
   999  000007                     _isspace$1176:
  1000                           	opt callstack 0
  1001  000007                     _isxdigit$1359:
  1002                           	opt callstack 0
  1003  000007                     leerGps@ok:
  1004                           	opt callstack 0
  1005  000007                     ___awdiv@quotient:
  1006                           	opt callstack 0
  1007  000007                     strcpy@s:
  1008                           	opt callstack 0
  1009  000007                     tolower@c:
  1010                           	opt callstack 0
  1011  000007                     toupper@c:
  1012                           	opt callstack 0
  1013                           
  1014                           ; 2 bytes @ 0x6
  1015  000007                     	ds	1
  1016  000008                     ?_atoi:
  1017                           	opt callstack 0
  1018  000008                     Lcd_Set_Cursor@temp:
  1019                           	opt callstack 0
  1020  000008                     atoi@s:
  1021                           	opt callstack 0
  1022  000008                     strncmp@l:
  1023                           	opt callstack 0
  1024                           
  1025                           ; 2 bytes @ 0x7
  1026  000008                     	ds	1
  1027  000009                     ??_tolower:
  1028  000009                     ??___flmul:
  1029  000009                     ??_toupper:
  1030  000009                     ??___fleq:
  1031  000009                     ?___awmod:
  1032                           	opt callstack 0
  1033  000009                     ___aldiv@counter:
  1034                           	opt callstack 0
  1035  000009                     ___fltol@sign1:
  1036                           	opt callstack 0
  1037  000009                     ___xxtofl@sign:
  1038                           	opt callstack 0
  1039  000009                     Lcd_Write_String@i:
  1040                           	opt callstack 0
  1041  000009                     leerGps@cont:
  1042                           	opt callstack 0
  1043  000009                     ___awmod@dividend:
  1044                           	opt callstack 0
  1045  000009                     ___fpclassifyf@e:
  1046                           	opt callstack 0
  1047  000009                     strcpy@d:
  1048                           	opt callstack 0
  1049  000009                     ___lmul@product:
  1050                           	opt callstack 0
  1051  000009                     ___aodiv@divisor:
  1052                           	opt callstack 0
  1053  000009                     ___aomod@divisor:
  1054                           	opt callstack 0
  1055                           
  1056                           ; 8 bytes @ 0x8
  1057  000009                     	ds	1
  1058  00000A                     ??_atoi:
  1059  00000A                     ?_stoa:
  1060                           	opt callstack 0
  1061  00000A                     ___aldiv@sign:
  1062                           	opt callstack 0
  1063  00000A                     ___fltol@exp1:
  1064                           	opt callstack 0
  1065  00000A                     ___xxtofl@exp:
  1066                           	opt callstack 0
  1067  00000A                     dameDato@comasContadas:
  1068                           	opt callstack 0
  1069  00000A                     stoa@fp:
  1070                           	opt callstack 0
  1071  00000A                     fputs@s:
  1072                           	opt callstack 0
  1073  00000A                     strncmp@r:
  1074                           	opt callstack 0
  1075                           
  1076                           ; 2 bytes @ 0x9
  1077  00000A                     	ds	1
  1078  00000B                     leerGps@leerByte:
  1079                           	opt callstack 0
  1080  00000B                     ___awmod@divisor:
  1081                           	opt callstack 0
  1082  00000B                     ___aldiv@quotient:
  1083                           	opt callstack 0
  1084  00000B                     ___xxtofl@arg:
  1085                           	opt callstack 0
  1086  00000B                     ___fpclassifyf@u:
  1087                           	opt callstack 0
  1088                           
  1089                           ; 4 bytes @ 0xA
  1090  00000B                     	ds	1
  1091  00000C                     dameDato@j:
  1092                           	opt callstack 0
  1093  00000C                     stoa@s:
  1094                           	opt callstack 0
  1095  00000C                     fputs@fp:
  1096                           	opt callstack 0
  1097                           
  1098                           ; 2 bytes @ 0xB
  1099  00000C                     	ds	1
  1100  00000D                     ___awmod@counter:
  1101                           	opt callstack 0
  1102  00000D                     ___flmul@sign:
  1103                           	opt callstack 0
  1104  00000D                     _tolower$1324:
  1105                           	opt callstack 0
  1106  00000D                     _toupper$1339:
  1107                           	opt callstack 0
  1108                           
  1109                           ; 2 bytes @ 0xC
  1110  00000D                     	ds	1
  1111  00000E                     ??_stoa:
  1112  00000E                     ___awmod@sign:
  1113                           	opt callstack 0
  1114  00000E                     fputs@c:
  1115                           	opt callstack 0
  1116  00000E                     dameDato@i:
  1117                           	opt callstack 0
  1118  00000E                     atoi@neg:
  1119                           	opt callstack 0
  1120  00000E                     ___flmul@grs:
  1121                           	opt callstack 0
  1122                           
  1123                           ; 4 bytes @ 0xD
  1124  00000E                     	ds	1
  1125  00000F                     fputs@i:
  1126                           	opt callstack 0
  1127  00000F                     UART_init@BAUD:
  1128                           	opt callstack 0
  1129  00000F                     stoa@nuls:
  1130                           	opt callstack 0
  1131                           
  1132                           ; 7 bytes @ 0xE
  1133  00000F                     	ds	1
  1134  000010                     _atoi$1145:
  1135                           	opt callstack 0
  1136                           
  1137                           ; 2 bytes @ 0xF
  1138  000010                     	ds	1
  1139  000011                     ?_pad:
  1140                           	opt callstack 0
  1141  000011                     ___aodiv@counter:
  1142                           	opt callstack 0
  1143  000011                     ___aomod@counter:
  1144                           	opt callstack 0
  1145  000011                     pad@fp:
  1146                           	opt callstack 0
  1147                           
  1148                           ; 2 bytes @ 0x10
  1149  000011                     	ds	1
  1150  000012                     ___aodiv@sign:
  1151                           	opt callstack 0
  1152  000012                     ___aomod@sign:
  1153                           	opt callstack 0
  1154  000012                     ___flmul@aexp:
  1155                           	opt callstack 0
  1156  000012                     _atoi$1147:
  1157                           	opt callstack 0
  1158                           
  1159                           ; 2 bytes @ 0x11
  1160  000012                     	ds	1
  1161  000013                     ?_abs:
  1162                           	opt callstack 0
  1163  000013                     ___flmul@bexp:
  1164                           	opt callstack 0
  1165  000013                     pad@buf:
  1166                           	opt callstack 0
  1167  000013                     abs@a:
  1168                           	opt callstack 0
  1169  000013                     ___aodiv@quotient:
  1170                           	opt callstack 0
  1171                           
  1172                           ; 8 bytes @ 0x12
  1173  000013                     	ds	1
  1174  000014                     _atoi$1146:
  1175                           	opt callstack 0
  1176  000014                     ___flmul@prod:
  1177                           	opt callstack 0
  1178                           
  1179                           ; 4 bytes @ 0x13
  1180  000014                     	ds	1
  1181  000015                     ??_abs:
  1182  000015                     pad@p:
  1183                           	opt callstack 0
  1184  000015                     atoi@n:
  1185                           	opt callstack 0
  1186                           
  1187                           ; 2 bytes @ 0x14
  1188  000015                     	ds	1
  1189  000016                     stoa@i:
  1190                           	opt callstack 0
  1191                           
  1192                           ; 2 bytes @ 0x15
  1193  000016                     	ds	1
  1194  000017                     ??_pad:
  1195  000017                     _UART_init$1619:
  1196                           	opt callstack 0
  1197                           
  1198                           ; 4 bytes @ 0x16
  1199  000017                     	ds	1
  1200  000018                     pad@i:
  1201                           	opt callstack 0
  1202  000018                     stoa@w:
  1203                           	opt callstack 0
  1204  000018                     ___flmul@temp:
  1205                           	opt callstack 0
  1206                           
  1207                           ; 2 bytes @ 0x17
  1208  000018                     	ds	2
  1209  00001A                     ?___fldiv:
  1210                           	opt callstack 0
  1211  00001A                     dameTemperaturaLm35@temperatura:
  1212                           	opt callstack 0
  1213  00001A                     pad@w:
  1214                           	opt callstack 0
  1215  00001A                     stoa@cp:
  1216                           	opt callstack 0
  1217  00001A                     ___flge@ff1:
  1218                           	opt callstack 0
  1219  00001A                     ___fldiv@b:
  1220                           	opt callstack 0
  1221                           
  1222                           ; 4 bytes @ 0x19
  1223  00001A                     	ds	2
  1224  00001C                     ??_dameTemperaturaLm35:
  1225  00001C                     ?_ctoa:
  1226                           	opt callstack 0
  1227  00001C                     ?_dtoa:
  1228                           	opt callstack 0
  1229  00001C                     ctoa@fp:
  1230                           	opt callstack 0
  1231  00001C                     dtoa@fp:
  1232                           	opt callstack 0
  1233  00001C                     stoa@p:
  1234                           	opt callstack 0
  1235                           
  1236                           ; 2 bytes @ 0x1B
  1237  00001C                     	ds	2
  1238  00001E                     ctoa@c:
  1239                           	opt callstack 0
  1240  00001E                     stoa@l:
  1241                           	opt callstack 0
  1242  00001E                     ___flge@ff2:
  1243                           	opt callstack 0
  1244  00001E                     ___fldiv@a:
  1245                           	opt callstack 0
  1246  00001E                     dtoa@d:
  1247                           	opt callstack 0
  1248                           
  1249                           ; 8 bytes @ 0x1D
  1250  00001E                     	ds	1
  1251  00001F                     ctoa@w:
  1252                           	opt callstack 0
  1253                           
  1254                           ; 2 bytes @ 0x1E
  1255  00001F                     	ds	3
  1256  000022                     ??___fldiv:
  1257  000022                     ??___flge:
  1258                           
  1259                           ; 1 bytes @ 0x21
  1260  000022                     	ds	4
  1261  000026                     ??_dtoa:
  1262  000026                     ___fldiv@rem:
  1263                           	opt callstack 0
  1264                           
  1265                           ; 4 bytes @ 0x25
  1266  000026                     	ds	4
  1267  00002A                     ___fldiv@sign:
  1268                           	opt callstack 0
  1269                           
  1270                           ; 1 bytes @ 0x29
  1271  00002A                     	ds	1
  1272  00002B                     ___fldiv@new_exp:
  1273                           	opt callstack 0
  1274                           
  1275                           ; 2 bytes @ 0x2A
  1276  00002B                     	ds	2
  1277  00002D                     ___fldiv@grs:
  1278                           	opt callstack 0
  1279                           
  1280                           ; 4 bytes @ 0x2C
  1281  00002D                     	ds	1
  1282  00002E                     _dtoa$606:
  1283                           	opt callstack 0
  1284                           
  1285                           ; 2 bytes @ 0x2D
  1286  00002E                     	ds	2
  1287  000030                     dtoa@p:
  1288                           	opt callstack 0
  1289                           
  1290                           ; 2 bytes @ 0x2F
  1291  000030                     	ds	1
  1292  000031                     ___fldiv@bexp:
  1293                           	opt callstack 0
  1294                           
  1295                           ; 1 bytes @ 0x30
  1296  000031                     	ds	1
  1297  000032                     ___fldiv@aexp:
  1298                           	opt callstack 0
  1299  000032                     dtoa@w:
  1300                           	opt callstack 0
  1301                           
  1302                           ; 2 bytes @ 0x31
  1303  000032                     	ds	1
  1304  000033                     ?_floorf:
  1305                           	opt callstack 0
  1306  000033                     ?___fladd:
  1307                           	opt callstack 0
  1308  000033                     ?_strtof:
  1309                           	opt callstack 0
  1310  000033                     strtof@s:
  1311                           	opt callstack 0
  1312  000033                     ___fladd@b:
  1313                           	opt callstack 0
  1314  000033                     floorf@x:
  1315                           	opt callstack 0
  1316                           
  1317                           ; 4 bytes @ 0x32
  1318  000033                     	ds	1
  1319  000034                     dtoa@s:
  1320                           	opt callstack 0
  1321                           
  1322                           ; 2 bytes @ 0x33
  1323  000034                     	ds	1
  1324  000035                     strtof@res:
  1325                           	opt callstack 0
  1326                           
  1327                           ; 2 bytes @ 0x34
  1328  000035                     	ds	1
  1329  000036                     dtoa@n:
  1330                           	opt callstack 0
  1331                           
  1332                           ; 8 bytes @ 0x35
  1333  000036                     	ds	1
  1334  000037                     ??_floorf:
  1335  000037                     ??_strtof:
  1336  000037                     ___fladd@a:
  1337                           	opt callstack 0
  1338                           
  1339                           ; 4 bytes @ 0x36
  1340  000037                     	ds	4
  1341  00003B                     ??___fladd:
  1342                           
  1343                           ; 1 bytes @ 0x3A
  1344  00003B                     	ds	2
  1345  00003D                     _strtof$1286:
  1346                           	opt callstack 0
  1347  00003D                     floorf@m:
  1348                           	opt callstack 0
  1349                           
  1350                           ; 4 bytes @ 0x3C
  1351  00003D                     	ds	1
  1352  00003E                     dtoa@i:
  1353                           	opt callstack 0
  1354                           
  1355                           ; 2 bytes @ 0x3D
  1356  00003E                     	ds	1
  1357  00003F                     ___fladd@signs:
  1358                           	opt callstack 0
  1359  00003F                     _strtof$1297:
  1360                           	opt callstack 0
  1361                           
  1362                           ; 2 bytes @ 0x3E
  1363  00003F                     	ds	1
  1364  000040                     ___fladd@aexp:
  1365                           	opt callstack 0
  1366                           
  1367                           ; 1 bytes @ 0x3F
  1368  000040                     	ds	1
  1369  000041                     ___fladd@bexp:
  1370                           	opt callstack 0
  1371  000041                     floorf@e:
  1372                           	opt callstack 0
  1373  000041                     _strtof$1298:
  1374                           	opt callstack 0
  1375                           
  1376                           ; 2 bytes @ 0x40
  1377  000041                     	ds	1
  1378  000042                     ___fladd@grs:
  1379                           	opt callstack 0
  1380                           
  1381                           ; 1 bytes @ 0x41
  1382  000042                     	ds	1
  1383  000043                     ?___flsub:
  1384                           	opt callstack 0
  1385  000043                     _strtof$1299:
  1386                           	opt callstack 0
  1387  000043                     ___flsub@b:
  1388                           	opt callstack 0
  1389  000043                     floorf@u:
  1390                           	opt callstack 0
  1391                           
  1392                           ; 4 bytes @ 0x42
  1393  000043                     	ds	2
  1394  000045                     _strtof$1300:
  1395                           	opt callstack 0
  1396                           
  1397                           ; 2 bytes @ 0x44
  1398  000045                     	ds	2
  1399  000047                     _strtof$1301:
  1400                           	opt callstack 0
  1401  000047                     ___flsub@a:
  1402                           	opt callstack 0
  1403                           
  1404                           ; 4 bytes @ 0x46
  1405  000047                     	ds	2
  1406  000049                     _strtof$1302:
  1407                           	opt callstack 0
  1408                           
  1409                           ; 2 bytes @ 0x48
  1410  000049                     	ds	2
  1411  00004B                     ?_efgtoa:
  1412                           	opt callstack 0
  1413  00004B                     efgtoa@fp:
  1414                           	opt callstack 0
  1415  00004B                     _strtof$1303:
  1416                           	opt callstack 0
  1417                           
  1418                           ; 2 bytes @ 0x4A
  1419  00004B                     	ds	2
  1420  00004D                     _strtof$1287:
  1421                           	opt callstack 0
  1422  00004D                     efgtoa@f:
  1423                           	opt callstack 0
  1424                           
  1425                           ; 4 bytes @ 0x4C
  1426  00004D                     	ds	1
  1427  00004E                     strtof@digit:
  1428                           	opt callstack 0
  1429                           
  1430                           ; 1 bytes @ 0x4D
  1431  00004E                     	ds	1
  1432  00004F                     strtof@flags:
  1433                           	opt callstack 0
  1434                           
  1435                           ; 1 bytes @ 0x4E
  1436  00004F                     	ds	1
  1437  000050                     strtof@expon:
  1438                           	opt callstack 0
  1439                           
  1440                           ; 2 bytes @ 0x4F
  1441  000050                     	ds	1
  1442  000051                     efgtoa@c:
  1443                           	opt callstack 0
  1444                           
  1445                           ; 1 bytes @ 0x50
  1446  000051                     	ds	1
  1447  000052                     ??_efgtoa:
  1448  000052                     strtof@eexp:
  1449                           	opt callstack 0
  1450                           
  1451                           ; 2 bytes @ 0x51
  1452  000052                     	ds	2
  1453  000054                     strtof@_u:
  1454                           	opt callstack 0
  1455                           
  1456                           ; 4 bytes @ 0x53
  1457  000054                     	ds	3
  1458  000057                     ?_vfpfcnvrt:
  1459                           	opt callstack 0
  1460  000057                     vfpfcnvrt@fp:
  1461                           	opt callstack 0
  1462                           
  1463                           ; 2 bytes @ 0x56
  1464  000057                     	ds	1
  1465  000058                     strtof@i:
  1466                           	opt callstack 0
  1467                           
  1468                           ; 1 bytes @ 0x57
  1469  000058                     	ds	1
  1470  000059                     ?_atof:
  1471                           	opt callstack 0
  1472  000059                     vfpfcnvrt@fmt:
  1473                           	opt callstack 0
  1474  000059                     atof@s:
  1475                           	opt callstack 0
  1476                           
  1477                           ; 2 bytes @ 0x58
  1478  000059                     	ds	2
  1479  00005B                     vfpfcnvrt@ap:
  1480                           	opt callstack 0
  1481                           
  1482                           ; 2 bytes @ 0x5A
  1483  00005B                     	ds	2
  1484  00005D                     vfprintf@cfmt:
  1485                           	opt callstack 0
  1486                           
  1487                           ; 2 bytes @ 0x5C
  1488  00005D                     	ds	2
  1489  00005F                     
  1490                           ; 1 bytes @ 0x5E
  1491 ;;
  1492 ;;Main: autosize = 0, tempsize = 4, incstack = 0, save=0
  1493 ;;
  1494 ;; *************** function _main *****************
  1495 ;; Defined at:
  1496 ;;		line 215 in file "main.c"
  1497 ;; Parameters:    Size  Location     Type
  1498 ;;		None
  1499 ;; Auto vars:     Size  Location     Type
  1500 ;;  cadenaFragme   65   50[BANK1 ] unsigned char [65]
  1501 ;;  datoSalida     50    0[BANK1 ] unsigned char [50]
  1502 ;;  buffer         20  135[BANK1 ] unsigned char [20]
  1503 ;;  bufferFecha    20  115[BANK1 ] unsigned char [20]
  1504 ;;  latitud        13  177[BANK1 ] unsigned char [13]
  1505 ;;  longitud       13  164[BANK1 ] unsigned char [13]
  1506 ;;  fecha           9  190[BANK1 ] unsigned char [9]
  1507 ;;  horaCompleta    9  155[BANK1 ] unsigned char [9]
  1508 ;;  temperatura     4  214[BANK1 ] float 
  1509 ;;  longitudMost    4  207[BANK1 ] float 
  1510 ;;  latitudMostr    4  199[BANK1 ] float 
  1511 ;;  fechaReal       2  212[BANK1 ] int 
  1512 ;;  variableMost    1  211[BANK1 ] unsigned char 
  1513 ;; Return value:  Size  Location     Type
  1514 ;;                  1    wreg      void 
  1515 ;; Registers used:
  1516 ;;		wreg, fsr1l, fsr1h, fsr2l, fsr2h, status,2, status,0, tblptrl, tblptrh, tblptru, prodl, prodh, cstack
  1517 ;; Tracked objects:
  1518 ;;		On entry : 0/0
  1519 ;;		On exit  : 0/0
  1520 ;;		Unchanged: 0/0
  1521 ;; Data sizes:     COMRAM   BANK0   BANK1   BANK2   BANK3   BANK4   BANK5   BANK6   BANK7
  1522 ;;      Params:         0       0       0       0       0       0       0       0       0
  1523 ;;      Locals:         0       0     218       0       0       0       0       0       0
  1524 ;;      Temps:          0       4       0       0       0       0       0       0       0
  1525 ;;      Totals:         0       4     218       0       0       0       0       0       0
  1526 ;;Total ram usage:      222 bytes
  1527 ;; Hardware stack levels required when called:    9
  1528 ;; This function calls:
  1529 ;;		_Lcd_Clear
  1530 ;;		_Lcd_Init
  1531 ;;		_Lcd_Set_Cursor
  1532 ;;		_Lcd_Write_String
  1533 ;;		_UART_init
  1534 ;;		_UART_printf
  1535 ;;		___flmul
  1536 ;;		___wmul
  1537 ;;		_configurarAdc
  1538 ;;		_dameDato
  1539 ;;		_dameGrados
  1540 ;;		_dameHora
  1541 ;;		_dameTemperaturaLm35
  1542 ;;		_leerGps
  1543 ;;		_mensajeEspera
  1544 ;;		_sprintf
  1545 ;; This function is called by:
  1546 ;;		Startup code after reset
  1547 ;; This function uses a non-reentrant model
  1548 ;;
  1549                           
  1550                           	psect	text0
  1551  003094                     __ptext0:
  1552                           	opt callstack 0
  1553  003094                     _main:
  1554                           	opt callstack 22
  1555  003094                     
  1556                           ;main.c: 217:     float temperatura;;main.c: 218:     int fechaReal = 0;
  1557  003094  0E00               	movlw	0
  1558  003096  0101               	movlb	1	; () banked
  1559  003098  6FD5               	movwf	(main@fechaReal+1)& (0+255),b
  1560  00309A  0E00               	movlw	0
  1561  00309C  6FD4               	movwf	main@fechaReal& (0+255),b
  1562  00309E                     
  1563                           ; BSR set to: 1
  1564                           ;main.c: 219:     char buffer [20];;main.c: 220:     char bufferFecha [20];;main.c: 221:
      +                               unsigned char horaCompleta[9] = "00:00:00";
  1565  00309E  EE21  F0E3         	lfsr	2,main@F3602
  1566  0030A2  EE11  F09B         	lfsr	1,main@horaCompleta
  1567  0030A6  0E08               	movlw	8
  1568  0030A8                     u8671:
  1569  0030A8  CFDB FFE3          	movff	plusw2,plusw1
  1570  0030AC  06E8               	decf	wreg,f,c
  1571  0030AE  E2FC               	bc	u8671
  1572  0030B0                     
  1573                           ; BSR set to: 1
  1574                           ;main.c: 222:     char fecha[9] = "00/00/00";
  1575  0030B0  EE21  F0DA         	lfsr	2,main@F3604
  1576  0030B4  EE11  F0BE         	lfsr	1,main@fecha
  1577  0030B8  0E08               	movlw	8
  1578  0030BA                     u8681:
  1579  0030BA  CFDB FFE3          	movff	plusw2,plusw1
  1580  0030BE  06E8               	decf	wreg,f,c
  1581  0030C0  E2FC               	bc	u8681
  1582                           
  1583                           ;main.c: 223:     unsigned char variableMostrar = 0;
  1584  0030C2  0E00               	movlw	0
  1585  0030C4  6FD3               	movwf	main@variableMostrar& (0+255),b
  1586                           
  1587                           ;main.c: 225:     char longitud[13];;main.c: 226:     char latitud[13];;main.c: 228:    
      +                           float latitudMostrar;;main.c: 229:     float longitudMostrar;;main.c: 231:     char cad
      +                          enaFragmentada[65];;main.c: 232:     char datoSalida[50];;main.c: 235:     TRISD = 0;
  1588  0030C6  0E00               	movlw	0
  1589  0030C8  6E95               	movwf	149,c	;volatile
  1590  0030CA                     
  1591                           ; BSR set to: 1
  1592                           ;main.c: 236:     TRISBbits.RB2 = 1;
  1593  0030CA  8493               	bsf	147,2,c	;volatile
  1594  0030CC                     
  1595                           ; BSR set to: 1
  1596                           ;main.c: 238:     configurarAdc();
  1597  0030CC  EC70  F031         	call	_configurarAdc	;wreg free
  1598  0030D0                     
  1599                           ;main.c: 239:     Lcd_Init();
  1600  0030D0  EC3F  F02D         	call	_Lcd_Init	;wreg free
  1601  0030D4                     
  1602                           ;main.c: 240:     UART_init(9600);
  1603  0030D4  0E80               	movlw	128
  1604  0030D6  6E0F               	movwf	UART_init@BAUD^0,c
  1605  0030D8  0E25               	movlw	37
  1606  0030DA  6E10               	movwf	(UART_init@BAUD+1)^0,c
  1607  0030DC  0E00               	movlw	0
  1608  0030DE  6E11               	movwf	(UART_init@BAUD+2)^0,c
  1609  0030E0  0E00               	movlw	0
  1610  0030E2  6E12               	movwf	(UART_init@BAUD+3)^0,c
  1611  0030E4  ECB0  F02D         	call	_UART_init	;wreg free
  1612  0030E8                     
  1613                           ;main.c: 241:     leerGps(cadenaFragmentada);
  1614  0030E8  0E32               	movlw	low main@cadenaFragmentada
  1615  0030EA  6E01               	movwf	leerGps@cadenaInicial^0,c
  1616  0030EC  0E01               	movlw	high main@cadenaFragmentada
  1617  0030EE  6E02               	movwf	(leerGps@cadenaInicial+1)^0,c
  1618  0030F0  EC07  F024         	call	_leerGps	;wreg free
  1619  0030F4                     
  1620                           ;main.c: 242:     mensajeEspera(15);
  1621  0030F4  0E00               	movlw	0
  1622  0030F6  0100               	movlb	0	; () banked
  1623  0030F8  6FD7               	movwf	(mensajeEspera@segundos+1)& (0+255),b
  1624  0030FA  0E0F               	movlw	15
  1625  0030FC  6FD6               	movwf	mensajeEspera@segundos& (0+255),b
  1626  0030FE  ECBC  F02C         	call	_mensajeEspera	;wreg free
  1627  003102                     l6403:
  1628                           
  1629                           ;main.c: 247:         dameTemperaturaLm35(&temperatura);
  1630  003102  0ED6               	movlw	low main@temperatura
  1631  003104  6E1A               	movwf	dameTemperaturaLm35@temperatura^0,c
  1632  003106  0E01               	movlw	high main@temperatura
  1633  003108  6E1B               	movwf	(dameTemperaturaLm35@temperatura+1)^0,c
  1634  00310A  EC6C  F02C         	call	_dameTemperaturaLm35	;wreg free
  1635  00310E                     
  1636                           ;main.c: 249:         leerGps(cadenaFragmentada);
  1637  00310E  0E32               	movlw	low main@cadenaFragmentada
  1638  003110  6E01               	movwf	leerGps@cadenaInicial^0,c
  1639  003112  0E01               	movlw	high main@cadenaFragmentada
  1640  003114  6E02               	movwf	(leerGps@cadenaInicial+1)^0,c
  1641  003116  EC07  F024         	call	_leerGps	;wreg free
  1642  00311A                     
  1643                           ;main.c: 250:         dameHora(cadenaFragmentada, horaCompleta);
  1644  00311A  0E32               	movlw	low main@cadenaFragmentada
  1645  00311C  0100               	movlb	0	; () banked
  1646  00311E  6FD6               	movwf	dameHora@cadenaFragmentada& (0+255),b
  1647  003120  0E01               	movlw	high main@cadenaFragmentada
  1648  003122  6FD7               	movwf	(dameHora@cadenaFragmentada+1)& (0+255),b
  1649  003124  0E9B               	movlw	low main@horaCompleta
  1650  003126  6FD8               	movwf	dameHora@hora& (0+255),b
  1651  003128  0E01               	movlw	high main@horaCompleta
  1652  00312A  6FD9               	movwf	(dameHora@hora+1)& (0+255),b
  1653  00312C  ECEC  F01F         	call	_dameHora	;wreg free
  1654  003130                     
  1655                           ;main.c: 251:         dameDato(cadenaFragmentada, 2, latitud);
  1656  003130  0E32               	movlw	low main@cadenaFragmentada
  1657  003132  6E01               	movwf	dameDato@cadenaFragmentada^0,c
  1658  003134  0E01               	movlw	high main@cadenaFragmentada
  1659  003136  6E02               	movwf	(dameDato@cadenaFragmentada+1)^0,c
  1660  003138  0E00               	movlw	0
  1661  00313A  6E04               	movwf	(dameDato@numComas+1)^0,c
  1662  00313C  0E02               	movlw	2
  1663  00313E  6E03               	movwf	dameDato@numComas^0,c
  1664  003140  0EB1               	movlw	low main@latitud
  1665  003142  6E05               	movwf	dameDato@variable^0,c
  1666  003144  0E01               	movlw	high main@latitud
  1667  003146  6E06               	movwf	(dameDato@variable+1)^0,c
  1668  003148  EC2B  F02A         	call	_dameDato	;wreg free
  1669  00314C                     
  1670                           ;main.c: 252:         dameDato(cadenaFragmentada, 4, longitud);
  1671  00314C  0E32               	movlw	low main@cadenaFragmentada
  1672  00314E  6E01               	movwf	dameDato@cadenaFragmentada^0,c
  1673  003150  0E01               	movlw	high main@cadenaFragmentada
  1674  003152  6E02               	movwf	(dameDato@cadenaFragmentada+1)^0,c
  1675  003154  0E00               	movlw	0
  1676  003156  6E04               	movwf	(dameDato@numComas+1)^0,c
  1677  003158  0E04               	movlw	4
  1678  00315A  6E03               	movwf	dameDato@numComas^0,c
  1679  00315C  0EA4               	movlw	low main@longitud
  1680  00315E  6E05               	movwf	dameDato@variable^0,c
  1681  003160  0E01               	movlw	high main@longitud
  1682  003162  6E06               	movwf	(dameDato@variable+1)^0,c
  1683  003164  EC2B  F02A         	call	_dameDato	;wreg free
  1684  003168                     
  1685                           ;main.c: 253:         dameDato(cadenaFragmentada, 8, fecha);
  1686  003168  0E32               	movlw	low main@cadenaFragmentada
  1687  00316A  6E01               	movwf	dameDato@cadenaFragmentada^0,c
  1688  00316C  0E01               	movlw	high main@cadenaFragmentada
  1689  00316E  6E02               	movwf	(dameDato@cadenaFragmentada+1)^0,c
  1690  003170  0E00               	movlw	0
  1691  003172  6E04               	movwf	(dameDato@numComas+1)^0,c
  1692  003174  0E08               	movlw	8
  1693  003176  6E03               	movwf	dameDato@numComas^0,c
  1694  003178  0EBE               	movlw	low main@fecha
  1695  00317A  6E05               	movwf	dameDato@variable^0,c
  1696  00317C  0E01               	movlw	high main@fecha
  1697  00317E  6E06               	movwf	(dameDato@variable+1)^0,c
  1698  003180  EC2B  F02A         	call	_dameDato	;wreg free
  1699  003184                     
  1700                           ;main.c: 255:         if (diaSiguiente) {
  1701  003184  0101               	movlb	1	; () banked
  1702  003186  51F7               	movf	_diaSiguiente& (0+255),w,b
  1703  003188  B4D8               	btfsc	status,2,c
  1704  00318A  EFC9  F018         	goto	u8691
  1705  00318E  EFCB  F018         	goto	u8690
  1706  003192                     u8691:
  1707  003192  EFFC  F018         	goto	l6425
  1708  003196                     u8690:
  1709  003196                     
  1710                           ; BSR set to: 1
  1711                           ;main.c: 256:             fechaReal = (fecha[0] - 48) * 10;
  1712  003196  0ED0               	movlw	208
  1713  003198  25BE               	addwf	main@fecha& (0+255),w,b
  1714  00319A  6E01               	movwf	___wmul@multiplier^0,c
  1715  00319C  6A02               	clrf	(___wmul@multiplier+1)^0,c
  1716  00319E  0EFF               	movlw	255
  1717  0031A0  2202               	addwfc	(___wmul@multiplier+1)^0,f,c
  1718  0031A2  0E00               	movlw	0
  1719  0031A4  6E04               	movwf	(___wmul@multiplicand+1)^0,c
  1720  0031A6  0E0A               	movlw	10
  1721  0031A8  6E03               	movwf	___wmul@multiplicand^0,c
  1722  0031AA  EC1A  F031         	call	___wmul	;wreg free
  1723  0031AE  C001  F1D4         	movff	?___wmul,main@fechaReal
  1724  0031B2  C002  F1D5         	movff	?___wmul+1,main@fechaReal+1
  1725  0031B6                     
  1726                           ;main.c: 257:             fechaReal += (fecha[1] - 48);
  1727  0031B6  0ED0               	movlw	208
  1728  0031B8  0100               	movlb	0	; () banked
  1729  0031BA  6FEE               	movwf	??_main& (0+255),b
  1730  0031BC  0EFF               	movlw	255
  1731  0031BE  6FEF               	movwf	(??_main+1)& (0+255),b
  1732  0031C0  0101               	movlb	1	; () banked
  1733  0031C2  51BF               	movf	(main@fecha+1)& (0+255),w,b
  1734  0031C4  0100               	movlb	0	; () banked
  1735  0031C6  6FF0               	movwf	(??_main+2)& (0+255),b
  1736  0031C8  6BF1               	clrf	(??_main+3)& (0+255),b
  1737  0031CA  51EE               	movf	??_main& (0+255),w,b
  1738  0031CC  27F0               	addwf	(??_main+2)& (0+255),f,b
  1739  0031CE  51EF               	movf	(??_main+1)& (0+255),w,b
  1740  0031D0  23F1               	addwfc	(??_main+3)& (0+255),f,b
  1741  0031D2  51F0               	movf	(??_main+2)& (0+255),w,b
  1742  0031D4  0101               	movlb	1	; () banked
  1743  0031D6  27D4               	addwf	main@fechaReal& (0+255),f,b
  1744  0031D8  0100               	movlb	0	; () banked
  1745  0031DA  51F1               	movf	(??_main+3)& (0+255),w,b
  1746  0031DC  0101               	movlb	1	; () banked
  1747  0031DE  23D5               	addwfc	(main@fechaReal+1)& (0+255),f,b
  1748  0031E0                     
  1749                           ; BSR set to: 1
  1750                           ;main.c: 259:             if (fechaReal != 1) {
  1751  0031E0  05D4               	decf	main@fechaReal& (0+255),w,b
  1752  0031E2  11D5               	iorwf	(main@fechaReal+1)& (0+255),w,b
  1753  0031E4  B4D8               	btfsc	status,2,c
  1754  0031E6  EFF7  F018         	goto	u8701
  1755  0031EA  EFF9  F018         	goto	u8700
  1756  0031EE                     u8701:
  1757  0031EE  EFFC  F018         	goto	l6425
  1758  0031F2                     u8700:
  1759  0031F2                     
  1760                           ; BSR set to: 1
  1761                           ;main.c: 260:                 fechaReal--;
  1762  0031F2  07D4               	decf	main@fechaReal& (0+255),f,b
  1763  0031F4  A0D8               	btfss	status,0,c
  1764  0031F6  07D5               	decf	(main@fechaReal+1)& (0+255),f,b
  1765  0031F8                     l6425:
  1766                           
  1767                           ; BSR set to: 1
  1768                           ;main.c: 264:         latitudMostrar = dameGrados(latitud);
  1769  0031F8  0EB1               	movlw	low main@latitud
  1770  0031FA  0100               	movlb	0	; () banked
  1771  0031FC  6F60               	movwf	dameGrados@cadenaFragmentada& (0+255),b
  1772  0031FE  0E01               	movlw	high main@latitud
  1773  003200  6F61               	movwf	(dameGrados@cadenaFragmentada+1)& (0+255),b
  1774  003202  EC07  F027         	call	_dameGrados	;wreg free
  1775  003206  C060  F1C7         	movff	?_dameGrados,main@latitudMostrar
  1776  00320A  C061  F1C8         	movff	?_dameGrados+1,main@latitudMostrar+1
  1777  00320E  C062  F1C9         	movff	?_dameGrados+2,main@latitudMostrar+2
  1778  003212  C063  F1CA         	movff	?_dameGrados+3,main@latitudMostrar+3
  1779  003216                     
  1780                           ;main.c: 265:         longitudMostrar = dameGrados(longitud);
  1781  003216  0EA4               	movlw	low main@longitud
  1782  003218  0100               	movlb	0	; () banked
  1783  00321A  6F60               	movwf	dameGrados@cadenaFragmentada& (0+255),b
  1784  00321C  0E01               	movlw	high main@longitud
  1785  00321E  6F61               	movwf	(dameGrados@cadenaFragmentada+1)& (0+255),b
  1786  003220  EC07  F027         	call	_dameGrados	;wreg free
  1787  003224  C060  F1CF         	movff	?_dameGrados,main@longitudMostrar
  1788  003228  C061  F1D0         	movff	?_dameGrados+1,main@longitudMostrar+1
  1789  00322C  C062  F1D1         	movff	?_dameGrados+2,main@longitudMostrar+2
  1790  003230  C063  F1D2         	movff	?_dameGrados+3,main@longitudMostrar+3
  1791  003234                     
  1792                           ;main.c: 269:         if (PORTBbits.RB2) {
  1793  003234  A481               	btfss	129,2,c	;volatile
  1794  003236  EF1F  F019         	goto	u8711
  1795  00323A  EF21  F019         	goto	u8710
  1796  00323E                     u8711:
  1797  00323E  EF2A  F019         	goto	l6435
  1798  003242                     u8710:
  1799  003242                     l187:
  1800  003242  B481               	btfsc	129,2,c	;volatile
  1801  003244  EF26  F019         	goto	u8721
  1802  003248  EF28  F019         	goto	u8720
  1803  00324C                     u8721:
  1804  00324C  EF21  F019         	goto	l187
  1805  003250                     u8720:
  1806  003250                     
  1807                           ;main.c: 271:             variableMostrar = ~variableMostrar;
  1808  003250  0101               	movlb	1	; () banked
  1809  003252  1FD3               	comf	main@variableMostrar& (0+255),f,b
  1810  003254                     l6435:
  1811                           
  1812                           ;main.c: 275:         if (variableMostrar) {
  1813  003254  0101               	movlb	1	; () banked
  1814  003256  51D3               	movf	main@variableMostrar& (0+255),w,b
  1815  003258  B4D8               	btfsc	status,2,c
  1816  00325A  EF31  F019         	goto	u8731
  1817  00325E  EF33  F019         	goto	u8730
  1818  003262                     u8731:
  1819  003262  EF8D  F019         	goto	l6453
  1820  003266                     u8730:
  1821  003266                     
  1822                           ; BSR set to: 1
  1823                           ;main.c: 276:             Lcd_Clear();
  1824  003266  EC78  F031         	call	_Lcd_Clear	;wreg free
  1825  00326A                     
  1826                           ;main.c: 277:             Lcd_Set_Cursor(1, 1);
  1827  00326A  0E01               	movlw	1
  1828  00326C  6E04               	movwf	Lcd_Set_Cursor@b^0,c
  1829  00326E  0E01               	movlw	1
  1830  003270  EC1D  F02E         	call	_Lcd_Set_Cursor
  1831  003274                     
  1832                           ;main.c: 278:             sprintf(buffer, "LATI= %.4f", latitudMostrar);
  1833  003274  0E87               	movlw	low main@buffer
  1834  003276  0100               	movlb	0	; () banked
  1835  003278  6FB8               	movwf	sprintf@s& (0+255),b
  1836  00327A  0E01               	movlw	high main@buffer
  1837  00327C  6FB9               	movwf	(sprintf@s+1)& (0+255),b
  1838  00327E  0E6A               	movlw	low STR_5
  1839  003280  6FBA               	movwf	sprintf@fmt& (0+255),b
  1840  003282  0E08               	movlw	high STR_5
  1841  003284  6FBB               	movwf	(sprintf@fmt+1)& (0+255),b
  1842  003286  C1C7  F0BC         	movff	main@latitudMostrar,?_sprintf+4
  1843  00328A  C1C8  F0BD         	movff	main@latitudMostrar+1,?_sprintf+5
  1844  00328E  C1C9  F0BE         	movff	main@latitudMostrar+2,?_sprintf+6
  1845  003292  C1CA  F0BF         	movff	main@latitudMostrar+3,?_sprintf+7
  1846  003296  EC6A  F02F         	call	_sprintf	;wreg free
  1847  00329A                     
  1848                           ;main.c: 279:             Lcd_Write_String(buffer);
  1849  00329A  0E87               	movlw	low main@buffer
  1850  00329C  6E05               	movwf	Lcd_Write_String@a^0,c
  1851  00329E  0E01               	movlw	high main@buffer
  1852  0032A0  6E06               	movwf	(Lcd_Write_String@a+1)^0,c
  1853  0032A2  EC00  F02D         	call	_Lcd_Write_String	;wreg free
  1854  0032A6                     
  1855                           ;main.c: 280:             Lcd_Set_Cursor(2, 1);
  1856  0032A6  0E01               	movlw	1
  1857  0032A8  6E04               	movwf	Lcd_Set_Cursor@b^0,c
  1858  0032AA  0E02               	movlw	2
  1859  0032AC  EC1D  F02E         	call	_Lcd_Set_Cursor
  1860  0032B0                     
  1861                           ;main.c: 281:             sprintf(buffer, "LONG= %.4f", (longitudMostrar*-1));
  1862  0032B0  C1CF  F001         	movff	main@longitudMostrar,___flmul@b
  1863  0032B4  C1D0  F002         	movff	main@longitudMostrar+1,___flmul@b+1
  1864  0032B8  C1D1  F003         	movff	main@longitudMostrar+2,___flmul@b+2
  1865  0032BC  C1D2  F004         	movff	main@longitudMostrar+3,___flmul@b+3
  1866  0032C0  0E00               	movlw	0
  1867  0032C2  6E05               	movwf	___flmul@a^0,c
  1868  0032C4  0E00               	movlw	0
  1869  0032C6  6E06               	movwf	(___flmul@a+1)^0,c
  1870  0032C8  0E80               	movlw	128
  1871  0032CA  6E07               	movwf	(___flmul@a+2)^0,c
  1872  0032CC  0EBF               	movlw	191
  1873  0032CE  6E08               	movwf	(___flmul@a+3)^0,c
  1874  0032D0  EC98  F01A         	call	___flmul	;wreg free
  1875  0032D4  C001  F1CB         	movff	?___flmul,_main$1622
  1876  0032D8  C002  F1CC         	movff	?___flmul+1,_main$1622+1
  1877  0032DC  C003  F1CD         	movff	?___flmul+2,_main$1622+2
  1878  0032E0  C004  F1CE         	movff	?___flmul+3,_main$1622+3
  1879  0032E4                     
  1880                           ;main.c: 281:             sprintf(buffer, "LONG= %.4f", (longitudMostrar*-1));
  1881  0032E4  0E87               	movlw	low main@buffer
  1882  0032E6  0100               	movlb	0	; () banked
  1883  0032E8  6FB8               	movwf	sprintf@s& (0+255),b
  1884  0032EA  0E01               	movlw	high main@buffer
  1885  0032EC  6FB9               	movwf	(sprintf@s+1)& (0+255),b
  1886  0032EE  0E5F               	movlw	low STR_6
  1887  0032F0  6FBA               	movwf	sprintf@fmt& (0+255),b
  1888  0032F2  0E08               	movlw	high STR_6
  1889  0032F4  6FBB               	movwf	(sprintf@fmt+1)& (0+255),b
  1890  0032F6  C1CB  F0BC         	movff	_main$1622,?_sprintf+4
  1891  0032FA  C1CC  F0BD         	movff	_main$1622+1,?_sprintf+5
  1892  0032FE  C1CD  F0BE         	movff	_main$1622+2,?_sprintf+6
  1893  003302  C1CE  F0BF         	movff	_main$1622+3,?_sprintf+7
  1894  003306  EC6A  F02F         	call	_sprintf	;wreg free
  1895  00330A                     l6451:
  1896                           
  1897                           ;main.c: 282:             Lcd_Write_String(buffer);
  1898  00330A  0E87               	movlw	low main@buffer
  1899  00330C  6E05               	movwf	Lcd_Write_String@a^0,c
  1900  00330E  0E01               	movlw	high main@buffer
  1901  003310  6E06               	movwf	(Lcd_Write_String@a+1)^0,c
  1902  003312  EC00  F02D         	call	_Lcd_Write_String	;wreg free
  1903                           
  1904                           ;main.c: 285:         } else {
  1905  003316  EF49  F01A         	goto	l6489
  1906  00331A                     l6453:
  1907                           
  1908                           ; BSR set to: 1
  1909                           ;main.c: 286:             Lcd_Clear();
  1910  00331A  EC78  F031         	call	_Lcd_Clear	;wreg free
  1911  00331E                     
  1912                           ;main.c: 287:             Lcd_Set_Cursor(1, 1);
  1913  00331E  0E01               	movlw	1
  1914  003320  6E04               	movwf	Lcd_Set_Cursor@b^0,c
  1915  003322  0E01               	movlw	1
  1916  003324  EC1D  F02E         	call	_Lcd_Set_Cursor
  1917  003328                     
  1918                           ;main.c: 288:             sprintf(buffer, "HORA= %s", horaCompleta);
  1919  003328  0E87               	movlw	low main@buffer
  1920  00332A  0100               	movlb	0	; () banked
  1921  00332C  6FB8               	movwf	sprintf@s& (0+255),b
  1922  00332E  0E01               	movlw	high main@buffer
  1923  003330  6FB9               	movwf	(sprintf@s+1)& (0+255),b
  1924  003332  0E87               	movlw	low STR_7
  1925  003334  6FBA               	movwf	sprintf@fmt& (0+255),b
  1926  003336  0E08               	movlw	high STR_7
  1927  003338  6FBB               	movwf	(sprintf@fmt+1)& (0+255),b
  1928  00333A  0E9B               	movlw	low main@horaCompleta
  1929  00333C  6FBC               	movwf	(?_sprintf+4)& (0+255),b
  1930  00333E  0E01               	movlw	high main@horaCompleta
  1931  003340  6FBD               	movwf	(?_sprintf+5)& (0+255),b
  1932  003342  EC6A  F02F         	call	_sprintf	;wreg free
  1933  003346                     
  1934                           ;main.c: 289:             Lcd_Write_String(buffer);
  1935  003346  0E87               	movlw	low main@buffer
  1936  003348  6E05               	movwf	Lcd_Write_String@a^0,c
  1937  00334A  0E01               	movlw	high main@buffer
  1938  00334C  6E06               	movwf	(Lcd_Write_String@a+1)^0,c
  1939  00334E  EC00  F02D         	call	_Lcd_Write_String	;wreg free
  1940  003352                     
  1941                           ;main.c: 290:             Lcd_Set_Cursor(2, 1);
  1942  003352  0E01               	movlw	1
  1943  003354  6E04               	movwf	Lcd_Set_Cursor@b^0,c
  1944  003356  0E02               	movlw	2
  1945  003358  EC1D  F02E         	call	_Lcd_Set_Cursor
  1946  00335C                     
  1947                           ;main.c: 291:             sprintf(buffer, "TEMP= %.2f", temperatura);
  1948  00335C  0E87               	movlw	low main@buffer
  1949  00335E  0100               	movlb	0	; () banked
  1950  003360  6FB8               	movwf	sprintf@s& (0+255),b
  1951  003362  0E01               	movlw	high main@buffer
  1952  003364  6FB9               	movwf	(sprintf@s+1)& (0+255),b
  1953  003366  0E54               	movlw	low STR_8
  1954  003368  6FBA               	movwf	sprintf@fmt& (0+255),b
  1955  00336A  0E08               	movlw	high STR_8
  1956  00336C  6FBB               	movwf	(sprintf@fmt+1)& (0+255),b
  1957  00336E  C1D6  F0BC         	movff	main@temperatura,?_sprintf+4
  1958  003372  C1D7  F0BD         	movff	main@temperatura+1,?_sprintf+5
  1959  003376  C1D8  F0BE         	movff	main@temperatura+2,?_sprintf+6
  1960  00337A  C1D9  F0BF         	movff	main@temperatura+3,?_sprintf+7
  1961  00337E  EC6A  F02F         	call	_sprintf	;wreg free
  1962  003382                     
  1963                           ;main.c: 292:             Lcd_Write_String(buffer);
  1964  003382  0E87               	movlw	low main@buffer
  1965  003384  6E05               	movwf	Lcd_Write_String@a^0,c
  1966  003386  0E01               	movlw	high main@buffer
  1967  003388  6E06               	movwf	(Lcd_Write_String@a+1)^0,c
  1968  00338A  EC00  F02D         	call	_Lcd_Write_String	;wreg free
  1969  00338E                     
  1970                           ;main.c: 294:             _delay((unsigned long)((500)*(4000000/4000.0)));
  1971  00338E  0E03               	movlw	3
  1972  003390  0100               	movlb	0	; () banked
  1973  003392  6FEF               	movwf	(??_main+1)& (0+255),b
  1974  003394  0E8A               	movlw	138
  1975  003396  6FEE               	movwf	??_main& (0+255),b
  1976  003398  0E55               	movlw	85
  1977  00339A                     u8757:
  1978  00339A  2EE8               	decfsz	wreg,f,c
  1979  00339C  D7FE               	bra	u8757
  1980  00339E  2FEE               	decfsz	??_main& (0+255),f,b
  1981  0033A0  D7FC               	bra	u8757
  1982  0033A2  2FEF               	decfsz	(??_main+1)& (0+255),f,b
  1983  0033A4  D7FA               	bra	u8757
  1984  0033A6  D000               	nop2	
  1985  0033A8                     
  1986                           ;main.c: 295:             Lcd_Clear();
  1987  0033A8  EC78  F031         	call	_Lcd_Clear	;wreg free
  1988  0033AC                     
  1989                           ;main.c: 296:             Lcd_Set_Cursor(1, 1);
  1990  0033AC  0E01               	movlw	1
  1991  0033AE  6E04               	movwf	Lcd_Set_Cursor@b^0,c
  1992  0033B0  0E01               	movlw	1
  1993  0033B2  EC1D  F02E         	call	_Lcd_Set_Cursor
  1994  0033B6                     
  1995                           ;main.c: 297:             if (diaSiguiente)
  1996  0033B6  0101               	movlb	1	; () banked
  1997  0033B8  51F7               	movf	_diaSiguiente& (0+255),w,b
  1998  0033BA  B4D8               	btfsc	status,2,c
  1999  0033BC  EFE2  F019         	goto	u8741
  2000  0033C0  EFE4  F019         	goto	u8740
  2001  0033C4                     u8741:
  2002  0033C4  EF01  F01A         	goto	l6477
  2003  0033C8                     u8740:
  2004  0033C8                     
  2005                           ; BSR set to: 1
  2006                           ;main.c: 298:                 sprintf(bufferFecha, "%d/%c%c/%c%c", fechaReal, fecha[2],
  2007  0033C8  0E73               	movlw	low main@bufferFecha
  2008  0033CA  0100               	movlb	0	; () banked
  2009  0033CC  6FB8               	movwf	sprintf@s& (0+255),b
  2010  0033CE  0E01               	movlw	high main@bufferFecha
  2011  0033D0  6FB9               	movwf	(sprintf@s+1)& (0+255),b
  2012  0033D2  0E47               	movlw	low STR_9
  2013  0033D4  6FBA               	movwf	sprintf@fmt& (0+255),b
  2014  0033D6  0E08               	movlw	high STR_9
  2015  0033D8  6FBB               	movwf	(sprintf@fmt+1)& (0+255),b
  2016  0033DA  C1D4  F0BC         	movff	main@fechaReal,?_sprintf+4
  2017  0033DE  C1D5  F0BD         	movff	main@fechaReal+1,?_sprintf+5
  2018  0033E2  C1C0  F0BE         	movff	main@fecha+2,?_sprintf+6
  2019  0033E6  6BBF               	clrf	(?_sprintf+7)& (0+255),b
  2020  0033E8  C1C1  F0C0         	movff	main@fecha+3,?_sprintf+8
  2021  0033EC  6BC1               	clrf	(?_sprintf+9)& (0+255),b
  2022  0033EE  C1C2  F0C2         	movff	main@fecha+4,?_sprintf+10
  2023  0033F2  6BC3               	clrf	(?_sprintf+11)& (0+255),b
  2024  0033F4  C1C3  F0C4         	movff	main@fecha+5,?_sprintf+12
  2025  0033F8  6BC5               	clrf	(?_sprintf+13)& (0+255),b
  2026  0033FA  EC6A  F02F         	call	_sprintf	;wreg free
  2027  0033FE  EF1E  F01A         	goto	l6479
  2028  003402                     l6477:
  2029                           
  2030                           ; BSR set to: 1
  2031                           ;main.c: 301:                 sprintf(bufferFecha, "%c%c/%c%c/%c%c", fecha[0], fecha[1],
      +                           fecha[2],
  2032  003402  0E73               	movlw	low main@bufferFecha
  2033  003404  0100               	movlb	0	; () banked
  2034  003406  6FB8               	movwf	sprintf@s& (0+255),b
  2035  003408  0E01               	movlw	high main@bufferFecha
  2036  00340A  6FB9               	movwf	(sprintf@s+1)& (0+255),b
  2037  00340C  0E29               	movlw	low STR_10
  2038  00340E  6FBA               	movwf	sprintf@fmt& (0+255),b
  2039  003410  0E08               	movlw	high STR_10
  2040  003412  6FBB               	movwf	(sprintf@fmt+1)& (0+255),b
  2041  003414  C1BE  F0BC         	movff	main@fecha,?_sprintf+4
  2042  003418  6BBD               	clrf	(?_sprintf+5)& (0+255),b
  2043  00341A  C1BF  F0BE         	movff	main@fecha+1,?_sprintf+6
  2044  00341E  6BBF               	clrf	(?_sprintf+7)& (0+255),b
  2045  003420  C1C0  F0C0         	movff	main@fecha+2,?_sprintf+8
  2046  003424  6BC1               	clrf	(?_sprintf+9)& (0+255),b
  2047  003426  C1C1  F0C2         	movff	main@fecha+3,?_sprintf+10
  2048  00342A  6BC3               	clrf	(?_sprintf+11)& (0+255),b
  2049  00342C  C1C2  F0C4         	movff	main@fecha+4,?_sprintf+12
  2050  003430  6BC5               	clrf	(?_sprintf+13)& (0+255),b
  2051  003432  C1C3  F0C6         	movff	main@fecha+5,?_sprintf+14
  2052  003436  6BC7               	clrf	(?_sprintf+15)& (0+255),b
  2053  003438  EC6A  F02F         	call	_sprintf	;wreg free
  2054  00343C                     l6479:
  2055                           
  2056                           ;main.c: 305:             Lcd_Write_String("FECHA= ");
  2057  00343C  0E90               	movlw	low STR_11
  2058  00343E  6E05               	movwf	Lcd_Write_String@a^0,c
  2059  003440  0E08               	movlw	high STR_11
  2060  003442  6E06               	movwf	(Lcd_Write_String@a+1)^0,c
  2061  003444  EC00  F02D         	call	_Lcd_Write_String	;wreg free
  2062  003448                     
  2063                           ;main.c: 306:             Lcd_Set_Cursor(1, 8);
  2064  003448  0E08               	movlw	8
  2065  00344A  6E04               	movwf	Lcd_Set_Cursor@b^0,c
  2066  00344C  0E01               	movlw	1
  2067  00344E  EC1D  F02E         	call	_Lcd_Set_Cursor
  2068  003452                     
  2069                           ;main.c: 307:             Lcd_Write_String(bufferFecha);
  2070  003452  0E73               	movlw	low main@bufferFecha
  2071  003454  6E05               	movwf	Lcd_Write_String@a^0,c
  2072  003456  0E01               	movlw	high main@bufferFecha
  2073  003458  6E06               	movwf	(Lcd_Write_String@a+1)^0,c
  2074  00345A  EC00  F02D         	call	_Lcd_Write_String	;wreg free
  2075  00345E                     
  2076                           ;main.c: 308:             Lcd_Set_Cursor(2, 1);
  2077  00345E  0E01               	movlw	1
  2078  003460  6E04               	movwf	Lcd_Set_Cursor@b^0,c
  2079  003462  0E02               	movlw	2
  2080  003464  EC1D  F02E         	call	_Lcd_Set_Cursor
  2081                           
  2082                           ;main.c: 309:             sprintf(buffer, "TEMP= %.2f", temperatura);
  2083  003468  0E87               	movlw	low main@buffer
  2084  00346A  0100               	movlb	0	; () banked
  2085  00346C  6FB8               	movwf	sprintf@s& (0+255),b
  2086  00346E  0E01               	movlw	high main@buffer
  2087  003470  6FB9               	movwf	(sprintf@s+1)& (0+255),b
  2088  003472  0E54               	movlw	low STR_8
  2089  003474  6FBA               	movwf	sprintf@fmt& (0+255),b
  2090  003476  0E08               	movlw	high STR_8
  2091  003478  6FBB               	movwf	(sprintf@fmt+1)& (0+255),b
  2092  00347A  C1D6  F0BC         	movff	main@temperatura,?_sprintf+4
  2093  00347E  C1D7  F0BD         	movff	main@temperatura+1,?_sprintf+5
  2094  003482  C1D8  F0BE         	movff	main@temperatura+2,?_sprintf+6
  2095  003486  C1D9  F0BF         	movff	main@temperatura+3,?_sprintf+7
  2096  00348A  EC6A  F02F         	call	_sprintf	;wreg free
  2097  00348E  EF85  F019         	goto	l6451
  2098  003492                     l6489:
  2099                           
  2100                           ;main.c: 313:         sprintf(datoSalida, "%s,%s,%.4f,%.4f,%.2f\r", bufferFecha, horaCom
      +                          pleta,
  2101  003492  C1CF  F001         	movff	main@longitudMostrar,___flmul@b
  2102  003496  C1D0  F002         	movff	main@longitudMostrar+1,___flmul@b+1
  2103  00349A  C1D1  F003         	movff	main@longitudMostrar+2,___flmul@b+2
  2104  00349E  C1D2  F004         	movff	main@longitudMostrar+3,___flmul@b+3
  2105  0034A2  0E00               	movlw	0
  2106  0034A4  6E05               	movwf	___flmul@a^0,c
  2107  0034A6  0E00               	movlw	0
  2108  0034A8  6E06               	movwf	(___flmul@a+1)^0,c
  2109  0034AA  0E80               	movlw	128
  2110  0034AC  6E07               	movwf	(___flmul@a+2)^0,c
  2111  0034AE  0EBF               	movlw	191
  2112  0034B0  6E08               	movwf	(___flmul@a+3)^0,c
  2113  0034B2  EC98  F01A         	call	___flmul	;wreg free
  2114  0034B6  C001  F1CB         	movff	?___flmul,_main$1622
  2115  0034BA  C002  F1CC         	movff	?___flmul+1,_main$1622+1
  2116  0034BE  C003  F1CD         	movff	?___flmul+2,_main$1622+2
  2117  0034C2  C004  F1CE         	movff	?___flmul+3,_main$1622+3
  2118  0034C6                     
  2119                           ;main.c: 313:         sprintf(datoSalida, "%s,%s,%.4f,%.4f,%.2f\r", bufferFecha, horaCom
      +                          pleta,
  2120  0034C6  0E00               	movlw	low main@datoSalida
  2121  0034C8  0100               	movlb	0	; () banked
  2122  0034CA  6FB8               	movwf	sprintf@s& (0+255),b
  2123  0034CC  0E01               	movlw	high main@datoSalida
  2124  0034CE  6FB9               	movwf	(sprintf@s+1)& (0+255),b
  2125  0034D0  0E01               	movlw	low STR_13
  2126  0034D2  6FBA               	movwf	sprintf@fmt& (0+255),b
  2127  0034D4  0E08               	movlw	high STR_13
  2128  0034D6  6FBB               	movwf	(sprintf@fmt+1)& (0+255),b
  2129  0034D8  0E73               	movlw	low main@bufferFecha
  2130  0034DA  6FBC               	movwf	(?_sprintf+4)& (0+255),b
  2131  0034DC  0E01               	movlw	high main@bufferFecha
  2132  0034DE  6FBD               	movwf	(?_sprintf+5)& (0+255),b
  2133  0034E0  0E9B               	movlw	low main@horaCompleta
  2134  0034E2  6FBE               	movwf	(?_sprintf+6)& (0+255),b
  2135  0034E4  0E01               	movlw	high main@horaCompleta
  2136  0034E6  6FBF               	movwf	(?_sprintf+7)& (0+255),b
  2137  0034E8  C1C7  F0C0         	movff	main@latitudMostrar,?_sprintf+8
  2138  0034EC  C1C8  F0C1         	movff	main@latitudMostrar+1,?_sprintf+9
  2139  0034F0  C1C9  F0C2         	movff	main@latitudMostrar+2,?_sprintf+10
  2140  0034F4  C1CA  F0C3         	movff	main@latitudMostrar+3,?_sprintf+11
  2141  0034F8  C1CB  F0C4         	movff	_main$1622,?_sprintf+12
  2142  0034FC  C1CC  F0C5         	movff	_main$1622+1,?_sprintf+13
  2143  003500  C1CD  F0C6         	movff	_main$1622+2,?_sprintf+14
  2144  003504  C1CE  F0C7         	movff	_main$1622+3,?_sprintf+15
  2145  003508  C1D6  F0C8         	movff	main@temperatura,?_sprintf+16
  2146  00350C  C1D7  F0C9         	movff	main@temperatura+1,?_sprintf+17
  2147  003510  C1D8  F0CA         	movff	main@temperatura+2,?_sprintf+18
  2148  003514  C1D9  F0CB         	movff	main@temperatura+3,?_sprintf+19
  2149  003518  EC6A  F02F         	call	_sprintf	;wreg free
  2150  00351C                     
  2151                           ;main.c: 316:         UART_printf(datoSalida);
  2152  00351C  0E00               	movlw	low main@datoSalida
  2153  00351E  6E02               	movwf	UART_printf@cadena^0,c
  2154  003520  0E01               	movlw	high main@datoSalida
  2155  003522  6E03               	movwf	(UART_printf@cadena+1)^0,c
  2156  003524  ECEF  F030         	call	_UART_printf	;wreg free
  2157  003528  EF81  F018         	goto	l6403
  2158  00352C  EF00  F000         	goto	start
  2159  003530                     __end_of_main:
  2160                           	opt callstack 0
  2161                           
  2162 ;; *************** function _mensajeEspera *****************
  2163 ;; Defined at:
  2164 ;;		line 52 in file "main.c"
  2165 ;; Parameters:    Size  Location     Type
  2166 ;;  segundos        2  118[BANK0 ] short 
  2167 ;; Auto vars:     Size  Location     Type
  2168 ;;  buffer         20  122[BANK0 ] unsigned char [20]
  2169 ;; Return value:  Size  Location     Type
  2170 ;;                  1    wreg      void 
  2171 ;; Registers used:
  2172 ;;		wreg, fsr1l, fsr1h, fsr2l, fsr2h, status,2, status,0, tblptrl, tblptrh, tblptru, prodl, prodh, cstack
  2173 ;; Tracked objects:
  2174 ;;		On entry : 0/0
  2175 ;;		On exit  : 0/0
  2176 ;;		Unchanged: 0/0
  2177 ;; Data sizes:     COMRAM   BANK0   BANK1   BANK2   BANK3   BANK4   BANK5   BANK6   BANK7
  2178 ;;      Params:         0       2       0       0       0       0       0       0       0
  2179 ;;      Locals:         0      20       0       0       0       0       0       0       0
  2180 ;;      Temps:          0       2       0       0       0       0       0       0       0
  2181 ;;      Totals:         0      24       0       0       0       0       0       0       0
  2182 ;;Total ram usage:       24 bytes
  2183 ;; Hardware stack levels used:    1
  2184 ;; Hardware stack levels required when called:    8
  2185 ;; This function calls:
  2186 ;;		_Lcd_Clear
  2187 ;;		_Lcd_Set_Cursor
  2188 ;;		_Lcd_Write_String
  2189 ;;		_sprintf
  2190 ;; This function is called by:
  2191 ;;		_main
  2192 ;; This function uses a non-reentrant model
  2193 ;;
  2194                           
  2195                           	psect	text1
  2196  005978                     __ptext1:
  2197                           	opt callstack 0
  2198  005978                     _mensajeEspera:
  2199                           	opt callstack 22
  2200  005978                     
  2201                           ;main.c: 53:     char buffer[20];;main.c: 55:     while (segundos) {
  2202  005978  EFF5  F02C         	goto	l6235
  2203  00597C                     l6219:
  2204                           
  2205                           ; BSR set to: 0
  2206                           ;main.c: 56:         sprintf(buffer, "Espere: %d seg", segundos);
  2207  00597C  0EDA               	movlw	low mensajeEspera@buffer
  2208  00597E  6FB8               	movwf	sprintf@s& (0+255),b
  2209  005980  0E00               	movlw	high mensajeEspera@buffer
  2210  005982  6FB9               	movwf	(sprintf@s+1)& (0+255),b
  2211  005984  0E38               	movlw	low STR_1
  2212  005986  6FBA               	movwf	sprintf@fmt& (0+255),b
  2213  005988  0E08               	movlw	high STR_1
  2214  00598A  6FBB               	movwf	(sprintf@fmt+1)& (0+255),b
  2215  00598C  C0D6  F0BC         	movff	mensajeEspera@segundos,?_sprintf+4
  2216  005990  C0D7  F0BD         	movff	mensajeEspera@segundos+1,?_sprintf+5
  2217  005994  EC6A  F02F         	call	_sprintf	;wreg free
  2218  005998                     
  2219                           ;main.c: 57:         Lcd_Clear();
  2220  005998  EC78  F031         	call	_Lcd_Clear	;wreg free
  2221  00599C                     
  2222                           ;main.c: 58:         Lcd_Set_Cursor(1, 1);
  2223  00599C  0E01               	movlw	1
  2224  00599E  6E04               	movwf	Lcd_Set_Cursor@b^0,c
  2225  0059A0  0E01               	movlw	1
  2226  0059A2  EC1D  F02E         	call	_Lcd_Set_Cursor
  2227  0059A6                     
  2228                           ;main.c: 59:         Lcd_Write_String("Conectando GPS...");
  2229  0059A6  0E17               	movlw	low STR_2
  2230  0059A8  6E05               	movwf	Lcd_Write_String@a^0,c
  2231  0059AA  0E08               	movlw	high STR_2
  2232  0059AC  6E06               	movwf	(Lcd_Write_String@a+1)^0,c
  2233  0059AE  EC00  F02D         	call	_Lcd_Write_String	;wreg free
  2234  0059B2                     
  2235                           ;main.c: 60:         Lcd_Set_Cursor(2, 1);
  2236  0059B2  0E01               	movlw	1
  2237  0059B4  6E04               	movwf	Lcd_Set_Cursor@b^0,c
  2238  0059B6  0E02               	movlw	2
  2239  0059B8  EC1D  F02E         	call	_Lcd_Set_Cursor
  2240  0059BC                     
  2241                           ;main.c: 61:         Lcd_Write_String(buffer);
  2242  0059BC  0EDA               	movlw	low mensajeEspera@buffer
  2243  0059BE  6E05               	movwf	Lcd_Write_String@a^0,c
  2244  0059C0  0E00               	movlw	high mensajeEspera@buffer
  2245  0059C2  6E06               	movwf	(Lcd_Write_String@a+1)^0,c
  2246  0059C4  EC00  F02D         	call	_Lcd_Write_String	;wreg free
  2247  0059C8                     
  2248                           ;main.c: 62:         _delay((unsigned long)((1000)*(4000000/4000.0)));
  2249  0059C8  0E06               	movlw	6
  2250  0059CA  0100               	movlb	0	; () banked
  2251  0059CC  6FD9               	movwf	(??_mensajeEspera+1)& (0+255),b
  2252  0059CE  0E13               	movlw	19
  2253  0059D0  6FD8               	movwf	??_mensajeEspera& (0+255),b
  2254  0059D2  0EAD               	movlw	173
  2255  0059D4                     u8767:
  2256  0059D4  2EE8               	decfsz	wreg,f,c
  2257  0059D6  D7FE               	bra	u8767
  2258  0059D8  2FD8               	decfsz	??_mensajeEspera& (0+255),f,b
  2259  0059DA  D7FC               	bra	u8767
  2260  0059DC  2FD9               	decfsz	(??_mensajeEspera+1)& (0+255),f,b
  2261  0059DE  D7FA               	bra	u8767
  2262  0059E0  D000               	nop2	
  2263  0059E2                     
  2264                           ;main.c: 63:         segundos--;
  2265  0059E2  0100               	movlb	0	; () banked
  2266  0059E4  07D6               	decf	mensajeEspera@segundos& (0+255),f,b
  2267  0059E6  A0D8               	btfss	status,0,c
  2268  0059E8  07D7               	decf	(mensajeEspera@segundos+1)& (0+255),f,b
  2269  0059EA                     l6235:
  2270                           
  2271                           ;main.c: 55:     while (segundos) {
  2272  0059EA  0100               	movlb	0	; () banked
  2273  0059EC  51D6               	movf	mensajeEspera@segundos& (0+255),w,b
  2274  0059EE  11D7               	iorwf	(mensajeEspera@segundos+1)& (0+255),w,b
  2275  0059F0  A4D8               	btfss	status,2,c
  2276  0059F2  EFFD  F02C         	goto	u8501
  2277  0059F6  EFFF  F02C         	goto	u8500
  2278  0059FA                     u8501:
  2279  0059FA  EFBE  F02C         	goto	l6219
  2280  0059FE                     u8500:
  2281  0059FE                     
  2282                           ; BSR set to: 0
  2283  0059FE  0012               	return		;funcret
  2284  005A00                     __end_of_mensajeEspera:
  2285                           	opt callstack 0
  2286                           
  2287 ;; *************** function _Lcd_Write_String *****************
  2288 ;; Defined at:
  2289 ;;		line 101 in file "./lcd.h"
  2290 ;; Parameters:    Size  Location     Type
  2291 ;;  a               2    4[COMRAM] PTR unsigned char 
  2292 ;;		 -> STR_11(8), main@bufferFecha(20), main@buffer(20), STR_2(18), 
  2293 ;;		 -> mensajeEspera@buffer(20), 
  2294 ;; Auto vars:     Size  Location     Type
  2295 ;;  i               2    8[COMRAM] int 
  2296 ;; Return value:  Size  Location     Type
  2297 ;;                  1    wreg      void 
  2298 ;; Registers used:
  2299 ;;		wreg, fsr1l, fsr1h, status,2, status,0, tblptrl, tblptrh, tblptru, cstack
  2300 ;; Tracked objects:
  2301 ;;		On entry : 0/0
  2302 ;;		On exit  : 0/0
  2303 ;;		Unchanged: 0/0
  2304 ;; Data sizes:     COMRAM   BANK0   BANK1   BANK2   BANK3   BANK4   BANK5   BANK6   BANK7
  2305 ;;      Params:         2       0       0       0       0       0       0       0       0
  2306 ;;      Locals:         2       0       0       0       0       0       0       0       0
  2307 ;;      Temps:          2       0       0       0       0       0       0       0       0
  2308 ;;      Totals:         6       0       0       0       0       0       0       0       0
  2309 ;;Total ram usage:        6 bytes
  2310 ;; Hardware stack levels used:    1
  2311 ;; Hardware stack levels required when called:    2
  2312 ;; This function calls:
  2313 ;;		_Lcd_Write_Char
  2314 ;; This function is called by:
  2315 ;;		_mensajeEspera
  2316 ;;		_main
  2317 ;; This function uses a non-reentrant model
  2318 ;;
  2319                           
  2320                           	psect	text2
  2321  005A00                     __ptext2:
  2322                           	opt callstack 0
  2323  005A00                     _Lcd_Write_String:
  2324                           	opt callstack 27
  2325  005A00                     
  2326                           ;./lcd.h: 101: void Lcd_Write_String(char *a);./lcd.h: 102: {;./lcd.h: 103:  int i;;./lc
      +                          d.h: 104:  for(i=0;a[i]!='\0';i++)
  2327  005A00  0E00               	movlw	0
  2328  005A02  6E0A               	movwf	(Lcd_Write_String@i+1)^0,c
  2329  005A04  0E00               	movlw	0
  2330  005A06  6E09               	movwf	Lcd_Write_String@i^0,c
  2331  005A08  EF20  F02D         	goto	l6081
  2332  005A0C                     l6077:
  2333                           
  2334                           ;./lcd.h: 105:     Lcd_Write_Char(a[i]);
  2335  005A0C  5009               	movf	Lcd_Write_String@i^0,w,c
  2336  005A0E  2405               	addwf	Lcd_Write_String@a^0,w,c
  2337  005A10  6E07               	movwf	??_Lcd_Write_String^0,c
  2338  005A12  500A               	movf	(Lcd_Write_String@i+1)^0,w,c
  2339  005A14  2006               	addwfc	(Lcd_Write_String@a+1)^0,w,c
  2340  005A16  6E08               	movwf	(??_Lcd_Write_String+1)^0,c
  2341  005A18  C007  FFF6         	movff	??_Lcd_Write_String,tblptrl
  2342  005A1C  C008  FFF7         	movff	??_Lcd_Write_String+1,tblptrh
  2343  005A20  6AF8               	clrf	tblptru,c
  2344  005A22  0E07               	movlw	(high __ramtop+-1)
  2345  005A24  64F7               	cpfsgt	tblptrh,c
  2346  005A26  D003               	bra	u8397
  2347  005A28  0008               	tblrd		*
  2348  005A2A  50F5               	movf	tablat,w,c
  2349  005A2C  D005               	bra	u8390
  2350  005A2E                     u8397:
  2351  005A2E  CFF6 FFE1          	movff	tblptrl,fsr1l
  2352  005A32  CFF7 FFE2          	movff	tblptrh,fsr1h
  2353  005A36  50E7               	movf	indf1,w,c
  2354  005A38                     u8390:
  2355  005A38  EC48  F030         	call	_Lcd_Write_Char
  2356  005A3C  4A09               	infsnz	Lcd_Write_String@i^0,f,c
  2357  005A3E  2A0A               	incf	(Lcd_Write_String@i+1)^0,f,c
  2358  005A40                     l6081:
  2359  005A40  5009               	movf	Lcd_Write_String@i^0,w,c
  2360  005A42  2405               	addwf	Lcd_Write_String@a^0,w,c
  2361  005A44  6E07               	movwf	??_Lcd_Write_String^0,c
  2362  005A46  500A               	movf	(Lcd_Write_String@i+1)^0,w,c
  2363  005A48  2006               	addwfc	(Lcd_Write_String@a+1)^0,w,c
  2364  005A4A  6E08               	movwf	(??_Lcd_Write_String+1)^0,c
  2365  005A4C  C007  FFF6         	movff	??_Lcd_Write_String,tblptrl
  2366  005A50  C008  FFF7         	movff	??_Lcd_Write_String+1,tblptrh
  2367  005A54  6AF8               	clrf	tblptru,c
  2368  005A56  0E07               	movlw	(high __ramtop+-1)
  2369  005A58  64F7               	cpfsgt	tblptrh,c
  2370  005A5A  D003               	bra	u8407
  2371  005A5C  0008               	tblrd		*
  2372  005A5E  50F5               	movf	tablat,w,c
  2373  005A60  D005               	bra	u8400
  2374  005A62                     u8407:
  2375  005A62  CFF6 FFE1          	movff	tblptrl,fsr1l
  2376  005A66  CFF7 FFE2          	movff	tblptrh,fsr1h
  2377  005A6A  50E7               	movf	indf1,w,c
  2378  005A6C                     u8400:
  2379  005A6C  0900               	iorlw	0
  2380  005A6E  A4D8               	btfss	status,2,c
  2381  005A70  EF3C  F02D         	goto	u8411
  2382  005A74  EF3E  F02D         	goto	u8410
  2383  005A78                     u8411:
  2384  005A78  EF06  F02D         	goto	l6077
  2385  005A7C                     u8410:
  2386  005A7C  0012               	return		;funcret
  2387  005A7E                     __end_of_Lcd_Write_String:
  2388                           	opt callstack 0
  2389                           
  2390 ;; *************** function _Lcd_Write_Char *****************
  2391 ;; Defined at:
  2392 ;;		line 85 in file "./lcd.h"
  2393 ;; Parameters:    Size  Location     Type
  2394 ;;  a               1    wreg     unsigned char 
  2395 ;; Auto vars:     Size  Location     Type
  2396 ;;  a               1    3[COMRAM] unsigned char 
  2397 ;;  y               1    2[COMRAM] unsigned char 
  2398 ;;  temp            1    1[COMRAM] unsigned char 
  2399 ;; Return value:  Size  Location     Type
  2400 ;;                  1    wreg      void 
  2401 ;; Registers used:
  2402 ;;		wreg, status,2, status,0, cstack
  2403 ;; Tracked objects:
  2404 ;;		On entry : 0/0
  2405 ;;		On exit  : 0/0
  2406 ;;		Unchanged: 0/0
  2407 ;; Data sizes:     COMRAM   BANK0   BANK1   BANK2   BANK3   BANK4   BANK5   BANK6   BANK7
  2408 ;;      Params:         0       0       0       0       0       0       0       0       0
  2409 ;;      Locals:         3       0       0       0       0       0       0       0       0
  2410 ;;      Temps:          0       0       0       0       0       0       0       0       0
  2411 ;;      Totals:         3       0       0       0       0       0       0       0       0
  2412 ;;Total ram usage:        3 bytes
  2413 ;; Hardware stack levels used:    1
  2414 ;; Hardware stack levels required when called:    1
  2415 ;; This function calls:
  2416 ;;		_Lcd_Port
  2417 ;; This function is called by:
  2418 ;;		_Lcd_Write_String
  2419 ;; This function uses a non-reentrant model
  2420 ;;
  2421                           
  2422                           	psect	text3
  2423  006090                     __ptext3:
  2424                           	opt callstack 0
  2425  006090                     _Lcd_Write_Char:
  2426                           	opt callstack 27
  2427                           
  2428                           ;incstack = 0
  2429                           ;Lcd_Write_Char@a stored from wreg
  2430  006090  6E04               	movwf	Lcd_Write_Char@a^0,c
  2431  006092                     
  2432                           ;./lcd.h: 85: void Lcd_Write_Char(char a);./lcd.h: 86: {;./lcd.h: 87:    char temp,y;;./
      +                          lcd.h: 88:    temp = a&0x0F;
  2433  006092  5004               	movf	Lcd_Write_Char@a^0,w,c
  2434  006094  0B0F               	andlw	15
  2435  006096  6E02               	movwf	Lcd_Write_Char@temp^0,c
  2436                           
  2437                           ;./lcd.h: 89:    y = a&0xF0;
  2438  006098  5004               	movf	Lcd_Write_Char@a^0,w,c
  2439  00609A  0BF0               	andlw	240
  2440  00609C  6E03               	movwf	Lcd_Write_Char@y^0,c
  2441  00609E                     
  2442                           ;./lcd.h: 90:    LATD2 = 1;
  2443  00609E  848C               	bsf	3980,2,c	;volatile
  2444  0060A0                     
  2445                           ;./lcd.h: 91:    Lcd_Port(y>>4);
  2446  0060A0  3803               	swapf	Lcd_Write_Char@y^0,w,c
  2447  0060A2  0B0F               	andlw	15
  2448  0060A4  EC3C  F02F         	call	_Lcd_Port
  2449  0060A8                     
  2450                           ;./lcd.h: 92:    LATD3 = 1;
  2451  0060A8  868C               	bsf	3980,3,c	;volatile
  2452  0060AA                     
  2453                           ;./lcd.h: 93:    _delay((unsigned long)((40)*(4000000/4000000.0)));
  2454  0060AA  0E0D               	movlw	13
  2455  0060AC                     u8777:
  2456  0060AC  2EE8               	decfsz	wreg,f,c
  2457  0060AE  D7FE               	bra	u8777
  2458  0060B0  F000               	nop	
  2459  0060B2                     
  2460                           ;./lcd.h: 94:    LATD3 = 0;
  2461  0060B2  968C               	bcf	3980,3,c	;volatile
  2462  0060B4                     
  2463                           ;./lcd.h: 95:    Lcd_Port(temp);
  2464  0060B4  5002               	movf	Lcd_Write_Char@temp^0,w,c
  2465  0060B6  EC3C  F02F         	call	_Lcd_Port
  2466  0060BA                     
  2467                           ;./lcd.h: 96:    LATD3 = 1;
  2468  0060BA  868C               	bsf	3980,3,c	;volatile
  2469  0060BC                     
  2470                           ;./lcd.h: 97:    _delay((unsigned long)((40)*(4000000/4000000.0)));
  2471  0060BC  0E0D               	movlw	13
  2472  0060BE                     u8787:
  2473  0060BE  2EE8               	decfsz	wreg,f,c
  2474  0060C0  D7FE               	bra	u8787
  2475  0060C2  F000               	nop	
  2476  0060C4                     
  2477                           ;./lcd.h: 98:    LATD3 = 0;
  2478  0060C4  968C               	bcf	3980,3,c	;volatile
  2479  0060C6  0012               	return		;funcret
  2480  0060C8                     __end_of_Lcd_Write_Char:
  2481                           	opt callstack 0
  2482                           
  2483 ;; *************** function _Lcd_Set_Cursor *****************
  2484 ;; Defined at:
  2485 ;;		line 45 in file "./lcd.h"
  2486 ;; Parameters:    Size  Location     Type
  2487 ;;  a               1    wreg     unsigned char 
  2488 ;;  b               1    3[COMRAM] unsigned char 
  2489 ;; Auto vars:     Size  Location     Type
  2490 ;;  a               1    4[COMRAM] unsigned char 
  2491 ;;  temp            1    7[COMRAM] unsigned char 
  2492 ;;  y               1    6[COMRAM] unsigned char 
  2493 ;;  z               1    5[COMRAM] unsigned char 
  2494 ;; Return value:  Size  Location     Type
  2495 ;;                  1    wreg      void 
  2496 ;; Registers used:
  2497 ;;		wreg, status,2, status,0, cstack
  2498 ;; Tracked objects:
  2499 ;;		On entry : 0/0
  2500 ;;		On exit  : 0/0
  2501 ;;		Unchanged: 0/0
  2502 ;; Data sizes:     COMRAM   BANK0   BANK1   BANK2   BANK3   BANK4   BANK5   BANK6   BANK7
  2503 ;;      Params:         1       0       0       0       0       0       0       0       0
  2504 ;;      Locals:         4       0       0       0       0       0       0       0       0
  2505 ;;      Temps:          0       0       0       0       0       0       0       0       0
  2506 ;;      Totals:         5       0       0       0       0       0       0       0       0
  2507 ;;Total ram usage:        5 bytes
  2508 ;; Hardware stack levels used:    1
  2509 ;; Hardware stack levels required when called:    2
  2510 ;; This function calls:
  2511 ;;		_Lcd_Cmd
  2512 ;; This function is called by:
  2513 ;;		_mensajeEspera
  2514 ;;		_main
  2515 ;; This function uses a non-reentrant model
  2516 ;;
  2517                           
  2518                           	psect	text4
  2519  005C3A                     __ptext4:
  2520                           	opt callstack 0
  2521  005C3A                     _Lcd_Set_Cursor:
  2522                           	opt callstack 27
  2523                           
  2524                           ;incstack = 0
  2525                           ;Lcd_Set_Cursor@a stored from wreg
  2526  005C3A  6E05               	movwf	Lcd_Set_Cursor@a^0,c
  2527  005C3C                     
  2528                           ;./lcd.h: 45: void Lcd_Set_Cursor(char a, char b);./lcd.h: 46: {;./lcd.h: 47:  char temp
      +                          ,z,y;;./lcd.h: 48:  if(a == 1)
  2529  005C3C  0405               	decf	Lcd_Set_Cursor@a^0,w,c
  2530  005C3E  A4D8               	btfss	status,2,c
  2531  005C40  EF24  F02E         	goto	u8371
  2532  005C44  EF26  F02E         	goto	u8370
  2533  005C48                     u8371:
  2534  005C48  EF37  F02E         	goto	l6067
  2535  005C4C                     u8370:
  2536  005C4C                     
  2537                           ;./lcd.h: 49:  {;./lcd.h: 50:    temp = 0x80 + b - 1;
  2538  005C4C  5004               	movf	Lcd_Set_Cursor@b^0,w,c
  2539  005C4E  0F7F               	addlw	127
  2540  005C50  6E08               	movwf	Lcd_Set_Cursor@temp^0,c
  2541                           
  2542                           ;./lcd.h: 51:   z = temp>>4;
  2543  005C52  3808               	swapf	Lcd_Set_Cursor@temp^0,w,c
  2544  005C54  0B0F               	andlw	15
  2545  005C56  6E06               	movwf	Lcd_Set_Cursor@z^0,c
  2546                           
  2547                           ;./lcd.h: 52:   y = temp & 0x0F;
  2548  005C58  5008               	movf	Lcd_Set_Cursor@temp^0,w,c
  2549  005C5A  0B0F               	andlw	15
  2550  005C5C  6E07               	movwf	Lcd_Set_Cursor@y^0,c
  2551  005C5E                     
  2552                           ;./lcd.h: 53:   Lcd_Cmd(z);
  2553  005C5E  5006               	movf	Lcd_Set_Cursor@z^0,w,c
  2554  005C60  EC3E  F031         	call	_Lcd_Cmd
  2555  005C64                     
  2556                           ;./lcd.h: 54:   Lcd_Cmd(y);
  2557  005C64  5007               	movf	Lcd_Set_Cursor@y^0,w,c
  2558  005C66  EC3E  F031         	call	_Lcd_Cmd
  2559                           
  2560                           ;./lcd.h: 55:  }
  2561  005C6A  EF4F  F02E         	goto	l98
  2562  005C6E                     l6067:
  2563  005C6E  0E02               	movlw	2
  2564  005C70  1805               	xorwf	Lcd_Set_Cursor@a^0,w,c
  2565  005C72  A4D8               	btfss	status,2,c
  2566  005C74  EF3E  F02E         	goto	u8381
  2567  005C78  EF40  F02E         	goto	u8380
  2568  005C7C                     u8381:
  2569  005C7C  EF4F  F02E         	goto	l98
  2570  005C80                     u8380:
  2571  005C80                     
  2572                           ;./lcd.h: 57:  {;./lcd.h: 58:   temp = 0xC0 + b - 1;
  2573  005C80  5004               	movf	Lcd_Set_Cursor@b^0,w,c
  2574  005C82  0FBF               	addlw	191
  2575  005C84  6E08               	movwf	Lcd_Set_Cursor@temp^0,c
  2576                           
  2577                           ;./lcd.h: 59:   z = temp>>4;
  2578  005C86  3808               	swapf	Lcd_Set_Cursor@temp^0,w,c
  2579  005C88  0B0F               	andlw	15
  2580  005C8A  6E06               	movwf	Lcd_Set_Cursor@z^0,c
  2581                           
  2582                           ;./lcd.h: 60:   y = temp & 0x0F;
  2583  005C8C  5008               	movf	Lcd_Set_Cursor@temp^0,w,c
  2584  005C8E  0B0F               	andlw	15
  2585  005C90  6E07               	movwf	Lcd_Set_Cursor@y^0,c
  2586  005C92                     
  2587                           ;./lcd.h: 61:   Lcd_Cmd(z);
  2588  005C92  5006               	movf	Lcd_Set_Cursor@z^0,w,c
  2589  005C94  EC3E  F031         	call	_Lcd_Cmd
  2590  005C98                     
  2591                           ;./lcd.h: 62:   Lcd_Cmd(y);
  2592  005C98  5007               	movf	Lcd_Set_Cursor@y^0,w,c
  2593  005C9A  EC3E  F031         	call	_Lcd_Cmd
  2594  005C9E                     l98:
  2595  005C9E  0012               	return		;funcret
  2596  005CA0                     __end_of_Lcd_Set_Cursor:
  2597                           	opt callstack 0
  2598                           
  2599 ;; *************** function _Lcd_Clear *****************
  2600 ;; Defined at:
  2601 ;;		line 39 in file "./lcd.h"
  2602 ;; Parameters:    Size  Location     Type
  2603 ;;		None
  2604 ;; Auto vars:     Size  Location     Type
  2605 ;;		None
  2606 ;; Return value:  Size  Location     Type
  2607 ;;                  1    wreg      void 
  2608 ;; Registers used:
  2609 ;;		wreg, status,2, cstack
  2610 ;; Tracked objects:
  2611 ;;		On entry : 0/0
  2612 ;;		On exit  : 0/0
  2613 ;;		Unchanged: 0/0
  2614 ;; Data sizes:     COMRAM   BANK0   BANK1   BANK2   BANK3   BANK4   BANK5   BANK6   BANK7
  2615 ;;      Params:         0       0       0       0       0       0       0       0       0
  2616 ;;      Locals:         0       0       0       0       0       0       0       0       0
  2617 ;;      Temps:          0       0       0       0       0       0       0       0       0
  2618 ;;      Totals:         0       0       0       0       0       0       0       0       0
  2619 ;;Total ram usage:        0 bytes
  2620 ;; Hardware stack levels used:    1
  2621 ;; Hardware stack levels required when called:    2
  2622 ;; This function calls:
  2623 ;;		_Lcd_Cmd
  2624 ;; This function is called by:
  2625 ;;		_mensajeEspera
  2626 ;;		_main
  2627 ;; This function uses a non-reentrant model
  2628 ;;
  2629                           
  2630                           	psect	text5
  2631  0062F0                     __ptext5:
  2632                           	opt callstack 0
  2633  0062F0                     _Lcd_Clear:
  2634                           	opt callstack 27
  2635  0062F0                     
  2636                           ;./lcd.h: 41:  Lcd_Cmd(0);
  2637  0062F0  0E00               	movlw	0
  2638  0062F2  EC3E  F031         	call	_Lcd_Cmd
  2639                           
  2640                           ;./lcd.h: 42:  Lcd_Cmd(1);
  2641  0062F6  0E01               	movlw	1
  2642  0062F8  EC3E  F031         	call	_Lcd_Cmd
  2643  0062FC  0012               	return		;funcret
  2644  0062FE                     __end_of_Lcd_Clear:
  2645                           	opt callstack 0
  2646                           
  2647 ;; *************** function _leerGps *****************
  2648 ;; Defined at:
  2649 ;;		line 68 in file "main.c"
  2650 ;; Parameters:    Size  Location     Type
  2651 ;;  cadenaInicia    2    0[COMRAM] PTR unsigned char 
  2652 ;;		 -> main@cadenaFragmentada(65), 
  2653 ;; Auto vars:     Size  Location     Type
  2654 ;;  cont            2    8[COMRAM] int 
  2655 ;;  ok              2    6[COMRAM] int 
  2656 ;;  i               2    0        int 
  2657 ;;  leerByte        1   10[COMRAM] unsigned char 
  2658 ;; Return value:  Size  Location     Type
  2659 ;;                  1    wreg      void 
  2660 ;; Registers used:
  2661 ;;		wreg, fsr2l, fsr2h, status,2, status,0, cstack
  2662 ;; Tracked objects:
  2663 ;;		On entry : 0/0
  2664 ;;		On exit  : 0/0
  2665 ;;		Unchanged: 0/0
  2666 ;; Data sizes:     COMRAM   BANK0   BANK1   BANK2   BANK3   BANK4   BANK5   BANK6   BANK7
  2667 ;;      Params:         2       0       0       0       0       0       0       0       0
  2668 ;;      Locals:         7       0       0       0       0       0       0       0       0
  2669 ;;      Temps:          2       0       0       0       0       0       0       0       0
  2670 ;;      Totals:        11       0       0       0       0       0       0       0       0
  2671 ;;Total ram usage:       11 bytes
  2672 ;; Hardware stack levels used:    1
  2673 ;; Hardware stack levels required when called:    1
  2674 ;; This function calls:
  2675 ;;		_EUSART1_Read
  2676 ;; This function is called by:
  2677 ;;		_main
  2678 ;; This function uses a non-reentrant model
  2679 ;;
  2680                           
  2681                           	psect	text6
  2682  00480E                     __ptext6:
  2683                           	opt callstack 0
  2684  00480E                     _leerGps:
  2685                           	opt callstack 29
  2686  00480E                     
  2687                           ;main.c: 70:     unsigned char leerByte;;main.c: 71:     int cont;;main.c: 72:     int o
      +                          k = 0, i = 0;
  2688  00480E  0E00               	movlw	0
  2689  004810  6E08               	movwf	(leerGps@ok+1)^0,c
  2690  004812  0E00               	movlw	0
  2691  004814  6E07               	movwf	leerGps@ok^0,c
  2692  004816                     
  2693                           ;main.c: 73:     *cadenaInicial = '\0';
  2694  004816  C001  FFD9         	movff	leerGps@cadenaInicial,fsr2l
  2695  00481A  C002  FFDA         	movff	leerGps@cadenaInicial+1,fsr2h
  2696  00481E  0E00               	movlw	0
  2697  004820  6EDF               	movwf	indf2,c
  2698  004822                     
  2699                           ;main.c: 76:     CREN = 1;
  2700  004822  88AB               	bsf	4011,4,c	;volatile
  2701                           
  2702                           ;main.c: 79:     while (!ok) {
  2703  004824  EFB5  F024         	goto	l6281
  2704  004828                     l6243:
  2705                           
  2706                           ;main.c: 82:             leerByte = EUSART1_Read();
  2707  004828  EC66  F031         	call	_EUSART1_Read	;wreg free
  2708  00482C  6E0B               	movwf	leerGps@leerByte^0,c
  2709  00482E                     l6245:
  2710                           
  2711                           ;main.c: 81:         while (leerByte != '$') {
  2712  00482E  0E24               	movlw	36
  2713  004830  180B               	xorwf	leerGps@leerByte^0,w,c
  2714  004832  A4D8               	btfss	status,2,c
  2715  004834  EF1E  F024         	goto	u8511
  2716  004838  EF20  F024         	goto	u8510
  2717  00483C                     u8511:
  2718  00483C  EF14  F024         	goto	l6243
  2719  004840                     u8510:
  2720  004840                     
  2721                           ;main.c: 85:         cont = 0;
  2722  004840  0E00               	movlw	0
  2723  004842  6E0A               	movwf	(leerGps@cont+1)^0,c
  2724  004844  0E00               	movlw	0
  2725  004846  6E09               	movwf	leerGps@cont^0,c
  2726                           
  2727                           ;main.c: 87:         while (leerByte != '\r') {
  2728  004848  EFAC  F024         	goto	l6279
  2729  00484C                     l6249:
  2730                           
  2731                           ;main.c: 89:             leerByte = EUSART1_Read();
  2732  00484C  EC66  F031         	call	_EUSART1_Read	;wreg free
  2733  004850  6E0B               	movwf	leerGps@leerByte^0,c
  2734  004852                     
  2735                           ;main.c: 91:             if (leerByte != ',') {
  2736  004852  0E2C               	movlw	44
  2737  004854  180B               	xorwf	leerGps@leerByte^0,w,c
  2738  004856  B4D8               	btfsc	status,2,c
  2739  004858  EF30  F024         	goto	u8521
  2740  00485C  EF32  F024         	goto	u8520
  2741  004860                     u8521:
  2742  004860  EF3E  F024         	goto	l6257
  2743  004864                     u8520:
  2744  004864                     
  2745                           ;main.c: 92:                 cadenaInicial[cont++] = leerByte;
  2746  004864  5009               	movf	leerGps@cont^0,w,c
  2747  004866  2401               	addwf	leerGps@cadenaInicial^0,w,c
  2748  004868  6ED9               	movwf	fsr2l,c
  2749  00486A  500A               	movf	(leerGps@cont+1)^0,w,c
  2750  00486C  2002               	addwfc	(leerGps@cadenaInicial+1)^0,w,c
  2751  00486E  6EDA               	movwf	fsr2h,c
  2752  004870  C00B  FFDF         	movff	leerGps@leerByte,indf2
  2753  004874  4A09               	infsnz	leerGps@cont^0,f,c
  2754  004876  2A0A               	incf	(leerGps@cont+1)^0,f,c
  2755                           
  2756                           ;main.c: 94:             } else {
  2757  004878  EFAC  F024         	goto	l6279
  2758  00487C                     l6257:
  2759                           
  2760                           ;main.c: 95:                 if (cadenaInicial[0] == 'G' && cadenaInicial[1] == 'P' &&
  2761  00487C  C001  FFD9         	movff	leerGps@cadenaInicial,fsr2l
  2762  004880  C002  FFDA         	movff	leerGps@cadenaInicial+1,fsr2h
  2763  004884  0E47               	movlw	71
  2764  004886  18DE               	xorwf	postinc2,w,c
  2765  004888  A4D8               	btfss	status,2,c
  2766  00488A  EF49  F024         	goto	u8531
  2767  00488E  EF4B  F024         	goto	u8530
  2768  004892                     u8531:
  2769  004892  EFAC  F024         	goto	l6279
  2770  004896                     u8530:
  2771  004896  EE20 F001          	lfsr	2,1
  2772  00489A  5001               	movf	leerGps@cadenaInicial^0,w,c
  2773  00489C  26D9               	addwf	fsr2l,f,c
  2774  00489E  5002               	movf	(leerGps@cadenaInicial+1)^0,w,c
  2775  0048A0  22DA               	addwfc	fsr2h,f,c
  2776  0048A2  0E50               	movlw	80
  2777  0048A4  18DE               	xorwf	postinc2,w,c
  2778  0048A6  A4D8               	btfss	status,2,c
  2779  0048A8  EF58  F024         	goto	u8541
  2780  0048AC  EF5A  F024         	goto	u8540
  2781  0048B0                     u8541:
  2782  0048B0  EFAC  F024         	goto	l6279
  2783  0048B4                     u8540:
  2784  0048B4  EE20 F002          	lfsr	2,2
  2785  0048B8  5001               	movf	leerGps@cadenaInicial^0,w,c
  2786  0048BA  26D9               	addwf	fsr2l,f,c
  2787  0048BC  5002               	movf	(leerGps@cadenaInicial+1)^0,w,c
  2788  0048BE  22DA               	addwfc	fsr2h,f,c
  2789  0048C0  0E52               	movlw	82
  2790  0048C2  18DE               	xorwf	postinc2,w,c
  2791  0048C4  A4D8               	btfss	status,2,c
  2792  0048C6  EF67  F024         	goto	u8551
  2793  0048CA  EF69  F024         	goto	u8550
  2794  0048CE                     u8551:
  2795  0048CE  EFAC  F024         	goto	l6279
  2796  0048D2                     u8550:
  2797  0048D2  EE20 F003          	lfsr	2,3
  2798  0048D6  5001               	movf	leerGps@cadenaInicial^0,w,c
  2799  0048D8  26D9               	addwf	fsr2l,f,c
  2800  0048DA  5002               	movf	(leerGps@cadenaInicial+1)^0,w,c
  2801  0048DC  22DA               	addwfc	fsr2h,f,c
  2802  0048DE  0E4D               	movlw	77
  2803  0048E0  18DE               	xorwf	postinc2,w,c
  2804  0048E2  A4D8               	btfss	status,2,c
  2805  0048E4  EF76  F024         	goto	u8561
  2806  0048E8  EF78  F024         	goto	u8560
  2807  0048EC                     u8561:
  2808  0048EC  EFAC  F024         	goto	l6279
  2809  0048F0                     u8560:
  2810  0048F0  EE20 F004          	lfsr	2,4
  2811  0048F4  5001               	movf	leerGps@cadenaInicial^0,w,c
  2812  0048F6  26D9               	addwf	fsr2l,f,c
  2813  0048F8  5002               	movf	(leerGps@cadenaInicial+1)^0,w,c
  2814  0048FA  22DA               	addwfc	fsr2h,f,c
  2815  0048FC  0E43               	movlw	67
  2816  0048FE  18DE               	xorwf	postinc2,w,c
  2817  004900  A4D8               	btfss	status,2,c
  2818  004902  EF85  F024         	goto	u8571
  2819  004906  EF87  F024         	goto	u8570
  2820  00490A                     u8571:
  2821  00490A  EFAC  F024         	goto	l6279
  2822  00490E                     u8570:
  2823  00490E                     
  2824                           ;main.c: 97:                         cadenaInicial[4] == 'C') {;main.c: 99:             
      +                                  cont = 0;
  2825  00490E  0E00               	movlw	0
  2826  004910  6E0A               	movwf	(leerGps@cont+1)^0,c
  2827  004912  0E00               	movlw	0
  2828  004914  6E09               	movwf	leerGps@cont^0,c
  2829                           
  2830                           ;main.c: 101:                     while (cont < 57) {
  2831  004916  EF9A  F024         	goto	l6275
  2832  00491A                     l6269:
  2833                           
  2834                           ;main.c: 102:                         leerByte = EUSART1_Read();
  2835  00491A  EC66  F031         	call	_EUSART1_Read	;wreg free
  2836  00491E  6E0B               	movwf	leerGps@leerByte^0,c
  2837  004920                     
  2838                           ;main.c: 103:                         cadenaInicial[cont++] = leerByte;
  2839  004920  5009               	movf	leerGps@cont^0,w,c
  2840  004922  2401               	addwf	leerGps@cadenaInicial^0,w,c
  2841  004924  6ED9               	movwf	fsr2l,c
  2842  004926  500A               	movf	(leerGps@cont+1)^0,w,c
  2843  004928  2002               	addwfc	(leerGps@cadenaInicial+1)^0,w,c
  2844  00492A  6EDA               	movwf	fsr2h,c
  2845  00492C  C00B  FFDF         	movff	leerGps@leerByte,indf2
  2846  004930  4A09               	infsnz	leerGps@cont^0,f,c
  2847  004932  2A0A               	incf	(leerGps@cont+1)^0,f,c
  2848  004934                     l6275:
  2849                           
  2850                           ;main.c: 101:                     while (cont < 57) {
  2851  004934  BE0A               	btfsc	(leerGps@cont+1)^0,7,c
  2852  004936  EFA6  F024         	goto	u8581
  2853  00493A  500A               	movf	(leerGps@cont+1)^0,w,c
  2854  00493C  E109               	bnz	u8580
  2855  00493E  0E39               	movlw	57
  2856  004940  5C09               	subwf	leerGps@cont^0,w,c
  2857  004942  A0D8               	btfss	status,0,c
  2858  004944  EFA6  F024         	goto	u8581
  2859  004948  EFA8  F024         	goto	u8580
  2860  00494C                     u8581:
  2861  00494C  EF8D  F024         	goto	l6269
  2862  004950                     u8580:
  2863  004950                     
  2864                           ;main.c: 107:                     ok = 1;
  2865  004950  0E00               	movlw	0
  2866  004952  6E08               	movwf	(leerGps@ok+1)^0,c
  2867  004954  0E01               	movlw	1
  2868  004956  6E07               	movwf	leerGps@ok^0,c
  2869  004958                     l6279:
  2870                           
  2871                           ;main.c: 87:         while (leerByte != '\r') {
  2872  004958  0E0D               	movlw	13
  2873  00495A  180B               	xorwf	leerGps@leerByte^0,w,c
  2874  00495C  A4D8               	btfss	status,2,c
  2875  00495E  EFB3  F024         	goto	u8591
  2876  004962  EFB5  F024         	goto	u8590
  2877  004966                     u8591:
  2878  004966  EF26  F024         	goto	l6249
  2879  00496A                     u8590:
  2880  00496A                     l6281:
  2881                           
  2882                           ;main.c: 79:     while (!ok) {
  2883  00496A  5007               	movf	leerGps@ok^0,w,c
  2884  00496C  1008               	iorwf	(leerGps@ok+1)^0,w,c
  2885  00496E  B4D8               	btfsc	status,2,c
  2886  004970  EFBC  F024         	goto	u8601
  2887  004974  EFBE  F024         	goto	u8600
  2888  004978                     u8601:
  2889  004978  EF17  F024         	goto	l6245
  2890  00497C                     u8600:
  2891  00497C                     
  2892                           ;main.c: 118:     cadenaInicial[cont - 1] = '\0';
  2893  00497C  5009               	movf	leerGps@cont^0,w,c
  2894  00497E  2401               	addwf	leerGps@cadenaInicial^0,w,c
  2895  004980  6E03               	movwf	??_leerGps^0,c
  2896  004982  500A               	movf	(leerGps@cont+1)^0,w,c
  2897  004984  2002               	addwfc	(leerGps@cadenaInicial+1)^0,w,c
  2898  004986  6E04               	movwf	(??_leerGps+1)^0,c
  2899  004988  0EFF               	movlw	255
  2900  00498A  2403               	addwf	??_leerGps^0,w,c
  2901  00498C  6ED9               	movwf	fsr2l,c
  2902  00498E  0EFF               	movlw	255
  2903  004990  2004               	addwfc	(??_leerGps+1)^0,w,c
  2904  004992  6EDA               	movwf	fsr2h,c
  2905  004994  0E00               	movlw	0
  2906  004996  6EDF               	movwf	indf2,c
  2907  004998                     
  2908                           ;main.c: 119:     CREN = 0;
  2909  004998  98AB               	bcf	4011,4,c	;volatile
  2910  00499A  0012               	return		;funcret
  2911  00499C                     __end_of_leerGps:
  2912                           	opt callstack 0
  2913                           
  2914 ;; *************** function _EUSART1_Read *****************
  2915 ;; Defined at:
  2916 ;;		line 28 in file "./UART.h"
  2917 ;; Parameters:    Size  Location     Type
  2918 ;;		None
  2919 ;; Auto vars:     Size  Location     Type
  2920 ;;		None
  2921 ;; Return value:  Size  Location     Type
  2922 ;;                  1    wreg      unsigned char 
  2923 ;; Registers used:
  2924 ;;		wreg, status,2
  2925 ;; Tracked objects:
  2926 ;;		On entry : 0/0
  2927 ;;		On exit  : 0/0
  2928 ;;		Unchanged: 0/0
  2929 ;; Data sizes:     COMRAM   BANK0   BANK1   BANK2   BANK3   BANK4   BANK5   BANK6   BANK7
  2930 ;;      Params:         0       0       0       0       0       0       0       0       0
  2931 ;;      Locals:         0       0       0       0       0       0       0       0       0
  2932 ;;      Temps:          0       0       0       0       0       0       0       0       0
  2933 ;;      Totals:         0       0       0       0       0       0       0       0       0
  2934 ;;Total ram usage:        0 bytes
  2935 ;; Hardware stack levels used:    1
  2936 ;; This function calls:
  2937 ;;		Nothing
  2938 ;; This function is called by:
  2939 ;;		_leerGps
  2940 ;; This function uses a non-reentrant model
  2941 ;;
  2942                           
  2943                           	psect	text7
  2944  0062CC                     __ptext7:
  2945                           	opt callstack 0
  2946  0062CC                     _EUSART1_Read:
  2947                           	opt callstack 29
  2948  0062CC                     l60:
  2949  0062CC  AA9E               	btfss	3998,5,c	;volatile
  2950  0062CE  EF6B  F031         	goto	u8351
  2951  0062D2  EF6D  F031         	goto	u8350
  2952  0062D6                     u8351:
  2953  0062D6  EF66  F031         	goto	l60
  2954  0062DA                     u8350:
  2955  0062DA                     
  2956                           ;./UART.h: 30:     RCIF = 0;
  2957  0062DA  9A9E               	bcf	3998,5,c	;volatile
  2958  0062DC                     
  2959                           ;./UART.h: 31:     return RCREG;
  2960  0062DC  50AE               	movf	174,w,c	;volatile
  2961  0062DE  0012               	return		;funcret
  2962  0062E0                     __end_of_EUSART1_Read:
  2963                           	opt callstack 0
  2964                           
  2965 ;; *************** function _dameTemperaturaLm35 *****************
  2966 ;; Defined at:
  2967 ;;		line 39 in file "main.c"
  2968 ;; Parameters:    Size  Location     Type
  2969 ;;  temperatura     2   25[COMRAM] PTR float 
  2970 ;;		 -> main@temperatura(4), 
  2971 ;; Auto vars:     Size  Location     Type
  2972 ;;		None
  2973 ;; Return value:  Size  Location     Type
  2974 ;;                  1    wreg      void 
  2975 ;; Registers used:
  2976 ;;		wreg, fsr2l, fsr2h, status,2, status,0, prodl, prodh, cstack
  2977 ;; Tracked objects:
  2978 ;;		On entry : 0/0
  2979 ;;		On exit  : 0/0
  2980 ;;		Unchanged: 0/0
  2981 ;; Data sizes:     COMRAM   BANK0   BANK1   BANK2   BANK3   BANK4   BANK5   BANK6   BANK7
  2982 ;;      Params:         2       0       0       0       0       0       0       0       0
  2983 ;;      Locals:         0       0       0       0       0       0       0       0       0
  2984 ;;      Temps:          2       0       0       0       0       0       0       0       0
  2985 ;;      Totals:         4       0       0       0       0       0       0       0       0
  2986 ;;Total ram usage:        4 bytes
  2987 ;; Hardware stack levels used:    1
  2988 ;; Hardware stack levels required when called:    1
  2989 ;; This function calls:
  2990 ;;		___flmul
  2991 ;;		___xxtofl
  2992 ;; This function is called by:
  2993 ;;		_main
  2994 ;; This function uses a non-reentrant model
  2995 ;;
  2996                           
  2997                           	psect	text8
  2998  0058D8                     __ptext8:
  2999                           	opt callstack 0
  3000  0058D8                     _dameTemperaturaLm35:
  3001                           	opt callstack 29
  3002  0058D8                     
  3003                           ;main.c: 40:     ADCON0bits.CHS = 0b0000;
  3004  0058D8  0EC3               	movlw	-61
  3005  0058DA  16C2               	andwf	194,f,c	;volatile
  3006  0058DC                     
  3007                           ;main.c: 41:     ADCON0bits.GO = 1;
  3008  0058DC  82C2               	bsf	194,1,c	;volatile
  3009  0058DE                     
  3010                           ;main.c: 42:     ADCON0bits.GO_DONE = 1;
  3011  0058DE  82C2               	bsf	194,1,c	;volatile
  3012  0058E0                     l118:
  3013  0058E0  B2C2               	btfsc	194,1,c	;volatile
  3014  0058E2  EF75  F02C         	goto	u8491
  3015  0058E6  EF77  F02C         	goto	u8490
  3016  0058EA                     u8491:
  3017  0058EA  EF70  F02C         	goto	l118
  3018  0058EE                     u8490:
  3019  0058EE                     
  3020                           ;main.c: 46:     *temperatura = (ADRESH << 8) + ADRESL;
  3021  0058EE  50C3               	movf	195,w,c	;volatile
  3022  0058F0  CFC4 F01C          	movff	4036,??_dameTemperaturaLm35	;volatile
  3023  0058F4  6A1D               	clrf	(??_dameTemperaturaLm35+1)^0,c
  3024  0058F6  C01C  F01D         	movff	??_dameTemperaturaLm35,??_dameTemperaturaLm35+1
  3025  0058FA  6A1C               	clrf	??_dameTemperaturaLm35^0,c
  3026  0058FC  261C               	addwf	??_dameTemperaturaLm35^0,f,c
  3027  0058FE  0E00               	movlw	0
  3028  005900  221D               	addwfc	(??_dameTemperaturaLm35+1)^0,f,c
  3029  005902  C01C  F001         	movff	??_dameTemperaturaLm35,___xxtofl@val
  3030  005906  C01D  F002         	movff	??_dameTemperaturaLm35+1,___xxtofl@val+1
  3031  00590A  0E00               	movlw	0
  3032  00590C  BE02               	btfsc	(___xxtofl@val+1)^0,7,c
  3033  00590E  0EFF               	movlw	-1
  3034  005910  6E03               	movwf	(___xxtofl@val+2)^0,c
  3035  005912  6E04               	movwf	(___xxtofl@val+3)^0,c
  3036  005914  0E01               	movlw	1
  3037  005916  EC65  F022         	call	___xxtofl
  3038  00591A  C01A  FFD9         	movff	dameTemperaturaLm35@temperatura,fsr2l
  3039  00591E  C01B  FFDA         	movff	dameTemperaturaLm35@temperatura+1,fsr2h
  3040  005922  C001  FFDE         	movff	?___xxtofl,postinc2
  3041  005926  C002  FFDE         	movff	?___xxtofl+1,postinc2
  3042  00592A  C003  FFDE         	movff	?___xxtofl+2,postinc2
  3043  00592E  C004  FFDE         	movff	?___xxtofl+3,postinc2
  3044  005932                     
  3045                           ;main.c: 48:     *temperatura *= 0.48877;
  3046  005932  C01A  FFD9         	movff	dameTemperaturaLm35@temperatura,fsr2l
  3047  005936  C01B  FFDA         	movff	dameTemperaturaLm35@temperatura+1,fsr2h
  3048  00593A  CFDE F001          	movff	postinc2,___flmul@b
  3049  00593E  CFDE F002          	movff	postinc2,___flmul@b+1
  3050  005942  CFDE F003          	movff	postinc2,___flmul@b+2
  3051  005946  CFDE F004          	movff	postinc2,___flmul@b+3
  3052  00594A  0E10               	movlw	16
  3053  00594C  6E05               	movwf	___flmul@a^0,c
  3054  00594E  0E40               	movlw	64
  3055  005950  6E06               	movwf	(___flmul@a+1)^0,c
  3056  005952  0EFA               	movlw	250
  3057  005954  6E07               	movwf	(___flmul@a+2)^0,c
  3058  005956  0E3E               	movlw	62
  3059  005958  6E08               	movwf	(___flmul@a+3)^0,c
  3060  00595A  EC98  F01A         	call	___flmul	;wreg free
  3061  00595E  C01A  FFD9         	movff	dameTemperaturaLm35@temperatura,fsr2l
  3062  005962  C01B  FFDA         	movff	dameTemperaturaLm35@temperatura+1,fsr2h
  3063  005966  C001  FFDE         	movff	?___flmul,postinc2
  3064  00596A  C002  FFDE         	movff	?___flmul+1,postinc2
  3065  00596E  C003  FFDE         	movff	?___flmul+2,postinc2
  3066  005972  C004  FFDE         	movff	?___flmul+3,postinc2
  3067  005976  0012               	return		;funcret
  3068  005978                     __end_of_dameTemperaturaLm35:
  3069                           	opt callstack 0
  3070                           
  3071 ;; *************** function _dameHora *****************
  3072 ;; Defined at:
  3073 ;;		line 123 in file "main.c"
  3074 ;; Parameters:    Size  Location     Type
  3075 ;;  cadenaFragme    2  118[BANK0 ] PTR unsigned char 
  3076 ;;		 -> main@cadenaFragmentada(65), 
  3077 ;;  hora            2  120[BANK0 ] PTR unsigned char 
  3078 ;;		 -> main@horaCompleta(9), 
  3079 ;; Auto vars:     Size  Location     Type
  3080 ;;  i               2  134[BANK0 ] int 
  3081 ;;  horaGMT         2  132[BANK0 ] short 
  3082 ;;  unidadHora      2  128[BANK0 ] unsigned char [2]
  3083 ;;  decenaHora      2  126[BANK0 ] unsigned char [2]
  3084 ;; Return value:  Size  Location     Type
  3085 ;;                  1    wreg      void 
  3086 ;; Registers used:
  3087 ;;		wreg, fsr1l, fsr1h, fsr2l, fsr2h, status,2, status,0, tblptrl, tblptrh, tblptru, prodl, prodh, cstack
  3088 ;; Tracked objects:
  3089 ;;		On entry : 0/0
  3090 ;;		On exit  : 0/0
  3091 ;;		Unchanged: 0/0
  3092 ;; Data sizes:     COMRAM   BANK0   BANK1   BANK2   BANK3   BANK4   BANK5   BANK6   BANK7
  3093 ;;      Params:         0       4       0       0       0       0       0       0       0
  3094 ;;      Locals:         0      10       0       0       0       0       0       0       0
  3095 ;;      Temps:          0       4       0       0       0       0       0       0       0
  3096 ;;      Totals:         0      18       0       0       0       0       0       0       0
  3097 ;;Total ram usage:       18 bytes
  3098 ;; Hardware stack levels used:    1
  3099 ;; Hardware stack levels required when called:    8
  3100 ;; This function calls:
  3101 ;;		___awdiv
  3102 ;;		___awmod
  3103 ;;		___wmul
  3104 ;;		_sprintf
  3105 ;; This function is called by:
  3106 ;;		_main
  3107 ;; This function uses a non-reentrant model
  3108 ;;
  3109                           
  3110                           	psect	text9
  3111  003FD8                     __ptext9:
  3112                           	opt callstack 0
  3113  003FD8                     _dameHora:
  3114                           	opt callstack 22
  3115  003FD8                     
  3116                           ;main.c: 126:     char decenaHora[2];;main.c: 127:     char unidadHora[2];;main.c: 130: 
      +                              for (int i = 0; i <= 7; i++) {
  3117  003FD8  0E00               	movlw	0
  3118  003FDA  0100               	movlb	0	; () banked
  3119  003FDC  6FE7               	movwf	(dameHora@i+1)& (0+255),b
  3120  003FDE  0E00               	movlw	0
  3121  003FE0  6FE6               	movwf	dameHora@i& (0+255),b
  3122  003FE2  EF1D  F021         	goto	l6339
  3123  003FE6                     l6293:
  3124                           
  3125                           ; BSR set to: 0
  3126                           ;main.c: 135:                 hora[i] = cadenaFragmentada[i];
  3127  003FE6  51E6               	movf	dameHora@i& (0+255),w,b
  3128  003FE8  25D6               	addwf	dameHora@cadenaFragmentada& (0+255),w,b
  3129  003FEA  6ED9               	movwf	fsr2l,c
  3130  003FEC  51E7               	movf	(dameHora@i+1)& (0+255),w,b
  3131  003FEE  21D7               	addwfc	(dameHora@cadenaFragmentada+1)& (0+255),w,b
  3132  003FF0  6EDA               	movwf	fsr2h,c
  3133  003FF2  51E6               	movf	dameHora@i& (0+255),w,b
  3134  003FF4  25D8               	addwf	dameHora@hora& (0+255),w,b
  3135  003FF6  6EE1               	movwf	fsr1l,c
  3136  003FF8  51E7               	movf	(dameHora@i+1)& (0+255),w,b
  3137  003FFA  21D9               	addwfc	(dameHora@hora+1)& (0+255),w,b
  3138  003FFC  6EE2               	movwf	fsr1h,c
  3139  003FFE  CFDF FFE7          	movff	indf2,indf1
  3140                           
  3141                           ;main.c: 136:                 break;
  3142  004002  EF43  F021         	goto	l6341
  3143  004006                     l6295:
  3144                           
  3145                           ; BSR set to: 0
  3146                           ;main.c: 140:                 hora[i] = cadenaFragmentada[i];
  3147  004006  51E6               	movf	dameHora@i& (0+255),w,b
  3148  004008  25D6               	addwf	dameHora@cadenaFragmentada& (0+255),w,b
  3149  00400A  6ED9               	movwf	fsr2l,c
  3150  00400C  51E7               	movf	(dameHora@i+1)& (0+255),w,b
  3151  00400E  21D7               	addwfc	(dameHora@cadenaFragmentada+1)& (0+255),w,b
  3152  004010  6EDA               	movwf	fsr2h,c
  3153  004012  51E6               	movf	dameHora@i& (0+255),w,b
  3154  004014  25D8               	addwf	dameHora@hora& (0+255),w,b
  3155  004016  6EE1               	movwf	fsr1l,c
  3156  004018  51E7               	movf	(dameHora@i+1)& (0+255),w,b
  3157  00401A  21D9               	addwfc	(dameHora@hora+1)& (0+255),w,b
  3158  00401C  6EE2               	movwf	fsr1h,c
  3159  00401E  CFDF FFE7          	movff	indf2,indf1
  3160  004022                     
  3161                           ; BSR set to: 0
  3162                           ;main.c: 141:                 horaGMT = (hora[0]) - 48;
  3163  004022  C0D8  FFD9         	movff	dameHora@hora,fsr2l
  3164  004026  C0D9  FFDA         	movff	dameHora@hora+1,fsr2h
  3165  00402A  50DF               	movf	indf2,w,c
  3166  00402C  6FDA               	movwf	??_dameHora& (0+255),b
  3167  00402E  0ED0               	movlw	208
  3168  004030  25DA               	addwf	??_dameHora& (0+255),w,b
  3169  004032  6FE4               	movwf	dameHora@horaGMT& (0+255),b
  3170  004034  6BE5               	clrf	(dameHora@horaGMT+1)& (0+255),b
  3171  004036  0EFF               	movlw	255
  3172  004038  23E5               	addwfc	(dameHora@horaGMT+1)& (0+255),f,b
  3173  00403A                     
  3174                           ; BSR set to: 0
  3175                           ;main.c: 142:                 horaGMT *= 10;
  3176  00403A  C0E4  F001         	movff	dameHora@horaGMT,___wmul@multiplier
  3177  00403E  C0E5  F002         	movff	dameHora@horaGMT+1,___wmul@multiplier+1
  3178  004042  0E00               	movlw	0
  3179  004044  6E04               	movwf	(___wmul@multiplicand+1)^0,c
  3180  004046  0E0A               	movlw	10
  3181  004048  6E03               	movwf	___wmul@multiplicand^0,c
  3182  00404A  EC1A  F031         	call	___wmul	;wreg free
  3183  00404E  C001  F0E4         	movff	?___wmul,dameHora@horaGMT
  3184  004052  C002  F0E5         	movff	?___wmul+1,dameHora@horaGMT+1
  3185  004056                     
  3186                           ;main.c: 143:                 horaGMT += (hora[i]) - 48;
  3187  004056  0ED0               	movlw	208
  3188  004058  0100               	movlb	0	; () banked
  3189  00405A  6FDA               	movwf	??_dameHora& (0+255),b
  3190  00405C  0EFF               	movlw	255
  3191  00405E  6FDB               	movwf	(??_dameHora+1)& (0+255),b
  3192  004060  51E6               	movf	dameHora@i& (0+255),w,b
  3193  004062  25D8               	addwf	dameHora@hora& (0+255),w,b
  3194  004064  6ED9               	movwf	fsr2l,c
  3195  004066  51E7               	movf	(dameHora@i+1)& (0+255),w,b
  3196  004068  21D9               	addwfc	(dameHora@hora+1)& (0+255),w,b
  3197  00406A  6EDA               	movwf	fsr2h,c
  3198  00406C  50DF               	movf	indf2,w,c
  3199  00406E  6FDC               	movwf	(??_dameHora+2)& (0+255),b
  3200  004070  6BDD               	clrf	(??_dameHora+3)& (0+255),b
  3201  004072  51DA               	movf	??_dameHora& (0+255),w,b
  3202  004074  27DC               	addwf	(??_dameHora+2)& (0+255),f,b
  3203  004076  51DB               	movf	(??_dameHora+1)& (0+255),w,b
  3204  004078  23DD               	addwfc	(??_dameHora+3)& (0+255),f,b
  3205  00407A  51DC               	movf	(??_dameHora+2)& (0+255),w,b
  3206  00407C  27E4               	addwf	dameHora@horaGMT& (0+255),f,b
  3207  00407E  51DD               	movf	(??_dameHora+3)& (0+255),w,b
  3208  004080  23E5               	addwfc	(dameHora@horaGMT+1)& (0+255),f,b
  3209  004082                     
  3210                           ; BSR set to: 0
  3211                           ;main.c: 144:                 horaGMT -= 5;
  3212  004082  0EFB               	movlw	251
  3213  004084  27E4               	addwf	dameHora@horaGMT& (0+255),f,b
  3214  004086  0EFF               	movlw	255
  3215  004088  23E5               	addwfc	(dameHora@horaGMT+1)& (0+255),f,b
  3216  00408A                     
  3217                           ; BSR set to: 0
  3218                           ;main.c: 146:                 if (horaGMT < 0) {
  3219  00408A  BFE5               	btfsc	(dameHora@horaGMT+1)& (0+255),7,b
  3220  00408C  EF4C  F020         	goto	u8610
  3221  004090  EF4A  F020         	goto	u8611
  3222  004094                     u8611:
  3223  004094  EF57  F020         	goto	l6311
  3224  004098                     u8610:
  3225  004098                     
  3226                           ; BSR set to: 0
  3227                           ;main.c: 147:                     horaGMT = 24 - (horaGMT * -1);
  3228  004098  0E18               	movlw	24
  3229  00409A  25E4               	addwf	dameHora@horaGMT& (0+255),w,b
  3230  00409C  6FE4               	movwf	dameHora@horaGMT& (0+255),b
  3231  00409E  0E00               	movlw	0
  3232  0040A0  21E5               	addwfc	(dameHora@horaGMT+1)& (0+255),w,b
  3233  0040A2  6FE5               	movwf	(dameHora@horaGMT+1)& (0+255),b
  3234  0040A4                     
  3235                           ; BSR set to: 0
  3236                           ;main.c: 148:                     diaSiguiente = 1;
  3237  0040A4  0E01               	movlw	1
  3238  0040A6  0101               	movlb	1	; () banked
  3239  0040A8  6FF7               	movwf	_diaSiguiente& (0+255),b
  3240                           
  3241                           ;main.c: 149:                 } else
  3242  0040AA  EF5A  F020         	goto	l6313
  3243  0040AE                     l6311:
  3244                           
  3245                           ; BSR set to: 0
  3246                           ;main.c: 150:                     diaSiguiente = 0;
  3247  0040AE  0E00               	movlw	0
  3248  0040B0  0101               	movlb	1	; () banked
  3249  0040B2  6FF7               	movwf	_diaSiguiente& (0+255),b
  3250  0040B4                     l6313:
  3251                           
  3252                           ; BSR set to: 1
  3253                           ;main.c: 152:                 sprintf(decenaHora, "%d", (horaGMT / 10) % 10);
  3254  0040B4  0E00               	movlw	0
  3255  0040B6  6E04               	movwf	(___awdiv@divisor+1)^0,c
  3256  0040B8  0E0A               	movlw	10
  3257  0040BA  6E03               	movwf	___awdiv@divisor^0,c
  3258  0040BC  C0E4  F001         	movff	dameHora@horaGMT,___awdiv@dividend
  3259  0040C0  C0E5  F002         	movff	dameHora@horaGMT+1,___awdiv@dividend+1
  3260  0040C4  EC5D  F02B         	call	___awdiv	;wreg free
  3261  0040C8  C001  F009         	movff	?___awdiv,___awmod@dividend
  3262  0040CC  C002  F00A         	movff	?___awdiv+1,___awmod@dividend+1
  3263  0040D0  0E00               	movlw	0
  3264  0040D2  6E0C               	movwf	(___awmod@divisor+1)^0,c
  3265  0040D4  0E0A               	movlw	10
  3266  0040D6  6E0B               	movwf	___awmod@divisor^0,c
  3267  0040D8  ECBF  F02B         	call	___awmod	;wreg free
  3268  0040DC  C009  F0E2         	movff	?___awmod,_dameHora$1620
  3269  0040E0  C00A  F0E3         	movff	?___awmod+1,_dameHora$1620+1
  3270  0040E4                     
  3271                           ;main.c: 152:                 sprintf(decenaHora, "%d", (horaGMT / 10) % 10);
  3272  0040E4  0EDE               	movlw	low dameHora@decenaHora
  3273  0040E6  0100               	movlb	0	; () banked
  3274  0040E8  6FB8               	movwf	sprintf@s& (0+255),b
  3275  0040EA  0E00               	movlw	high dameHora@decenaHora
  3276  0040EC  6FB9               	movwf	(sprintf@s+1)& (0+255),b
  3277  0040EE  0EAB               	movlw	low STR_3
  3278  0040F0  6FBA               	movwf	sprintf@fmt& (0+255),b
  3279  0040F2  0E08               	movlw	high STR_3
  3280  0040F4  6FBB               	movwf	(sprintf@fmt+1)& (0+255),b
  3281  0040F6  C0E2  F0BC         	movff	_dameHora$1620,?_sprintf+4
  3282  0040FA  C0E3  F0BD         	movff	_dameHora$1620+1,?_sprintf+5
  3283  0040FE  EC6A  F02F         	call	_sprintf	;wreg free
  3284  004102                     
  3285                           ;main.c: 153:                 sprintf(unidadHora, "%d", (horaGMT % 10));
  3286  004102  C0E4  F009         	movff	dameHora@horaGMT,___awmod@dividend
  3287  004106  C0E5  F00A         	movff	dameHora@horaGMT+1,___awmod@dividend+1
  3288  00410A  0E00               	movlw	0
  3289  00410C  6E0C               	movwf	(___awmod@divisor+1)^0,c
  3290  00410E  0E0A               	movlw	10
  3291  004110  6E0B               	movwf	___awmod@divisor^0,c
  3292  004112  ECBF  F02B         	call	___awmod	;wreg free
  3293  004116  C009  F0E2         	movff	?___awmod,_dameHora$1620
  3294  00411A  C00A  F0E3         	movff	?___awmod+1,_dameHora$1620+1
  3295  00411E                     
  3296                           ;main.c: 153:                 sprintf(unidadHora, "%d", (horaGMT % 10));
  3297  00411E  0EE0               	movlw	low dameHora@unidadHora
  3298  004120  0100               	movlb	0	; () banked
  3299  004122  6FB8               	movwf	sprintf@s& (0+255),b
  3300  004124  0E00               	movlw	high dameHora@unidadHora
  3301  004126  6FB9               	movwf	(sprintf@s+1)& (0+255),b
  3302  004128  0EAB               	movlw	low STR_3
  3303  00412A  6FBA               	movwf	sprintf@fmt& (0+255),b
  3304  00412C  0E08               	movlw	high STR_3
  3305  00412E  6FBB               	movwf	(sprintf@fmt+1)& (0+255),b
  3306  004130  C0E2  F0BC         	movff	_dameHora$1620,?_sprintf+4
  3307  004134  C0E3  F0BD         	movff	_dameHora$1620+1,?_sprintf+5
  3308  004138  EC6A  F02F         	call	_sprintf	;wreg free
  3309  00413C                     
  3310                           ;main.c: 155:                 hora[0] = decenaHora[0];
  3311  00413C  C0D8  FFD9         	movff	dameHora@hora,fsr2l
  3312  004140  C0D9  FFDA         	movff	dameHora@hora+1,fsr2h
  3313  004144  C0DE  FFDF         	movff	dameHora@decenaHora,indf2
  3314  004148                     
  3315                           ;main.c: 156:                 hora[1] = unidadHora[0];
  3316  004148  0100               	movlb	0	; () banked
  3317  00414A  EE20 F001          	lfsr	2,1
  3318  00414E  51D8               	movf	dameHora@hora& (0+255),w,b
  3319  004150  26D9               	addwf	fsr2l,f,c
  3320  004152  51D9               	movf	(dameHora@hora+1)& (0+255),w,b
  3321  004154  22DA               	addwfc	fsr2h,f,c
  3322  004156  C0E0  FFDF         	movff	dameHora@unidadHora,indf2
  3323                           
  3324                           ;main.c: 157:                 break;
  3325  00415A  EF43  F021         	goto	l6341
  3326  00415E                     l6325:
  3327                           
  3328                           ; BSR set to: 0
  3329                           ;main.c: 160:                 hora[i] = ':';
  3330  00415E  51E6               	movf	dameHora@i& (0+255),w,b
  3331  004160  25D8               	addwf	dameHora@hora& (0+255),w,b
  3332  004162  6ED9               	movwf	fsr2l,c
  3333  004164  51E7               	movf	(dameHora@i+1)& (0+255),w,b
  3334  004166  21D9               	addwfc	(dameHora@hora+1)& (0+255),w,b
  3335  004168  6EDA               	movwf	fsr2h,c
  3336  00416A  0E3A               	movlw	58
  3337  00416C  6EDF               	movwf	indf2,c
  3338  00416E                     
  3339                           ; BSR set to: 0
  3340                           ;main.c: 161:                 hora[i + 1] = cadenaFragmentada[i];
  3341  00416E  51E6               	movf	dameHora@i& (0+255),w,b
  3342  004170  25D6               	addwf	dameHora@cadenaFragmentada& (0+255),w,b
  3343  004172  6ED9               	movwf	fsr2l,c
  3344  004174  51E7               	movf	(dameHora@i+1)& (0+255),w,b
  3345  004176  21D7               	addwfc	(dameHora@cadenaFragmentada+1)& (0+255),w,b
  3346  004178  6EDA               	movwf	fsr2h,c
  3347  00417A  51E6               	movf	dameHora@i& (0+255),w,b
  3348  00417C  25D8               	addwf	dameHora@hora& (0+255),w,b
  3349  00417E  6FDA               	movwf	??_dameHora& (0+255),b
  3350  004180  51E7               	movf	(dameHora@i+1)& (0+255),w,b
  3351  004182  21D9               	addwfc	(dameHora@hora+1)& (0+255),w,b
  3352  004184  6FDB               	movwf	(??_dameHora+1)& (0+255),b
  3353  004186  0E01               	movlw	1
  3354  004188  25DA               	addwf	??_dameHora& (0+255),w,b
  3355  00418A  6EE1               	movwf	fsr1l,c
  3356  00418C  0E00               	movlw	0
  3357  00418E  21DB               	addwfc	(??_dameHora+1)& (0+255),w,b
  3358  004190  6EE2               	movwf	fsr1h,c
  3359  004192  CFDF FFE7          	movff	indf2,indf1
  3360                           
  3361                           ;main.c: 162:                 break;
  3362  004196  EF43  F021         	goto	l6341
  3363  00419A                     l6329:
  3364                           
  3365                           ; BSR set to: 0
  3366                           ;main.c: 165:                 hora[i] = cadenaFragmentada[i - 1];
  3367  00419A  51E6               	movf	dameHora@i& (0+255),w,b
  3368  00419C  25D6               	addwf	dameHora@cadenaFragmentada& (0+255),w,b
  3369  00419E  6FDA               	movwf	??_dameHora& (0+255),b
  3370  0041A0  51E7               	movf	(dameHora@i+1)& (0+255),w,b
  3371  0041A2  21D7               	addwfc	(dameHora@cadenaFragmentada+1)& (0+255),w,b
  3372  0041A4  6FDB               	movwf	(??_dameHora+1)& (0+255),b
  3373  0041A6  0EFF               	movlw	255
  3374  0041A8  25DA               	addwf	??_dameHora& (0+255),w,b
  3375  0041AA  6ED9               	movwf	fsr2l,c
  3376  0041AC  0EFF               	movlw	255
  3377  0041AE  21DB               	addwfc	(??_dameHora+1)& (0+255),w,b
  3378  0041B0  6EDA               	movwf	fsr2h,c
  3379  0041B2  51E6               	movf	dameHora@i& (0+255),w,b
  3380  0041B4  25D8               	addwf	dameHora@hora& (0+255),w,b
  3381  0041B6  6EE1               	movwf	fsr1l,c
  3382  0041B8  51E7               	movf	(dameHora@i+1)& (0+255),w,b
  3383  0041BA  21D9               	addwfc	(dameHora@hora+1)& (0+255),w,b
  3384  0041BC  6EE2               	movwf	fsr1h,c
  3385  0041BE  CFDF FFE7          	movff	indf2,indf1
  3386                           
  3387                           ;main.c: 166:                 break;
  3388  0041C2  EF43  F021         	goto	l6341
  3389  0041C6                     l6331:
  3390                           
  3391                           ; BSR set to: 0
  3392                           ;main.c: 169:                 hora[i] = ':';
  3393  0041C6  51E6               	movf	dameHora@i& (0+255),w,b
  3394  0041C8  25D8               	addwf	dameHora@hora& (0+255),w,b
  3395  0041CA  6ED9               	movwf	fsr2l,c
  3396  0041CC  51E7               	movf	(dameHora@i+1)& (0+255),w,b
  3397  0041CE  21D9               	addwfc	(dameHora@hora+1)& (0+255),w,b
  3398  0041D0  6EDA               	movwf	fsr2h,c
  3399  0041D2  0E3A               	movlw	58
  3400  0041D4  6EDF               	movwf	indf2,c
  3401  0041D6                     
  3402                           ; BSR set to: 0
  3403                           ;main.c: 170:                 hora[i + 1] = cadenaFragmentada[i - 1];
  3404  0041D6  51E6               	movf	dameHora@i& (0+255),w,b
  3405  0041D8  25D6               	addwf	dameHora@cadenaFragmentada& (0+255),w,b
  3406  0041DA  6FDA               	movwf	??_dameHora& (0+255),b
  3407  0041DC  51E7               	movf	(dameHora@i+1)& (0+255),w,b
  3408  0041DE  21D7               	addwfc	(dameHora@cadenaFragmentada+1)& (0+255),w,b
  3409  0041E0  6FDB               	movwf	(??_dameHora+1)& (0+255),b
  3410  0041E2  0EFF               	movlw	255
  3411  0041E4  25DA               	addwf	??_dameHora& (0+255),w,b
  3412  0041E6  6ED9               	movwf	fsr2l,c
  3413  0041E8  0EFF               	movlw	255
  3414  0041EA  21DB               	addwfc	(??_dameHora+1)& (0+255),w,b
  3415  0041EC  6EDA               	movwf	fsr2h,c
  3416  0041EE  51E6               	movf	dameHora@i& (0+255),w,b
  3417  0041F0  25D8               	addwf	dameHora@hora& (0+255),w,b
  3418  0041F2  6FDC               	movwf	(??_dameHora+2)& (0+255),b
  3419  0041F4  51E7               	movf	(dameHora@i+1)& (0+255),w,b
  3420  0041F6  21D9               	addwfc	(dameHora@hora+1)& (0+255),w,b
  3421  0041F8  6FDD               	movwf	(??_dameHora+3)& (0+255),b
  3422  0041FA  0E01               	movlw	1
  3423  0041FC  25DC               	addwf	(??_dameHora+2)& (0+255),w,b
  3424  0041FE  6EE1               	movwf	fsr1l,c
  3425  004200  0E00               	movlw	0
  3426  004202  21DD               	addwfc	(??_dameHora+3)& (0+255),w,b
  3427  004204  6EE2               	movwf	fsr1h,c
  3428  004206  CFDF FFE7          	movff	indf2,indf1
  3429                           
  3430                           ;main.c: 171:                 break;
  3431  00420A  EF43  F021         	goto	l6341
  3432  00420E                     l6335:
  3433                           
  3434                           ; BSR set to: 0
  3435                           ;main.c: 174:                 hora[i] = cadenaFragmentada[i - 2];
  3436  00420E  51E6               	movf	dameHora@i& (0+255),w,b
  3437  004210  25D6               	addwf	dameHora@cadenaFragmentada& (0+255),w,b
  3438  004212  6FDA               	movwf	??_dameHora& (0+255),b
  3439  004214  51E7               	movf	(dameHora@i+1)& (0+255),w,b
  3440  004216  21D7               	addwfc	(dameHora@cadenaFragmentada+1)& (0+255),w,b
  3441  004218  6FDB               	movwf	(??_dameHora+1)& (0+255),b
  3442  00421A  0EFE               	movlw	254
  3443  00421C  25DA               	addwf	??_dameHora& (0+255),w,b
  3444  00421E  6ED9               	movwf	fsr2l,c
  3445  004220  0EFF               	movlw	255
  3446  004222  21DB               	addwfc	(??_dameHora+1)& (0+255),w,b
  3447  004224  6EDA               	movwf	fsr2h,c
  3448  004226  51E6               	movf	dameHora@i& (0+255),w,b
  3449  004228  25D8               	addwf	dameHora@hora& (0+255),w,b
  3450  00422A  6EE1               	movwf	fsr1l,c
  3451  00422C  51E7               	movf	(dameHora@i+1)& (0+255),w,b
  3452  00422E  21D9               	addwfc	(dameHora@hora+1)& (0+255),w,b
  3453  004230  6EE2               	movwf	fsr1h,c
  3454  004232  CFDF FFE7          	movff	indf2,indf1
  3455                           
  3456                           ;main.c: 175:                 break;
  3457  004236  EF43  F021         	goto	l6341
  3458  00423A                     l6339:
  3459                           
  3460                           ; BSR set to: 0
  3461  00423A  C0E6  F0DA         	movff	dameHora@i,??_dameHora
  3462  00423E  C0E7  F0DB         	movff	dameHora@i+1,??_dameHora+1
  3463                           
  3464                           ; Switch on 2 bytes has been partitioned into a top level switch of size 1, and 1 sub-sw
      +                          itches
  3465                           ; Switch size 1, requested type "simple"
  3466                           ; Number of cases is 1, Range of values is 0 to 0
  3467                           ; switch strategies available:
  3468                           ; Name         Instructions Cycles
  3469                           ; simple_byte            4     3 (average)
  3470                           ;	Chosen strategy is simple_byte
  3471  004242  51DB               	movf	(??_dameHora+1)& (0+255),w,b
  3472  004244  0A00               	xorlw	0	; case 0
  3473  004246  B4D8               	btfsc	status,2,c
  3474  004248  EF28  F021         	goto	l6535
  3475  00424C  EF43  F021         	goto	l6341
  3476  004250                     l6535:
  3477                           
  3478                           ; BSR set to: 0
  3479                           ; Switch size 1, requested type "simple"
  3480                           ; Number of cases is 6, Range of values is 0 to 7
  3481                           ; switch strategies available:
  3482                           ; Name         Instructions Cycles
  3483                           ; simple_byte           19    10 (average)
  3484                           ;	Chosen strategy is simple_byte
  3485  004250  51DA               	movf	??_dameHora& (0+255),w,b
  3486  004252  0A00               	xorlw	0	; case 0
  3487  004254  B4D8               	btfsc	status,2,c
  3488  004256  EFF3  F01F         	goto	l6293
  3489  00425A  0A01               	xorlw	1	; case 1
  3490  00425C  B4D8               	btfsc	status,2,c
  3491  00425E  EF03  F020         	goto	l6295
  3492  004262  0A03               	xorlw	3	; case 2
  3493  004264  B4D8               	btfsc	status,2,c
  3494  004266  EFAF  F020         	goto	l6325
  3495  00426A  0A06               	xorlw	6	; case 4
  3496  00426C  B4D8               	btfsc	status,2,c
  3497  00426E  EFCD  F020         	goto	l6329
  3498  004272  0A01               	xorlw	1	; case 5
  3499  004274  B4D8               	btfsc	status,2,c
  3500  004276  EFE3  F020         	goto	l6331
  3501  00427A  0A02               	xorlw	2	; case 7
  3502  00427C  B4D8               	btfsc	status,2,c
  3503  00427E  EF07  F021         	goto	l6335
  3504  004282  EF43  F021         	goto	l6341
  3505  004286                     l6341:
  3506                           
  3507                           ; BSR set to: 0
  3508                           ;main.c: 179:     }
  3509  004286  4BE6               	infsnz	dameHora@i& (0+255),f,b
  3510  004288  2BE7               	incf	(dameHora@i+1)& (0+255),f,b
  3511  00428A                     
  3512                           ; BSR set to: 0
  3513  00428A  BFE7               	btfsc	(dameHora@i+1)& (0+255),7,b
  3514  00428C  EF51  F021         	goto	u8621
  3515  004290  51E7               	movf	(dameHora@i+1)& (0+255),w,b
  3516  004292  E109               	bnz	u8620
  3517  004294  0E08               	movlw	8
  3518  004296  5DE6               	subwf	dameHora@i& (0+255),w,b
  3519  004298  A0D8               	btfss	status,0,c
  3520  00429A  EF51  F021         	goto	u8621
  3521  00429E  EF53  F021         	goto	u8620
  3522  0042A2                     u8621:
  3523  0042A2  EF1D  F021         	goto	l6339
  3524  0042A6                     u8620:
  3525  0042A6                     
  3526                           ; BSR set to: 0
  3527                           ;main.c: 181:     hora[9 - 1] = '\0';
  3528  0042A6  EE20 F008          	lfsr	2,8
  3529  0042AA  51D8               	movf	dameHora@hora& (0+255),w,b
  3530  0042AC  26D9               	addwf	fsr2l,f,c
  3531  0042AE  51D9               	movf	(dameHora@hora+1)& (0+255),w,b
  3532  0042B0  22DA               	addwfc	fsr2h,f,c
  3533  0042B2  0E00               	movlw	0
  3534  0042B4  6EDF               	movwf	indf2,c
  3535  0042B6                     
  3536                           ; BSR set to: 0
  3537  0042B6  0012               	return		;funcret
  3538  0042B8                     __end_of_dameHora:
  3539                           	opt callstack 0
  3540                           
  3541 ;; *************** function _sprintf *****************
  3542 ;; Defined at:
  3543 ;;		line 9 in file "/opt/microchip/xc8/v2.10/pic/sources/c99/common/nf_sprintf.c"
  3544 ;; Parameters:    Size  Location     Type
  3545 ;;  s               2   88[BANK0 ] PTR unsigned char 
  3546 ;;		 -> main@datoSalida(50), main@bufferFecha(20), main@buffer(20), dameHora@unidadHora(2), 
  3547 ;;		 -> dameHora@decenaHora(2), mensajeEspera@buffer(20), 
  3548 ;;  fmt             2   90[BANK0 ] PTR const unsigned char 
  3549 ;;		 -> STR_13(22), STR_12(11), STR_10(15), STR_9(13), 
  3550 ;;		 -> STR_8(11), STR_7(9), STR_6(11), STR_5(11), 
  3551 ;;		 -> STR_4(3), STR_3(3), STR_1(15), 
  3552 ;; Auto vars:     Size  Location     Type
  3553 ;;  f               6  112[BANK0 ] struct _IO_FILE
  3554 ;;  ap              2  110[BANK0 ] PTR void [1]
  3555 ;;		 -> ?_sprintf(2), 
  3556 ;;  ret             2    0        int 
  3557 ;; Return value:  Size  Location     Type
  3558 ;;                  2   88[BANK0 ] int 
  3559 ;; Registers used:
  3560 ;;		wreg, fsr1l, fsr1h, fsr2l, fsr2h, status,2, status,0, tblptrl, tblptrh, tblptru, prodl, prodh, cstack
  3561 ;; Tracked objects:
  3562 ;;		On entry : 0/0
  3563 ;;		On exit  : 0/0
  3564 ;;		Unchanged: 0/0
  3565 ;; Data sizes:     COMRAM   BANK0   BANK1   BANK2   BANK3   BANK4   BANK5   BANK6   BANK7
  3566 ;;      Params:         0      20       0       0       0       0       0       0       0
  3567 ;;      Locals:         0      10       0       0       0       0       0       0       0
  3568 ;;      Temps:          0       0       0       0       0       0       0       0       0
  3569 ;;      Totals:         0      30       0       0       0       0       0       0       0
  3570 ;;Total ram usage:       30 bytes
  3571 ;; Hardware stack levels used:    1
  3572 ;; Hardware stack levels required when called:    7
  3573 ;; This function calls:
  3574 ;;		_vfprintf
  3575 ;; This function is called by:
  3576 ;;		_mensajeEspera
  3577 ;;		_dameHora
  3578 ;;		_main
  3579 ;; This function uses a non-reentrant model
  3580 ;;
  3581                           
  3582                           	psect	text10
  3583  005ED4                     __ptext10:
  3584                           	opt callstack 0
  3585  005ED4                     _sprintf:
  3586                           	opt callstack 23
  3587  005ED4  0EBC               	movlw	low (?_sprintf+4)
  3588  005ED6  0100               	movlb	0	; () banked
  3589  005ED8  6FCE               	movwf	sprintf@ap& (0+255),b
  3590  005EDA  0E00               	movlw	high (?_sprintf+4)
  3591  005EDC  6FCF               	movwf	(sprintf@ap+1)& (0+255),b
  3592  005EDE  C0B8  F0D0         	movff	sprintf@s,sprintf@f
  3593  005EE2  C0B9  F0D1         	movff	sprintf@s+1,sprintf@f+1
  3594  005EE6                     
  3595                           ; BSR set to: 0
  3596  005EE6  0E00               	movlw	0
  3597  005EE8  6FD3               	movwf	(sprintf@f+3)& (0+255),b
  3598  005EEA  0E00               	movlw	0
  3599  005EEC  6FD2               	movwf	(sprintf@f+2)& (0+255),b
  3600  005EEE                     
  3601                           ; BSR set to: 0
  3602  005EEE  0E00               	movlw	0
  3603  005EF0  6FD5               	movwf	(sprintf@f+5)& (0+255),b
  3604  005EF2  0E00               	movlw	0
  3605  005EF4  6FD4               	movwf	(sprintf@f+4)& (0+255),b
  3606  005EF6                     
  3607                           ; BSR set to: 0
  3608  005EF6  0ED0               	movlw	low sprintf@f
  3609  005EF8  6FB2               	movwf	vfprintf@fp& (0+255),b
  3610  005EFA  0E00               	movlw	high sprintf@f
  3611  005EFC  6FB3               	movwf	(vfprintf@fp+1)& (0+255),b
  3612  005EFE  C0BA  F0B4         	movff	sprintf@fmt,vfprintf@fmt
  3613  005F02  C0BB  F0B5         	movff	sprintf@fmt+1,vfprintf@fmt+1
  3614  005F06  0ECE               	movlw	low sprintf@ap
  3615  005F08  6FB6               	movwf	vfprintf@ap& (0+255),b
  3616  005F0A  0E00               	movlw	high sprintf@ap
  3617  005F0C  6FB7               	movwf	(vfprintf@ap+1)& (0+255),b
  3618  005F0E  EC50  F02E         	call	_vfprintf	;wreg free
  3619  005F12  0100               	movlb	0	; () banked
  3620  005F14  51D2               	movf	(sprintf@f+2)& (0+255),w,b
  3621  005F16  25B8               	addwf	sprintf@s& (0+255),w,b
  3622  005F18  6ED9               	movwf	fsr2l,c
  3623  005F1A  51D3               	movf	(sprintf@f+3)& (0+255),w,b
  3624  005F1C  21B9               	addwfc	(sprintf@s+1)& (0+255),w,b
  3625  005F1E  6EDA               	movwf	fsr2h,c
  3626  005F20  0E00               	movlw	0
  3627  005F22  6EDF               	movwf	indf2,c
  3628  005F24                     
  3629                           ; BSR set to: 0
  3630  005F24  0012               	return		;funcret
  3631  005F26                     __end_of_sprintf:
  3632                           	opt callstack 0
  3633                           
  3634 ;; *************** function _vfprintf *****************
  3635 ;; Defined at:
  3636 ;;		line 1368 in file "/opt/microchip/xc8/v2.10/pic/sources/c99/common/doprnt.c"
  3637 ;; Parameters:    Size  Location     Type
  3638 ;;  fp              2   82[BANK0 ] PTR struct _IO_FILE
  3639 ;;		 -> sprintf@f(6), 
  3640 ;;  fmt             2   84[BANK0 ] PTR const unsigned char 
  3641 ;;		 -> STR_13(22), STR_12(11), STR_10(15), STR_9(13), 
  3642 ;;		 -> STR_8(11), STR_7(9), STR_6(11), STR_5(11), 
  3643 ;;		 -> STR_4(3), STR_3(3), STR_1(15), 
  3644 ;;  ap              2   86[BANK0 ] PTR PTR void 
  3645 ;;		 -> sprintf@ap(2), 
  3646 ;; Auto vars:     Size  Location     Type
  3647 ;;  cfmt            2   92[COMRAM] PTR unsigned char 
  3648 ;;		 -> STR_13(22), STR_12(11), STR_10(15), STR_9(13), 
  3649 ;;		 -> STR_8(11), STR_7(9), STR_6(11), STR_5(11), 
  3650 ;;		 -> STR_4(3), STR_3(3), STR_1(15), 
  3651 ;; Return value:  Size  Location     Type
  3652 ;;                  2   82[BANK0 ] int 
  3653 ;; Registers used:
  3654 ;;		wreg, fsr1l, fsr1h, fsr2l, fsr2h, status,2, status,0, tblptrl, tblptrh, tblptru, prodl, prodh, cstack
  3655 ;; Tracked objects:
  3656 ;;		On entry : 0/0
  3657 ;;		On exit  : 0/0
  3658 ;;		Unchanged: 0/0
  3659 ;; Data sizes:     COMRAM   BANK0   BANK1   BANK2   BANK3   BANK4   BANK5   BANK6   BANK7
  3660 ;;      Params:         0       6       0       0       0       0       0       0       0
  3661 ;;      Locals:         2       0       0       0       0       0       0       0       0
  3662 ;;      Temps:          0       0       0       0       0       0       0       0       0
  3663 ;;      Totals:         2       6       0       0       0       0       0       0       0
  3664 ;;Total ram usage:        8 bytes
  3665 ;; Hardware stack levels used:    1
  3666 ;; Hardware stack levels required when called:    6
  3667 ;; This function calls:
  3668 ;;		_vfpfcnvrt
  3669 ;; This function is called by:
  3670 ;;		_sprintf
  3671 ;; This function uses a non-reentrant model
  3672 ;;
  3673                           
  3674                           	psect	text11
  3675  005CA0                     __ptext11:
  3676                           	opt callstack 0
  3677  005CA0                     _vfprintf:
  3678                           	opt callstack 23
  3679  005CA0                     
  3680                           ;/opt/microchip/xc8/v2.10/pic/sources/c99/common/doprnt.c: 1368: int vfprintf(FILE *fp, 
      +                          const char *fmt, va_list ap);/opt/microchip/xc8/v2.10/pic/sources/c99/common/doprnt.c: 1
      +                          369: {;/opt/microchip/xc8/v2.10/pic/sources/c99/common/doprnt.c: 1371:     char *cfmt;;/
      +                          opt/microchip/xc8/v2.10/pic/sources/c99/common/doprnt.c: 1373:     cfmt = (char *)fmt;
  3681  005CA0  C0B4  F05D         	movff	vfprintf@fmt,vfprintf@cfmt
  3682  005CA4  C0B5  F05E         	movff	vfprintf@fmt+1,vfprintf@cfmt+1
  3683  005CA8                     
  3684                           ;/opt/microchip/xc8/v2.10/pic/sources/c99/common/doprnt.c: 1374:     nout = 0;
  3685  005CA8  0E00               	movlw	0
  3686  005CAA  0100               	movlb	0	; () banked
  3687  005CAC  6FF7               	movwf	(_nout+1)& (0+255),b
  3688  005CAE  0E00               	movlw	0
  3689  005CB0  6FF6               	movwf	_nout& (0+255),b
  3690                           
  3691                           ;/opt/microchip/xc8/v2.10/pic/sources/c99/common/doprnt.c: 1375:     while (*cfmt) {
  3692  005CB2  EF6E  F02E         	goto	l5619
  3693  005CB6                     l5617:
  3694                           
  3695                           ; BSR set to: 0
  3696                           ;/opt/microchip/xc8/v2.10/pic/sources/c99/common/doprnt.c: 1376:         nout += vfpfcnv
      +                          rt(fp, &cfmt, ap);
  3697  005CB6  C0B2  F057         	movff	vfprintf@fp,vfpfcnvrt@fp
  3698  005CBA  C0B3  F058         	movff	vfprintf@fp+1,vfpfcnvrt@fp+1
  3699  005CBE  0E5D               	movlw	low vfprintf@cfmt
  3700  005CC0  6E59               	movwf	vfpfcnvrt@fmt^0,c
  3701  005CC2  0E00               	movlw	high vfprintf@cfmt
  3702  005CC4  6E5A               	movwf	(vfpfcnvrt@fmt+1)^0,c
  3703  005CC6  C0B6  F05B         	movff	vfprintf@ap,vfpfcnvrt@ap
  3704  005CCA  C0B7  F05C         	movff	vfprintf@ap+1,vfpfcnvrt@ap+1
  3705  005CCE  ECDB  F012         	call	_vfpfcnvrt	;wreg free
  3706  005CD2  5057               	movf	?_vfpfcnvrt^0,w,c
  3707  005CD4  0100               	movlb	0	; () banked
  3708  005CD6  27F6               	addwf	_nout& (0+255),f,b
  3709  005CD8  5058               	movf	(?_vfpfcnvrt+1)^0,w,c
  3710  005CDA  23F7               	addwfc	(_nout+1)& (0+255),f,b
  3711  005CDC                     l5619:
  3712                           
  3713                           ; BSR set to: 0
  3714                           ;/opt/microchip/xc8/v2.10/pic/sources/c99/common/doprnt.c: 1375:     while (*cfmt) {
  3715  005CDC  C05D  FFF6         	movff	vfprintf@cfmt,tblptrl
  3716  005CE0  C05E  FFF7         	movff	vfprintf@cfmt+1,tblptrh
  3717  005CE4                     	if	0	;tblptru may be non-zero
  3718  005CE4                     	endif
  3719  005CE4                     	if	0	;tblptru may be non-zero
  3720  005CE4                     	endif
  3721  005CE4  0008               	tblrd		*
  3722  005CE6  50F5               	movf	tablat,w,c
  3723  005CE8  0900               	iorlw	0
  3724  005CEA  A4D8               	btfss	status,2,c
  3725  005CEC  EF7A  F02E         	goto	u7291
  3726  005CF0  EF7C  F02E         	goto	u7290
  3727  005CF4                     u7291:
  3728  005CF4  EF5B  F02E         	goto	l5617
  3729  005CF8                     u7290:
  3730  005CF8                     
  3731                           ; BSR set to: 0
  3732                           ;/opt/microchip/xc8/v2.10/pic/sources/c99/common/doprnt.c: 1378:     return nout;
  3733  005CF8  C0F6  F0B2         	movff	_nout,?_vfprintf
  3734  005CFC  C0F7  F0B3         	movff	_nout+1,?_vfprintf+1
  3735  005D00                     
  3736                           ; BSR set to: 0
  3737  005D00  0012               	return		;funcret
  3738  005D02                     __end_of_vfprintf:
  3739                           	opt callstack 0
  3740                           
  3741 ;; *************** function _vfpfcnvrt *****************
  3742 ;; Defined at:
  3743 ;;		line 670 in file "/opt/microchip/xc8/v2.10/pic/sources/c99/common/doprnt.c"
  3744 ;; Parameters:    Size  Location     Type
  3745 ;;  fp              2   86[COMRAM] PTR struct _IO_FILE
  3746 ;;		 -> sprintf@f(6), 
  3747 ;;  fmt             2   88[COMRAM] PTR PTR unsigned char 
  3748 ;;		 -> vfprintf@cfmt(2), 
  3749 ;;  ap              2   90[COMRAM] PTR PTR void 
  3750 ;;		 -> sprintf@ap(2), 
  3751 ;; Auto vars:     Size  Location     Type
  3752 ;;  ll              8   60[BANK0 ] long long 
  3753 ;;  llu             8    0        unsigned long long 
  3754 ;;  f               4   74[BANK0 ] unsigned long long 
  3755 ;;  ct              3   78[BANK0 ] unsigned char [3]
  3756 ;;  vp              3    0        PTR void 
  3757 ;;  cp              2   68[BANK0 ] PTR unsigned char 
  3758 ;;		 -> ?_sprintf(2), main@bufferFecha(20), main@longitudMostrar(4), main@horaCompleta(9), 
  3759 ;;  i               2    0        int 
  3760 ;;  done            2    0        int 
  3761 ;;  c               1   81[BANK0 ] unsigned char 
  3762 ;; Return value:  Size  Location     Type
  3763 ;;                  2   86[COMRAM] int 
  3764 ;; Registers used:
  3765 ;;		wreg, fsr1l, fsr1h, fsr2l, fsr2h, status,2, status,0, tblptrl, tblptrh, tblptru, prodl, prodh, cstack
  3766 ;; Tracked objects:
  3767 ;;		On entry : 0/0
  3768 ;;		On exit  : 0/0
  3769 ;;		Unchanged: 0/0
  3770 ;; Data sizes:     COMRAM   BANK0   BANK1   BANK2   BANK3   BANK4   BANK5   BANK6   BANK7
  3771 ;;      Params:         6       0       0       0       0       0       0       0       0
  3772 ;;      Locals:         0      22       0       0       0       0       0       0       0
  3773 ;;      Temps:          0       4       0       0       0       0       0       0       0
  3774 ;;      Totals:         6      26       0       0       0       0       0       0       0
  3775 ;;Total ram usage:       32 bytes
  3776 ;; Hardware stack levels used:    1
  3777 ;; Hardware stack levels required when called:    5
  3778 ;; This function calls:
  3779 ;;		_atoi
  3780 ;;		_ctoa
  3781 ;;		_dtoa
  3782 ;;		_efgtoa
  3783 ;;		_fputc
  3784 ;;		_isdigit
  3785 ;;		_isupper
  3786 ;;		_stoa
  3787 ;;		_strncmp
  3788 ;;		_tolower
  3789 ;; This function is called by:
  3790 ;;		_vfprintf
  3791 ;; This function uses a non-reentrant model
  3792 ;;
  3793                           
  3794                           	psect	text12
  3795  0025B6                     __ptext12:
  3796                           	opt callstack 0
  3797  0025B6                     _vfpfcnvrt:
  3798                           	opt callstack 23
  3799  0025B6                     
  3800                           ;/opt/microchip/xc8/v2.10/pic/sources/c99/common/doprnt.c: 670: static int vfpfcnvrt(FIL
      +                          E *fp, char *fmt[], va_list ap);/opt/microchip/xc8/v2.10/pic/sources/c99/common/doprnt.c
      +                          : 671: {;/opt/microchip/xc8/v2.10/pic/sources/c99/common/doprnt.c: 672:     char c, *cp,
      +                           ct[3];;/opt/microchip/xc8/v2.10/pic/sources/c99/common/doprnt.c: 673:     int done, i;;
      +                          /opt/microchip/xc8/v2.10/pic/sources/c99/common/doprnt.c: 674:     long long ll;;/opt/mi
      +                          crochip/xc8/v2.10/pic/sources/c99/common/doprnt.c: 675:     unsigned long long llu;
  3801  0025B6  C059  FFD9         	movff	vfpfcnvrt@fmt,fsr2l
  3802  0025BA  C05A  FFDA         	movff	vfpfcnvrt@fmt+1,fsr2h
  3803  0025BE  CFDE FFF6          	movff	postinc2,tblptrl
  3804  0025C2  CFDD FFF7          	movff	postdec2,tblptrh
  3805  0025C6                     	if	0	;tblptru may be non-zero
  3806  0025C6                     	endif
  3807  0025C6                     	if	0	;tblptru may be non-zero
  3808  0025C6                     	endif
  3809  0025C6  0008               	tblrd		*
  3810  0025C8  50F5               	movf	tablat,w,c
  3811  0025CA  0A25               	xorlw	37
  3812  0025CC  A4D8               	btfss	status,2,c
  3813  0025CE  EFEB  F012         	goto	u6941
  3814  0025D2  EFED  F012         	goto	u6940
  3815  0025D6                     u6941:
  3816  0025D6  EFCE  F015         	goto	l5491
  3817  0025DA                     u6940:
  3818  0025DA                     
  3819                           ;/opt/microchip/xc8/v2.10/pic/sources/c99/common/doprnt.c: 681:         ++*fmt;
  3820  0025DA  C059  FFD9         	movff	vfpfcnvrt@fmt,fsr2l
  3821  0025DE  C05A  FFDA         	movff	vfpfcnvrt@fmt+1,fsr2h
  3822  0025E2  2ADE               	incf	postinc2,f,c
  3823  0025E4  0E00               	movlw	0
  3824  0025E6  22DD               	addwfc	postdec2,f,c
  3825  0025E8                     
  3826                           ;/opt/microchip/xc8/v2.10/pic/sources/c99/common/doprnt.c: 683:         flags = width = 
      +                          0;
  3827  0025E8  0E00               	movlw	0
  3828  0025EA  0100               	movlb	0	; () banked
  3829  0025EC  6FF9               	movwf	(_width+1)& (0+255),b
  3830  0025EE  0E00               	movlw	0
  3831  0025F0  6FF8               	movwf	_width& (0+255),b
  3832  0025F2  C0F8  F0FC         	movff	_width,_flags
  3833  0025F6  C0F9  F0FD         	movff	_width+1,_flags+1
  3834  0025FA                     
  3835                           ; BSR set to: 0
  3836                           ;/opt/microchip/xc8/v2.10/pic/sources/c99/common/doprnt.c: 684:         prec = -1;
  3837  0025FA  69FA               	setf	_prec& (0+255),b
  3838  0025FC  69FB               	setf	(_prec+1)& (0+255),b
  3839  0025FE                     
  3840                           ; BSR set to: 0
  3841                           ;/opt/microchip/xc8/v2.10/pic/sources/c99/common/doprnt.c: 740:         if ((*fmt)[0] ==
      +                           '.') {
  3842  0025FE  C059  FFD9         	movff	vfpfcnvrt@fmt,fsr2l
  3843  002602  C05A  FFDA         	movff	vfpfcnvrt@fmt+1,fsr2h
  3844  002606  CFDE FFF6          	movff	postinc2,tblptrl
  3845  00260A  CFDD FFF7          	movff	postdec2,tblptrh
  3846  00260E                     	if	0	;tblptru may be non-zero
  3847  00260E                     	endif
  3848  00260E                     	if	0	;tblptru may be non-zero
  3849  00260E                     	endif
  3850  00260E  0008               	tblrd		*
  3851  002610  50F5               	movf	tablat,w,c
  3852  002612  0A2E               	xorlw	46
  3853  002614  A4D8               	btfss	status,2,c
  3854  002616  EF0F  F013         	goto	u6951
  3855  00261A  EF11  F013         	goto	u6950
  3856  00261E                     u6951:
  3857  00261E  EF8F  F013         	goto	l5411
  3858  002622                     u6950:
  3859  002622                     
  3860                           ; BSR set to: 0
  3861                           ;/opt/microchip/xc8/v2.10/pic/sources/c99/common/doprnt.c: 741:             prec = 0;
  3862  002622  0E00               	movlw	0
  3863  002624  6FFB               	movwf	(_prec+1)& (0+255),b
  3864  002626  0E00               	movlw	0
  3865  002628  6FFA               	movwf	_prec& (0+255),b
  3866  00262A                     
  3867                           ; BSR set to: 0
  3868                           ;/opt/microchip/xc8/v2.10/pic/sources/c99/common/doprnt.c: 742:             ++*fmt;
  3869  00262A  C059  FFD9         	movff	vfpfcnvrt@fmt,fsr2l
  3870  00262E  C05A  FFDA         	movff	vfpfcnvrt@fmt+1,fsr2h
  3871  002632  2ADE               	incf	postinc2,f,c
  3872  002634  0E00               	movlw	0
  3873  002636  22DD               	addwfc	postdec2,f,c
  3874  002638                     
  3875                           ; BSR set to: 0
  3876                           ;/opt/microchip/xc8/v2.10/pic/sources/c99/common/doprnt.c: 743:             if ((*fmt)[0
      +                          ] == '*') {
  3877  002638  C059  FFD9         	movff	vfpfcnvrt@fmt,fsr2l
  3878  00263C  C05A  FFDA         	movff	vfpfcnvrt@fmt+1,fsr2h
  3879  002640  CFDE FFF6          	movff	postinc2,tblptrl
  3880  002644  CFDD FFF7          	movff	postdec2,tblptrh
  3881  002648                     	if	0	;tblptru may be non-zero
  3882  002648                     	endif
  3883  002648                     	if	0	;tblptru may be non-zero
  3884  002648                     	endif
  3885  002648  0008               	tblrd		*
  3886  00264A  50F5               	movf	tablat,w,c
  3887  00264C  0A2A               	xorlw	42
  3888  00264E  A4D8               	btfss	status,2,c
  3889  002650  EF2C  F013         	goto	u6961
  3890  002654  EF2E  F013         	goto	u6960
  3891  002658                     u6961:
  3892  002658  EF4B  F013         	goto	l5401
  3893  00265C                     u6960:
  3894  00265C                     
  3895                           ; BSR set to: 0
  3896                           ;/opt/microchip/xc8/v2.10/pic/sources/c99/common/doprnt.c: 744:                 ++*fmt;
  3897  00265C  C059  FFD9         	movff	vfpfcnvrt@fmt,fsr2l
  3898  002660  C05A  FFDA         	movff	vfpfcnvrt@fmt+1,fsr2h
  3899  002664  2ADE               	incf	postinc2,f,c
  3900  002666  0E00               	movlw	0
  3901  002668  22DD               	addwfc	postdec2,f,c
  3902                           
  3903                           ;/opt/microchip/xc8/v2.10/pic/sources/c99/common/doprnt.c: 745:                 prec = (
      +                          *(int *)__va_arg(*(int **)ap, (int)0));
  3904  00266A  C05B  FFD9         	movff	vfpfcnvrt@ap,fsr2l
  3905  00266E  C05C  FFDA         	movff	vfpfcnvrt@ap+1,fsr2h
  3906  002672  CFDF F098          	movff	indf2,??_vfpfcnvrt
  3907  002676  0E02               	movlw	2
  3908  002678  26DE               	addwf	postinc2,f,c
  3909  00267A  CFDF F099          	movff	indf2,??_vfpfcnvrt+1
  3910  00267E  0E00               	movlw	0
  3911  002680  22DD               	addwfc	postdec2,f,c
  3912  002682  C098  FFD9         	movff	??_vfpfcnvrt,fsr2l
  3913  002686  C099  FFDA         	movff	??_vfpfcnvrt+1,fsr2h
  3914  00268A  CFDE F0FA          	movff	postinc2,_prec
  3915  00268E  CFDD F0FB          	movff	postdec2,_prec+1
  3916                           
  3917                           ;/opt/microchip/xc8/v2.10/pic/sources/c99/common/doprnt.c: 746:             } else {
  3918  002692  EF8F  F013         	goto	l5411
  3919  002696                     l5401:
  3920                           
  3921                           ; BSR set to: 0
  3922                           ;/opt/microchip/xc8/v2.10/pic/sources/c99/common/doprnt.c: 747:                 prec = a
      +                          toi(*fmt);
  3923  002696  C059  FFD9         	movff	vfpfcnvrt@fmt,fsr2l
  3924  00269A  C05A  FFDA         	movff	vfpfcnvrt@fmt+1,fsr2h
  3925  00269E  CFDE F008          	movff	postinc2,atoi@s
  3926  0026A2  CFDD F009          	movff	postdec2,atoi@s+1
  3927  0026A6  EC3F  F023         	call	_atoi	;wreg free
  3928  0026AA  C008  F0FA         	movff	?_atoi,_prec
  3929  0026AE  C009  F0FB         	movff	?_atoi+1,_prec+1
  3930                           
  3931                           ;/opt/microchip/xc8/v2.10/pic/sources/c99/common/doprnt.c: 748:                 while ((
      +                          0 ? isdigit((*fmt)[0]) : ((unsigned)((*fmt)[0])-'0') < 10)) {
  3932  0026B2  EF62  F013         	goto	l5405
  3933  0026B6                     l5403:
  3934                           
  3935                           ; BSR set to: 0
  3936                           ;/opt/microchip/xc8/v2.10/pic/sources/c99/common/doprnt.c: 749:                     ++*f
      +                          mt;
  3937  0026B6  C059  FFD9         	movff	vfpfcnvrt@fmt,fsr2l
  3938  0026BA  C05A  FFDA         	movff	vfpfcnvrt@fmt+1,fsr2h
  3939  0026BE  2ADE               	incf	postinc2,f,c
  3940  0026C0  0E00               	movlw	0
  3941  0026C2  22DD               	addwfc	postdec2,f,c
  3942  0026C4                     l5405:
  3943  0026C4  0ED0               	movlw	208
  3944  0026C6  0100               	movlb	0	; () banked
  3945  0026C8  6F98               	movwf	??_vfpfcnvrt& (0+255),b
  3946  0026CA  0EFF               	movlw	255
  3947  0026CC  6F99               	movwf	(??_vfpfcnvrt+1)& (0+255),b
  3948  0026CE  C059  FFD9         	movff	vfpfcnvrt@fmt,fsr2l
  3949  0026D2  C05A  FFDA         	movff	vfpfcnvrt@fmt+1,fsr2h
  3950  0026D6  CFDE FFF6          	movff	postinc2,tblptrl
  3951  0026DA  CFDD FFF7          	movff	postdec2,tblptrh
  3952  0026DE                     	if	0	;tblptru may be non-zero
  3953  0026DE                     	endif
  3954  0026DE                     	if	0	;tblptru may be non-zero
  3955  0026DE                     	endif
  3956  0026DE  0008               	tblrd		*
  3957  0026E0  50F5               	movf	tablat,w,c
  3958  0026E2  6F9A               	movwf	(??_vfpfcnvrt+2)& (0+255),b
  3959  0026E4  6B9B               	clrf	(??_vfpfcnvrt+3)& (0+255),b
  3960  0026E6  5198               	movf	??_vfpfcnvrt& (0+255),w,b
  3961  0026E8  279A               	addwf	(??_vfpfcnvrt+2)& (0+255),f,b
  3962  0026EA  5199               	movf	(??_vfpfcnvrt+1)& (0+255),w,b
  3963  0026EC  239B               	addwfc	(??_vfpfcnvrt+3)& (0+255),f,b
  3964  0026EE  519B               	movf	(??_vfpfcnvrt+3)& (0+255),w,b
  3965  0026F0  E10A               	bnz	u6970
  3966  0026F2  0E0A               	movlw	10
  3967  0026F4  5D9A               	subwf	(??_vfpfcnvrt+2)& (0+255),w,b
  3968  0026F6  A0D8               	btfss	status,0,c
  3969  0026F8  EF80  F013         	goto	u6971
  3970  0026FC  EF83  F013         	goto	u6970
  3971  002700                     u6971:
  3972  002700  0E01               	movlw	1
  3973  002702  EF84  F013         	goto	u6980
  3974  002706                     u6970:
  3975  002706  0E00               	movlw	0
  3976  002708                     u6980:
  3977  002708  6FA6               	movwf	_vfpfcnvrt$665& (0+255),b
  3978  00270A  6BA7               	clrf	(_vfpfcnvrt$665+1)& (0+255),b
  3979  00270C                     
  3980                           ; BSR set to: 0
  3981  00270C  51A6               	movf	_vfpfcnvrt$665& (0+255),w,b
  3982  00270E  11A7               	iorwf	(_vfpfcnvrt$665+1)& (0+255),w,b
  3983  002710  A4D8               	btfss	status,2,c
  3984  002712  EF8D  F013         	goto	u6991
  3985  002716  EF8F  F013         	goto	u6990
  3986  00271A                     u6991:
  3987  00271A  EF5B  F013         	goto	l5403
  3988  00271E                     u6990:
  3989  00271E                     l5411:
  3990                           
  3991                           ; BSR set to: 0
  3992                           ;/opt/microchip/xc8/v2.10/pic/sources/c99/common/doprnt.c: 757:         ct[0] = tolower(
      +                          (int)(*fmt)[0]);
  3993  00271E  C059  FFD9         	movff	vfpfcnvrt@fmt,fsr2l
  3994  002722  C05A  FFDA         	movff	vfpfcnvrt@fmt+1,fsr2h
  3995  002726  CFDE FFF6          	movff	postinc2,tblptrl
  3996  00272A  CFDD FFF7          	movff	postdec2,tblptrh
  3997  00272E                     	if	0	;tblptru may be non-zero
  3998  00272E                     	endif
  3999  00272E                     	if	0	;tblptru may be non-zero
  4000  00272E                     	endif
  4001  00272E  0008               	tblrd		*
  4002  002730  50F5               	movf	tablat,w,c
  4003  002732  6E07               	movwf	tolower@c^0,c
  4004  002734  6A08               	clrf	(tolower@c+1)^0,c
  4005  002736  EC81  F02E         	call	_tolower	;wreg free
  4006  00273A  5007               	movf	?_tolower^0,w,c
  4007  00273C  0100               	movlb	0	; () banked
  4008  00273E  6FAE               	movwf	vfpfcnvrt@ct& (0+255),b
  4009  002740                     
  4010                           ; BSR set to: 0
  4011                           ;/opt/microchip/xc8/v2.10/pic/sources/c99/common/doprnt.c: 758:         if (ct[0]) {
  4012  002740  51AE               	movf	vfpfcnvrt@ct& (0+255),w,b
  4013  002742  B4D8               	btfsc	status,2,c
  4014  002744  EFA6  F013         	goto	u7001
  4015  002748  EFA8  F013         	goto	u7000
  4016  00274C                     u7001:
  4017  00274C  EFE2  F013         	goto	l5421
  4018  002750                     u7000:
  4019  002750                     
  4020                           ; BSR set to: 0
  4021                           ;/opt/microchip/xc8/v2.10/pic/sources/c99/common/doprnt.c: 759:             ct[1] = tolo
      +                          wer((int)(*fmt)[1]);
  4022  002750  C059  FFD9         	movff	vfpfcnvrt@fmt,fsr2l
  4023  002754  C05A  FFDA         	movff	vfpfcnvrt@fmt+1,fsr2h
  4024  002758  CFDE F098          	movff	postinc2,??_vfpfcnvrt
  4025  00275C  CFDD F099          	movff	postdec2,??_vfpfcnvrt+1
  4026  002760  0E01               	movlw	1
  4027  002762  2798               	addwf	??_vfpfcnvrt& (0+255),f,b
  4028  002764  0E00               	movlw	0
  4029  002766  2399               	addwfc	(??_vfpfcnvrt+1)& (0+255),f,b
  4030  002768  C098  FFF6         	movff	??_vfpfcnvrt,tblptrl
  4031  00276C  C099  FFF7         	movff	??_vfpfcnvrt+1,tblptrh
  4032  002770                     	if	0	;tblptru may be non-zero
  4033  002770                     	endif
  4034  002770                     	if	0	;tblptru may be non-zero
  4035  002770                     	endif
  4036  002770  0008               	tblrd		*
  4037  002772  50F5               	movf	tablat,w,c
  4038  002774  6E07               	movwf	tolower@c^0,c
  4039  002776  6A08               	clrf	(tolower@c+1)^0,c
  4040  002778  EC81  F02E         	call	_tolower	;wreg free
  4041  00277C  5007               	movf	?_tolower^0,w,c
  4042  00277E  0100               	movlb	0	; () banked
  4043  002780  6FAF               	movwf	(vfpfcnvrt@ct+1)& (0+255),b
  4044  002782                     
  4045                           ; BSR set to: 0
  4046                           ;/opt/microchip/xc8/v2.10/pic/sources/c99/common/doprnt.c: 760:             if (ct[1]) {
  4047  002782  51AF               	movf	(vfpfcnvrt@ct+1)& (0+255),w,b
  4048  002784  B4D8               	btfsc	status,2,c
  4049  002786  EFC7  F013         	goto	u7011
  4050  00278A  EFC9  F013         	goto	u7010
  4051  00278E                     u7011:
  4052  00278E  EFE2  F013         	goto	l5421
  4053  002792                     u7010:
  4054  002792                     
  4055                           ; BSR set to: 0
  4056                           ;/opt/microchip/xc8/v2.10/pic/sources/c99/common/doprnt.c: 761:                 ct[2] = 
      +                          tolower((int)(*fmt)[2]);
  4057  002792  C059  FFD9         	movff	vfpfcnvrt@fmt,fsr2l
  4058  002796  C05A  FFDA         	movff	vfpfcnvrt@fmt+1,fsr2h
  4059  00279A  CFDE F098          	movff	postinc2,??_vfpfcnvrt
  4060  00279E  CFDD F099          	movff	postdec2,??_vfpfcnvrt+1
  4061  0027A2  0E02               	movlw	2
  4062  0027A4  2798               	addwf	??_vfpfcnvrt& (0+255),f,b
  4063  0027A6  0E00               	movlw	0
  4064  0027A8  2399               	addwfc	(??_vfpfcnvrt+1)& (0+255),f,b
  4065  0027AA  C098  FFF6         	movff	??_vfpfcnvrt,tblptrl
  4066  0027AE  C099  FFF7         	movff	??_vfpfcnvrt+1,tblptrh
  4067  0027B2                     	if	0	;tblptru may be non-zero
  4068  0027B2                     	endif
  4069  0027B2                     	if	0	;tblptru may be non-zero
  4070  0027B2                     	endif
  4071  0027B2  0008               	tblrd		*
  4072  0027B4  50F5               	movf	tablat,w,c
  4073  0027B6  6E07               	movwf	tolower@c^0,c
  4074  0027B8  6A08               	clrf	(tolower@c+1)^0,c
  4075  0027BA  EC81  F02E         	call	_tolower	;wreg free
  4076  0027BE  5007               	movf	?_tolower^0,w,c
  4077  0027C0  0100               	movlb	0	; () banked
  4078  0027C2  6FB0               	movwf	(vfpfcnvrt@ct+2)& (0+255),b
  4079  0027C4                     l5421:
  4080                           
  4081                           ; BSR set to: 0
  4082                           ;/opt/microchip/xc8/v2.10/pic/sources/c99/common/doprnt.c: 792:         if (*fmt[0] == '
      +                          c') {
  4083  0027C4  C059  FFD9         	movff	vfpfcnvrt@fmt,fsr2l
  4084  0027C8  C05A  FFDA         	movff	vfpfcnvrt@fmt+1,fsr2h
  4085  0027CC  CFDE FFF6          	movff	postinc2,tblptrl
  4086  0027D0  CFDD FFF7          	movff	postdec2,tblptrh
  4087  0027D4                     	if	0	;tblptru may be non-zero
  4088  0027D4                     	endif
  4089  0027D4                     	if	0	;tblptru may be non-zero
  4090  0027D4                     	endif
  4091  0027D4  0008               	tblrd		*
  4092  0027D6  50F5               	movf	tablat,w,c
  4093  0027D8  0A63               	xorlw	99
  4094  0027DA  A4D8               	btfss	status,2,c
  4095  0027DC  EFF2  F013         	goto	u7021
  4096  0027E0  EFF4  F013         	goto	u7020
  4097  0027E4                     u7021:
  4098  0027E4  EF1B  F014         	goto	l5429
  4099  0027E8                     u7020:
  4100  0027E8                     
  4101                           ; BSR set to: 0
  4102                           ;/opt/microchip/xc8/v2.10/pic/sources/c99/common/doprnt.c: 793:             ++*fmt;
  4103  0027E8  C059  FFD9         	movff	vfpfcnvrt@fmt,fsr2l
  4104  0027EC  C05A  FFDA         	movff	vfpfcnvrt@fmt+1,fsr2h
  4105  0027F0  2ADE               	incf	postinc2,f,c
  4106  0027F2  0E00               	movlw	0
  4107  0027F4  22DD               	addwfc	postdec2,f,c
  4108                           
  4109                           ;/opt/microchip/xc8/v2.10/pic/sources/c99/common/doprnt.c: 794:             c = (unsigne
      +                          d char)(*(int *)__va_arg(*(int **)ap, (int)0));
  4110  0027F6  C05B  FFD9         	movff	vfpfcnvrt@ap,fsr2l
  4111  0027FA  C05C  FFDA         	movff	vfpfcnvrt@ap+1,fsr2h
  4112  0027FE  CFDF F098          	movff	indf2,??_vfpfcnvrt
  4113  002802  0E02               	movlw	2
  4114  002804  26DE               	addwf	postinc2,f,c
  4115  002806  CFDF F099          	movff	indf2,??_vfpfcnvrt+1
  4116  00280A  0E00               	movlw	0
  4117  00280C  22DD               	addwfc	postdec2,f,c
  4118  00280E  C098  FFD9         	movff	??_vfpfcnvrt,fsr2l
  4119  002812  C099  FFDA         	movff	??_vfpfcnvrt+1,fsr2h
  4120  002816  50DF               	movf	indf2,w,c
  4121  002818  6FB1               	movwf	vfpfcnvrt@c& (0+255),b
  4122  00281A                     
  4123                           ; BSR set to: 0
  4124                           ;/opt/microchip/xc8/v2.10/pic/sources/c99/common/doprnt.c: 795:             return ctoa(
      +                          fp, c);
  4125  00281A  C057  F01C         	movff	vfpfcnvrt@fp,ctoa@fp
  4126  00281E  C058  F01D         	movff	vfpfcnvrt@fp+1,ctoa@fp+1
  4127  002822  C0B1  F01E         	movff	vfpfcnvrt@c,ctoa@c
  4128  002826  EC0E  F02F         	call	_ctoa	;wreg free
  4129  00282A  C01C  F057         	movff	?_ctoa,?_vfpfcnvrt
  4130  00282E  C01D  F058         	movff	?_ctoa+1,?_vfpfcnvrt+1
  4131  002832  EFE9  F015         	goto	l408
  4132  002836                     l5429:
  4133                           
  4134                           ; BSR set to: 0
  4135                           ;/opt/microchip/xc8/v2.10/pic/sources/c99/common/doprnt.c: 825:         if ((*fmt[0] == 
      +                          'd') || (*fmt[0] == 'i')) {
  4136  002836  C059  FFD9         	movff	vfpfcnvrt@fmt,fsr2l
  4137  00283A  C05A  FFDA         	movff	vfpfcnvrt@fmt+1,fsr2h
  4138  00283E  CFDE FFF6          	movff	postinc2,tblptrl
  4139  002842  CFDD FFF7          	movff	postdec2,tblptrh
  4140  002846                     	if	0	;tblptru may be non-zero
  4141  002846                     	endif
  4142  002846                     	if	0	;tblptru may be non-zero
  4143  002846                     	endif
  4144  002846  0008               	tblrd		*
  4145  002848  50F5               	movf	tablat,w,c
  4146  00284A  0A64               	xorlw	100
  4147  00284C  B4D8               	btfsc	status,2,c
  4148  00284E  EF2B  F014         	goto	u7031
  4149  002852  EF2D  F014         	goto	u7030
  4150  002856                     u7031:
  4151  002856  EF3F  F014         	goto	l5433
  4152  00285A                     u7030:
  4153  00285A                     
  4154                           ; BSR set to: 0
  4155  00285A  C059  FFD9         	movff	vfpfcnvrt@fmt,fsr2l
  4156  00285E  C05A  FFDA         	movff	vfpfcnvrt@fmt+1,fsr2h
  4157  002862  CFDE FFF6          	movff	postinc2,tblptrl
  4158  002866  CFDD FFF7          	movff	postdec2,tblptrh
  4159  00286A                     	if	0	;tblptru may be non-zero
  4160  00286A                     	endif
  4161  00286A                     	if	0	;tblptru may be non-zero
  4162  00286A                     	endif
  4163  00286A  0008               	tblrd		*
  4164  00286C  50F5               	movf	tablat,w,c
  4165  00286E  0A69               	xorlw	105
  4166  002870  A4D8               	btfss	status,2,c
  4167  002872  EF3D  F014         	goto	u7041
  4168  002876  EF3F  F014         	goto	u7040
  4169  00287A                     u7041:
  4170  00287A  EF7F  F014         	goto	l5439
  4171  00287E                     u7040:
  4172  00287E                     l5433:
  4173                           
  4174                           ; BSR set to: 0
  4175                           ;/opt/microchip/xc8/v2.10/pic/sources/c99/common/doprnt.c: 827:             ++*fmt;
  4176  00287E  C059  FFD9         	movff	vfpfcnvrt@fmt,fsr2l
  4177  002882  C05A  FFDA         	movff	vfpfcnvrt@fmt+1,fsr2h
  4178  002886  2ADE               	incf	postinc2,f,c
  4179  002888  0E00               	movlw	0
  4180  00288A  22DD               	addwfc	postdec2,f,c
  4181                           
  4182                           ;/opt/microchip/xc8/v2.10/pic/sources/c99/common/doprnt.c: 828:             ll = (long l
      +                          ong)(*(int *)__va_arg(*(int **)ap, (int)0));
  4183  00288C  C05B  FFD9         	movff	vfpfcnvrt@ap,fsr2l
  4184  002890  C05C  FFDA         	movff	vfpfcnvrt@ap+1,fsr2h
  4185  002894  CFDF F098          	movff	indf2,??_vfpfcnvrt
  4186  002898  0E02               	movlw	2
  4187  00289A  26DE               	addwf	postinc2,f,c
  4188  00289C  CFDF F099          	movff	indf2,??_vfpfcnvrt+1
  4189  0028A0  0E00               	movlw	0
  4190  0028A2  22DD               	addwfc	postdec2,f,c
  4191  0028A4  C098  FFD9         	movff	??_vfpfcnvrt,fsr2l
  4192  0028A8  C099  FFDA         	movff	??_vfpfcnvrt+1,fsr2h
  4193  0028AC  CFDE F09C          	movff	postinc2,vfpfcnvrt@ll
  4194  0028B0  CFDD F09D          	movff	postdec2,vfpfcnvrt@ll+1
  4195  0028B4  0E00               	movlw	0
  4196  0028B6  BF9D               	btfsc	(vfpfcnvrt@ll+1)& (0+255),7,b
  4197  0028B8  0EFF               	movlw	-1
  4198  0028BA  6F9E               	movwf	(vfpfcnvrt@ll+2)& (0+255),b
  4199  0028BC  6F9F               	movwf	(vfpfcnvrt@ll+3)& (0+255),b
  4200  0028BE  6FA0               	movwf	(vfpfcnvrt@ll+4)& (0+255),b
  4201  0028C0  6FA1               	movwf	(vfpfcnvrt@ll+5)& (0+255),b
  4202  0028C2  6FA2               	movwf	(vfpfcnvrt@ll+6)& (0+255),b
  4203  0028C4  6FA3               	movwf	(vfpfcnvrt@ll+7)& (0+255),b
  4204  0028C6                     
  4205                           ; BSR set to: 0
  4206                           ;/opt/microchip/xc8/v2.10/pic/sources/c99/common/doprnt.c: 830:             return dtoa(
      +                          fp, ll);
  4207  0028C6  C057  F01C         	movff	vfpfcnvrt@fp,dtoa@fp
  4208  0028CA  C058  F01D         	movff	vfpfcnvrt@fp+1,dtoa@fp+1
  4209  0028CE  C09C  F01E         	movff	vfpfcnvrt@ll,dtoa@d
  4210  0028D2  C09D  F01F         	movff	vfpfcnvrt@ll+1,dtoa@d+1
  4211  0028D6  C09E  F020         	movff	vfpfcnvrt@ll+2,dtoa@d+2
  4212  0028DA  C09F  F021         	movff	vfpfcnvrt@ll+3,dtoa@d+3
  4213  0028DE  C0A0  F022         	movff	vfpfcnvrt@ll+4,dtoa@d+4
  4214  0028E2  C0A1  F023         	movff	vfpfcnvrt@ll+5,dtoa@d+5
  4215  0028E6  C0A2  F024         	movff	vfpfcnvrt@ll+6,dtoa@d+6
  4216  0028EA  C0A3  F025         	movff	vfpfcnvrt@ll+7,dtoa@d+7
  4217  0028EE  EC7A  F01E         	call	_dtoa	;wreg free
  4218  0028F2  C01C  F057         	movff	?_dtoa,?_vfpfcnvrt
  4219  0028F6  C01D  F058         	movff	?_dtoa+1,?_vfpfcnvrt+1
  4220  0028FA  EFE9  F015         	goto	l408
  4221  0028FE                     l5439:
  4222                           
  4223                           ; BSR set to: 0
  4224                           ;/opt/microchip/xc8/v2.10/pic/sources/c99/common/doprnt.c: 920:         if (ct[0] == 'f'
      +                          ) {
  4225  0028FE  0E66               	movlw	102
  4226  002900  19AE               	xorwf	vfpfcnvrt@ct& (0+255),w,b
  4227  002902  A4D8               	btfss	status,2,c
  4228  002904  EF86  F014         	goto	u7051
  4229  002908  EF88  F014         	goto	u7050
  4230  00290C                     u7051:
  4231  00290C  EFC8  F014         	goto	l5451
  4232  002910                     u7050:
  4233  002910                     
  4234                           ; BSR set to: 0
  4235                           ;/opt/microchip/xc8/v2.10/pic/sources/c99/common/doprnt.c: 922:             c = (*fmt)[0
      +                          ];
  4236  002910  C059  FFD9         	movff	vfpfcnvrt@fmt,fsr2l
  4237  002914  C05A  FFDA         	movff	vfpfcnvrt@fmt+1,fsr2h
  4238  002918  CFDE FFF6          	movff	postinc2,tblptrl
  4239  00291C  CFDD FFF7          	movff	postdec2,tblptrh
  4240  002920                     	if	0	;tblptru may be non-zero
  4241  002920                     	endif
  4242  002920                     	if	0	;tblptru may be non-zero
  4243  002920                     	endif
  4244  002920  0008               	tblrd		*
  4245  002922  CFF5 F0B1          	movff	tablat,vfpfcnvrt@c
  4246  002926                     
  4247                           ; BSR set to: 0
  4248                           ;/opt/microchip/xc8/v2.10/pic/sources/c99/common/doprnt.c: 923:             ++*fmt;
  4249  002926  C059  FFD9         	movff	vfpfcnvrt@fmt,fsr2l
  4250  00292A  C05A  FFDA         	movff	vfpfcnvrt@fmt+1,fsr2h
  4251  00292E  2ADE               	incf	postinc2,f,c
  4252  002930  0E00               	movlw	0
  4253  002932  22DD               	addwfc	postdec2,f,c
  4254  002934                     
  4255                           ; BSR set to: 0
  4256                           ;/opt/microchip/xc8/v2.10/pic/sources/c99/common/doprnt.c: 924:             f = (long do
      +                          uble)(*(double *)__va_arg(*(double **)ap, (double)0));
  4257  002934  C05B  FFD9         	movff	vfpfcnvrt@ap,fsr2l
  4258  002938  C05C  FFDA         	movff	vfpfcnvrt@ap+1,fsr2h
  4259  00293C  CFDF F098          	movff	indf2,??_vfpfcnvrt
  4260  002940  0E04               	movlw	4
  4261  002942  26DE               	addwf	postinc2,f,c
  4262  002944  CFDF F099          	movff	indf2,??_vfpfcnvrt+1
  4263  002948  0E00               	movlw	0
  4264  00294A  22DD               	addwfc	postdec2,f,c
  4265  00294C  C098  FFD9         	movff	??_vfpfcnvrt,fsr2l
  4266  002950  C099  FFDA         	movff	??_vfpfcnvrt+1,fsr2h
  4267  002954  CFDE F0AA          	movff	postinc2,vfpfcnvrt@f
  4268  002958  CFDE F0AB          	movff	postinc2,vfpfcnvrt@f+1
  4269  00295C  CFDE F0AC          	movff	postinc2,vfpfcnvrt@f+2
  4270  002960  CFDE F0AD          	movff	postinc2,vfpfcnvrt@f+3
  4271  002964                     l5447:
  4272                           
  4273                           ; BSR set to: 0
  4274                           ;/opt/microchip/xc8/v2.10/pic/sources/c99/common/doprnt.c: 926:             return efgto
      +                          a(fp, f, c);
  4275  002964  C057  F04B         	movff	vfpfcnvrt@fp,efgtoa@fp
  4276  002968  C058  F04C         	movff	vfpfcnvrt@fp+1,efgtoa@fp+1
  4277  00296C  C0AA  F04D         	movff	vfpfcnvrt@f,efgtoa@f
  4278  002970  C0AB  F04E         	movff	vfpfcnvrt@f+1,efgtoa@f+1
  4279  002974  C0AC  F04F         	movff	vfpfcnvrt@f+2,efgtoa@f+2
  4280  002978  C0AD  F050         	movff	vfpfcnvrt@f+3,efgtoa@f+3
  4281  00297C  C0B1  F051         	movff	vfpfcnvrt@c,efgtoa@c
  4282  002980  EC03  F00D         	call	_efgtoa	;wreg free
  4283  002984  C04B  F057         	movff	?_efgtoa,?_vfpfcnvrt
  4284  002988  C04C  F058         	movff	?_efgtoa+1,?_vfpfcnvrt+1
  4285  00298C  EFE9  F015         	goto	l408
  4286  002990                     l5451:
  4287                           
  4288                           ; BSR set to: 0
  4289                           ;/opt/microchip/xc8/v2.10/pic/sources/c99/common/doprnt.c: 928:         if (!strncmp(ct,
      +                           "lf", ((sizeof("lf")/sizeof("lf"[0]))-1))) {
  4290  002990  0EAE               	movlw	low vfpfcnvrt@ct
  4291  002992  6E01               	movwf	strncmp@_l^0,c
  4292  002994  0E00               	movlw	high vfpfcnvrt@ct
  4293  002996  6E02               	movwf	(strncmp@_l+1)^0,c
  4294  002998  0EA8               	movlw	low STR_22
  4295  00299A  6E03               	movwf	strncmp@_r^0,c
  4296  00299C  0E08               	movlw	high STR_22
  4297  00299E  6E04               	movwf	(strncmp@_r+1)^0,c
  4298  0029A0  0E00               	movlw	0
  4299  0029A2  6E06               	movwf	(strncmp@n+1)^0,c
  4300  0029A4  0E02               	movlw	2
  4301  0029A6  6E05               	movwf	strncmp@n^0,c
  4302  0029A8  ECC0  F029         	call	_strncmp	;wreg free
  4303  0029AC  5001               	movf	?_strncmp^0,w,c
  4304  0029AE  1002               	iorwf	(?_strncmp+1)^0,w,c
  4305  0029B0  A4D8               	btfss	status,2,c
  4306  0029B2  EFDD  F014         	goto	u7061
  4307  0029B6  EFDF  F014         	goto	u7060
  4308  0029BA                     u7061:
  4309  0029BA  EF5B  F015         	goto	l5467
  4310  0029BE                     u7060:
  4311  0029BE                     
  4312                           ;/opt/microchip/xc8/v2.10/pic/sources/c99/common/doprnt.c: 931:             if ((0 ? isu
      +                          pper((int)(*fmt)[0]) : ((unsigned)((int)(*fmt)[0])-'A') < 26)) {
  4313  0029BE  C059  FFD9         	movff	vfpfcnvrt@fmt,fsr2l
  4314  0029C2  C05A  FFDA         	movff	vfpfcnvrt@fmt+1,fsr2h
  4315  0029C6  CFDE F098          	movff	postinc2,??_vfpfcnvrt
  4316  0029CA  CFDD F099          	movff	postdec2,??_vfpfcnvrt+1
  4317  0029CE  0E01               	movlw	1
  4318  0029D0  0100               	movlb	0	; () banked
  4319  0029D2  2798               	addwf	??_vfpfcnvrt& (0+255),f,b
  4320  0029D4  0E00               	movlw	0
  4321  0029D6  2399               	addwfc	(??_vfpfcnvrt+1)& (0+255),f,b
  4322  0029D8  C098  FFF6         	movff	??_vfpfcnvrt,tblptrl
  4323  0029DC  C099  FFF7         	movff	??_vfpfcnvrt+1,tblptrh
  4324  0029E0                     	if	0	;tblptru may be non-zero
  4325  0029E0                     	endif
  4326  0029E0                     	if	0	;tblptru may be non-zero
  4327  0029E0                     	endif
  4328  0029E0  0008               	tblrd		*
  4329  0029E2  CFF5 F0B1          	movff	tablat,vfpfcnvrt@c
  4330  0029E6  0EBF               	movlw	191
  4331  0029E8  6F98               	movwf	??_vfpfcnvrt& (0+255),b
  4332  0029EA  0EFF               	movlw	255
  4333  0029EC  6F99               	movwf	(??_vfpfcnvrt+1)& (0+255),b
  4334  0029EE  C059  FFD9         	movff	vfpfcnvrt@fmt,fsr2l
  4335  0029F2  C05A  FFDA         	movff	vfpfcnvrt@fmt+1,fsr2h
  4336  0029F6  CFDE FFF6          	movff	postinc2,tblptrl
  4337  0029FA  CFDD FFF7          	movff	postdec2,tblptrh
  4338  0029FE                     	if	0	;tblptru may be non-zero
  4339  0029FE                     	endif
  4340  0029FE                     	if	0	;tblptru may be non-zero
  4341  0029FE                     	endif
  4342  0029FE  0008               	tblrd		*
  4343  002A00  50F5               	movf	tablat,w,c
  4344  002A02  6F9A               	movwf	(??_vfpfcnvrt+2)& (0+255),b
  4345  002A04  6B9B               	clrf	(??_vfpfcnvrt+3)& (0+255),b
  4346  002A06  5198               	movf	??_vfpfcnvrt& (0+255),w,b
  4347  002A08  279A               	addwf	(??_vfpfcnvrt+2)& (0+255),f,b
  4348  002A0A  5199               	movf	(??_vfpfcnvrt+1)& (0+255),w,b
  4349  002A0C  239B               	addwfc	(??_vfpfcnvrt+3)& (0+255),f,b
  4350  002A0E  519B               	movf	(??_vfpfcnvrt+3)& (0+255),w,b
  4351  002A10  E10A               	bnz	u7070
  4352  002A12  0E1A               	movlw	26
  4353  002A14  5D9A               	subwf	(??_vfpfcnvrt+2)& (0+255),w,b
  4354  002A16  A0D8               	btfss	status,0,c
  4355  002A18  EF10  F015         	goto	u7071
  4356  002A1C  EF13  F015         	goto	u7070
  4357  002A20                     u7071:
  4358  002A20  0E01               	movlw	1
  4359  002A22  EF14  F015         	goto	u7080
  4360  002A26                     u7070:
  4361  002A26  0E00               	movlw	0
  4362  002A28                     u7080:
  4363  002A28  6FA8               	movwf	_vfpfcnvrt$671& (0+255),b
  4364  002A2A  6BA9               	clrf	(_vfpfcnvrt$671+1)& (0+255),b
  4365  002A2C                     
  4366                           ; BSR set to: 0
  4367  002A2C  51A8               	movf	_vfpfcnvrt$671& (0+255),w,b
  4368  002A2E  11A9               	iorwf	(_vfpfcnvrt$671+1)& (0+255),w,b
  4369  002A30  B4D8               	btfsc	status,2,c
  4370  002A32  EF1D  F015         	goto	u7091
  4371  002A36  EF1F  F015         	goto	u7090
  4372  002A3A                     u7091:
  4373  002A3A  EF39  F015         	goto	l5461
  4374  002A3E                     u7090:
  4375  002A3E                     
  4376                           ; BSR set to: 0
  4377                           ;/opt/microchip/xc8/v2.10/pic/sources/c99/common/doprnt.c: 932:                 f = (*(l
      +                          ong double *)__va_arg(*(long double **)ap, (long double)0));
  4378  002A3E  C05B  FFD9         	movff	vfpfcnvrt@ap,fsr2l
  4379  002A42  C05C  FFDA         	movff	vfpfcnvrt@ap+1,fsr2h
  4380  002A46  CFDF F098          	movff	indf2,??_vfpfcnvrt
  4381  002A4A  0E04               	movlw	4
  4382  002A4C  26DE               	addwf	postinc2,f,c
  4383  002A4E  CFDF F099          	movff	indf2,??_vfpfcnvrt+1
  4384  002A52  0E00               	movlw	0
  4385  002A54  22DD               	addwfc	postdec2,f,c
  4386  002A56  C098  FFD9         	movff	??_vfpfcnvrt,fsr2l
  4387  002A5A  C099  FFDA         	movff	??_vfpfcnvrt+1,fsr2h
  4388  002A5E  CFDE F0AA          	movff	postinc2,vfpfcnvrt@f
  4389  002A62  CFDE F0AB          	movff	postinc2,vfpfcnvrt@f+1
  4390  002A66  CFDE F0AC          	movff	postinc2,vfpfcnvrt@f+2
  4391  002A6A  CFDE F0AD          	movff	postinc2,vfpfcnvrt@f+3
  4392                           
  4393                           ;/opt/microchip/xc8/v2.10/pic/sources/c99/common/doprnt.c: 933:             } else {
  4394  002A6E  EF51  F015         	goto	l419
  4395  002A72                     l5461:
  4396                           
  4397                           ; BSR set to: 0
  4398                           ;/opt/microchip/xc8/v2.10/pic/sources/c99/common/doprnt.c: 934:                 f = (lon
      +                          g double)(*(double *)__va_arg(*(double **)ap, (double)0));
  4399  002A72  C05B  FFD9         	movff	vfpfcnvrt@ap,fsr2l
  4400  002A76  C05C  FFDA         	movff	vfpfcnvrt@ap+1,fsr2h
  4401  002A7A  CFDF F098          	movff	indf2,??_vfpfcnvrt
  4402  002A7E  0E04               	movlw	4
  4403  002A80  26DE               	addwf	postinc2,f,c
  4404  002A82  CFDF F099          	movff	indf2,??_vfpfcnvrt+1
  4405  002A86  0E00               	movlw	0
  4406  002A88  22DD               	addwfc	postdec2,f,c
  4407  002A8A  C098  FFD9         	movff	??_vfpfcnvrt,fsr2l
  4408  002A8E  C099  FFDA         	movff	??_vfpfcnvrt+1,fsr2h
  4409  002A92  CFDE F0AA          	movff	postinc2,vfpfcnvrt@f
  4410  002A96  CFDE F0AB          	movff	postinc2,vfpfcnvrt@f+1
  4411  002A9A  CFDE F0AC          	movff	postinc2,vfpfcnvrt@f+2
  4412  002A9E  CFDE F0AD          	movff	postinc2,vfpfcnvrt@f+3
  4413  002AA2                     l419:
  4414                           
  4415                           ; BSR set to: 0
  4416                           ;/opt/microchip/xc8/v2.10/pic/sources/c99/common/doprnt.c: 936:             *fmt += ((si
      +                          zeof("lf")/sizeof("lf"[0]))-1);
  4417  002AA2  0E02               	movlw	2
  4418  002AA4  C059  FFD9         	movff	vfpfcnvrt@fmt,fsr2l
  4419  002AA8  C05A  FFDA         	movff	vfpfcnvrt@fmt+1,fsr2h
  4420  002AAC  26DE               	addwf	postinc2,f,c
  4421  002AAE  0E00               	movlw	0
  4422  002AB0  22DD               	addwfc	postdec2,f,c
  4423  002AB2  EFB2  F014         	goto	l5447
  4424  002AB6                     l5467:
  4425                           
  4426                           ;/opt/microchip/xc8/v2.10/pic/sources/c99/common/doprnt.c: 1149:         if (*fmt[0] == 
      +                          's') {
  4427  002AB6  C059  FFD9         	movff	vfpfcnvrt@fmt,fsr2l
  4428  002ABA  C05A  FFDA         	movff	vfpfcnvrt@fmt+1,fsr2h
  4429  002ABE  CFDE FFF6          	movff	postinc2,tblptrl
  4430  002AC2  CFDD FFF7          	movff	postdec2,tblptrh
  4431  002AC6                     	if	0	;tblptru may be non-zero
  4432  002AC6                     	endif
  4433  002AC6                     	if	0	;tblptru may be non-zero
  4434  002AC6                     	endif
  4435  002AC6  0008               	tblrd		*
  4436  002AC8  50F5               	movf	tablat,w,c
  4437  002ACA  0A73               	xorlw	115
  4438  002ACC  A4D8               	btfss	status,2,c
  4439  002ACE  EF6B  F015         	goto	u7101
  4440  002AD2  EF6D  F015         	goto	u7100
  4441  002AD6                     u7101:
  4442  002AD6  EF98  F015         	goto	l5475
  4443  002ADA                     u7100:
  4444  002ADA                     
  4445                           ;/opt/microchip/xc8/v2.10/pic/sources/c99/common/doprnt.c: 1151:             ++*fmt;
  4446  002ADA  C059  FFD9         	movff	vfpfcnvrt@fmt,fsr2l
  4447  002ADE  C05A  FFDA         	movff	vfpfcnvrt@fmt+1,fsr2h
  4448  002AE2  2ADE               	incf	postinc2,f,c
  4449  002AE4  0E00               	movlw	0
  4450  002AE6  22DD               	addwfc	postdec2,f,c
  4451                           
  4452                           ;/opt/microchip/xc8/v2.10/pic/sources/c99/common/doprnt.c: 1152:             cp = (*(cha
      +                          r * *)__va_arg(*(char * **)ap, (char *)0));
  4453  002AE8  C05B  FFD9         	movff	vfpfcnvrt@ap,fsr2l
  4454  002AEC  C05C  FFDA         	movff	vfpfcnvrt@ap+1,fsr2h
  4455  002AF0  CFDF F098          	movff	indf2,??_vfpfcnvrt
  4456  002AF4  0E02               	movlw	2
  4457  002AF6  26DE               	addwf	postinc2,f,c
  4458  002AF8  CFDF F099          	movff	indf2,??_vfpfcnvrt+1
  4459  002AFC  0E00               	movlw	0
  4460  002AFE  22DD               	addwfc	postdec2,f,c
  4461  002B00  C098  FFD9         	movff	??_vfpfcnvrt,fsr2l
  4462  002B04  C099  FFDA         	movff	??_vfpfcnvrt+1,fsr2h
  4463  002B08  CFDE F0A4          	movff	postinc2,vfpfcnvrt@cp
  4464  002B0C  CFDD F0A5          	movff	postdec2,vfpfcnvrt@cp+1
  4465  002B10                     
  4466                           ;/opt/microchip/xc8/v2.10/pic/sources/c99/common/doprnt.c: 1154:             return stoa
      +                          (fp, cp);
  4467  002B10  C057  F00A         	movff	vfpfcnvrt@fp,stoa@fp
  4468  002B14  C058  F00B         	movff	vfpfcnvrt@fp+1,stoa@fp+1
  4469  002B18  C0A4  F00C         	movff	vfpfcnvrt@cp,stoa@s
  4470  002B1C  C0A5  F00D         	movff	vfpfcnvrt@cp+1,stoa@s+1
  4471  002B20  EC92  F025         	call	_stoa	;wreg free
  4472  002B24  C00A  F057         	movff	?_stoa,?_vfpfcnvrt
  4473  002B28  C00B  F058         	movff	?_stoa+1,?_vfpfcnvrt+1
  4474  002B2C  EFE9  F015         	goto	l408
  4475  002B30                     l5475:
  4476                           
  4477                           ;/opt/microchip/xc8/v2.10/pic/sources/c99/common/doprnt.c: 1350:         if ((*fmt)[0] =
      +                          = '%') {
  4478  002B30  C059  FFD9         	movff	vfpfcnvrt@fmt,fsr2l
  4479  002B34  C05A  FFDA         	movff	vfpfcnvrt@fmt+1,fsr2h
  4480  002B38  CFDE FFF6          	movff	postinc2,tblptrl
  4481  002B3C  CFDD FFF7          	movff	postdec2,tblptrh
  4482  002B40                     	if	0	;tblptru may be non-zero
  4483  002B40                     	endif
  4484  002B40                     	if	0	;tblptru may be non-zero
  4485  002B40                     	endif
  4486  002B40  0008               	tblrd		*
  4487  002B42  50F5               	movf	tablat,w,c
  4488  002B44  0A25               	xorlw	37
  4489  002B46  A4D8               	btfss	status,2,c
  4490  002B48  EFA8  F015         	goto	u7111
  4491  002B4C  EFAA  F015         	goto	u7110
  4492  002B50                     u7111:
  4493  002B50  EFC1  F015         	goto	l5485
  4494  002B54                     u7110:
  4495  002B54                     
  4496                           ;/opt/microchip/xc8/v2.10/pic/sources/c99/common/doprnt.c: 1351:             ++*fmt;
  4497  002B54  C059  FFD9         	movff	vfpfcnvrt@fmt,fsr2l
  4498  002B58  C05A  FFDA         	movff	vfpfcnvrt@fmt+1,fsr2h
  4499  002B5C  2ADE               	incf	postinc2,f,c
  4500  002B5E  0E00               	movlw	0
  4501  002B60  22DD               	addwfc	postdec2,f,c
  4502  002B62                     
  4503                           ;/opt/microchip/xc8/v2.10/pic/sources/c99/common/doprnt.c: 1352:             fputc((int)
      +                          '%', fp);
  4504  002B62  0E00               	movlw	0
  4505  002B64  6E02               	movwf	(fputc@c+1)^0,c
  4506  002B66  0E25               	movlw	37
  4507  002B68  6E01               	movwf	fputc@c^0,c
  4508  002B6A  C057  F003         	movff	vfpfcnvrt@fp,fputc@fp
  4509  002B6E  C058  F004         	movff	vfpfcnvrt@fp+1,fputc@fp+1
  4510  002B72  EC95  F02A         	call	_fputc	;wreg free
  4511  002B76                     l5481:
  4512                           
  4513                           ;/opt/microchip/xc8/v2.10/pic/sources/c99/common/doprnt.c: 1353:             return 1;
  4514  002B76  0E00               	movlw	0
  4515  002B78  6E58               	movwf	(?_vfpfcnvrt+1)^0,c
  4516  002B7A  0E01               	movlw	1
  4517  002B7C  6E57               	movwf	?_vfpfcnvrt^0,c
  4518  002B7E  EFE9  F015         	goto	l408
  4519  002B82                     l5485:
  4520                           
  4521                           ;/opt/microchip/xc8/v2.10/pic/sources/c99/common/doprnt.c: 1357:         ++*fmt;
  4522  002B82  C059  FFD9         	movff	vfpfcnvrt@fmt,fsr2l
  4523  002B86  C05A  FFDA         	movff	vfpfcnvrt@fmt+1,fsr2h
  4524  002B8A  2ADE               	incf	postinc2,f,c
  4525  002B8C  0E00               	movlw	0
  4526  002B8E  22DD               	addwfc	postdec2,f,c
  4527  002B90                     
  4528                           ;/opt/microchip/xc8/v2.10/pic/sources/c99/common/doprnt.c: 1358:         return 0;
  4529  002B90  0E00               	movlw	0
  4530  002B92  6E58               	movwf	(?_vfpfcnvrt+1)^0,c
  4531  002B94  0E00               	movlw	0
  4532  002B96  6E57               	movwf	?_vfpfcnvrt^0,c
  4533  002B98  EFE9  F015         	goto	l408
  4534  002B9C                     l5491:
  4535                           
  4536                           ;/opt/microchip/xc8/v2.10/pic/sources/c99/common/doprnt.c: 1362:     fputc((int)(*fmt)[0
      +                          ], fp);
  4537  002B9C  C059  FFD9         	movff	vfpfcnvrt@fmt,fsr2l
  4538  002BA0  C05A  FFDA         	movff	vfpfcnvrt@fmt+1,fsr2h
  4539  002BA4  CFDE FFF6          	movff	postinc2,tblptrl
  4540  002BA8  CFDD FFF7          	movff	postdec2,tblptrh
  4541  002BAC                     	if	0	;tblptru may be non-zero
  4542  002BAC                     	endif
  4543  002BAC                     	if	0	;tblptru may be non-zero
  4544  002BAC                     	endif
  4545  002BAC  0008               	tblrd		*
  4546  002BAE  50F5               	movf	tablat,w,c
  4547  002BB0  6E01               	movwf	fputc@c^0,c
  4548  002BB2  6A02               	clrf	(fputc@c+1)^0,c
  4549  002BB4  C057  F003         	movff	vfpfcnvrt@fp,fputc@fp
  4550  002BB8  C058  F004         	movff	vfpfcnvrt@fp+1,fputc@fp+1
  4551  002BBC  EC95  F02A         	call	_fputc	;wreg free
  4552  002BC0                     
  4553                           ;/opt/microchip/xc8/v2.10/pic/sources/c99/common/doprnt.c: 1363:     ++*fmt;
  4554  002BC0  C059  FFD9         	movff	vfpfcnvrt@fmt,fsr2l
  4555  002BC4  C05A  FFDA         	movff	vfpfcnvrt@fmt+1,fsr2h
  4556  002BC8  2ADE               	incf	postinc2,f,c
  4557  002BCA  0E00               	movlw	0
  4558  002BCC  22DD               	addwfc	postdec2,f,c
  4559  002BCE  EFBB  F015         	goto	l5481
  4560  002BD2                     l408:
  4561  002BD2  0012               	return		;funcret
  4562  002BD4                     __end_of_vfpfcnvrt:
  4563                           	opt callstack 0
  4564                           
  4565 ;; *************** function _strncmp *****************
  4566 ;; Defined at:
  4567 ;;		line 3 in file "/opt/microchip/xc8/v2.10/pic/sources/c99/common/strncmp.c"
  4568 ;; Parameters:    Size  Location     Type
  4569 ;;  _l              2    0[COMRAM] PTR const unsigned char 
  4570 ;;		 -> vfpfcnvrt@ct(3), 
  4571 ;;  _r              2    2[COMRAM] PTR const unsigned char 
  4572 ;;		 -> STR_24(3), 
  4573 ;;  n               2    4[COMRAM] unsigned int 
  4574 ;; Auto vars:     Size  Location     Type
  4575 ;;  r               2    9[COMRAM] PTR const unsigned char 
  4576 ;;		 -> STR_24(3), 
  4577 ;;  l               2    7[COMRAM] PTR const unsigned char 
  4578 ;;		 -> vfpfcnvrt@ct(3), 
  4579 ;; Return value:  Size  Location     Type
  4580 ;;                  2    0[COMRAM] int 
  4581 ;; Registers used:
  4582 ;;		wreg, fsr2l, fsr2h, status,2, status,0, tblptrl, tblptrh, tblptru
  4583 ;; Tracked objects:
  4584 ;;		On entry : 0/0
  4585 ;;		On exit  : 0/0
  4586 ;;		Unchanged: 0/0
  4587 ;; Data sizes:     COMRAM   BANK0   BANK1   BANK2   BANK3   BANK4   BANK5   BANK6   BANK7
  4588 ;;      Params:         6       0       0       0       0       0       0       0       0
  4589 ;;      Locals:         4       0       0       0       0       0       0       0       0
  4590 ;;      Temps:          1       0       0       0       0       0       0       0       0
  4591 ;;      Totals:        11       0       0       0       0       0       0       0       0
  4592 ;;Total ram usage:       11 bytes
  4593 ;; Hardware stack levels used:    1
  4594 ;; This function calls:
  4595 ;;		Nothing
  4596 ;; This function is called by:
  4597 ;;		_vfpfcnvrt
  4598 ;; This function uses a non-reentrant model
  4599 ;;
  4600                           
  4601                           	psect	text13
  4602  005380                     __ptext13:
  4603                           	opt callstack 0
  4604  005380                     _strncmp:
  4605                           	opt callstack 27
  4606  005380  C001  F008         	movff	strncmp@_l,strncmp@l
  4607  005384  C002  F009         	movff	strncmp@_l+1,strncmp@l+1
  4608  005388  C003  F00A         	movff	strncmp@_r,strncmp@r
  4609  00538C  C004  F00B         	movff	strncmp@_r+1,strncmp@r+1
  4610  005390  0605               	decf	strncmp@n^0,f,c
  4611  005392  A0D8               	btfss	status,0,c
  4612  005394  0606               	decf	(strncmp@n+1)^0,f,c
  4613  005396  2805               	incf	strncmp@n^0,w,c
  4614  005398  E106               	bnz	u6831
  4615  00539A  2806               	incf	(strncmp@n+1)^0,w,c
  4616  00539C  A4D8               	btfss	status,2,c
  4617  00539E  EFD3  F029         	goto	u6831
  4618  0053A2  EFD5  F029         	goto	u6830
  4619  0053A6                     u6831:
  4620  0053A6  EFE2  F029         	goto	l5351
  4621  0053AA                     u6830:
  4622  0053AA  0E00               	movlw	0
  4623  0053AC  6E02               	movwf	(?_strncmp+1)^0,c
  4624  0053AE  0E00               	movlw	0
  4625  0053B0  6E01               	movwf	?_strncmp^0,c
  4626  0053B2  EF2A  F02A         	goto	l1229
  4627  0053B6                     l5349:
  4628  0053B6  4A08               	infsnz	strncmp@l^0,f,c
  4629  0053B8  2A09               	incf	(strncmp@l+1)^0,f,c
  4630  0053BA  4A0A               	infsnz	strncmp@r^0,f,c
  4631  0053BC  2A0B               	incf	(strncmp@r+1)^0,f,c
  4632  0053BE  0605               	decf	strncmp@n^0,f,c
  4633  0053C0  A0D8               	btfss	status,0,c
  4634  0053C2  0606               	decf	(strncmp@n+1)^0,f,c
  4635  0053C4                     l5351:
  4636  0053C4  C008  FFD9         	movff	strncmp@l,fsr2l
  4637  0053C8  C009  FFDA         	movff	strncmp@l+1,fsr2h
  4638  0053CC  50DF               	movf	indf2,w,c
  4639  0053CE  B4D8               	btfsc	status,2,c
  4640  0053D0  EFEC  F029         	goto	u6841
  4641  0053D4  EFEE  F029         	goto	u6840
  4642  0053D8                     u6841:
  4643  0053D8  EF19  F02A         	goto	l5359
  4644  0053DC                     u6840:
  4645  0053DC  C00A  FFF6         	movff	strncmp@r,tblptrl
  4646  0053E0  C00B  FFF7         	movff	strncmp@r+1,tblptrh
  4647  0053E4                     	if	0	;tblptru may be non-zero
  4648  0053E4                     	endif
  4649  0053E4                     	if	0	;tblptru may be non-zero
  4650  0053E4                     	endif
  4651  0053E4  0008               	tblrd		*
  4652  0053E6  50F5               	movf	tablat,w,c
  4653  0053E8  0900               	iorlw	0
  4654  0053EA  B4D8               	btfsc	status,2,c
  4655  0053EC  EFFA  F029         	goto	u6851
  4656  0053F0  EFFC  F029         	goto	u6850
  4657  0053F4                     u6851:
  4658  0053F4  EF19  F02A         	goto	l5359
  4659  0053F8                     u6850:
  4660  0053F8  5005               	movf	strncmp@n^0,w,c
  4661  0053FA  1006               	iorwf	(strncmp@n+1)^0,w,c
  4662  0053FC  B4D8               	btfsc	status,2,c
  4663  0053FE  EF03  F02A         	goto	u6861
  4664  005402  EF05  F02A         	goto	u6860
  4665  005406                     u6861:
  4666  005406  EF19  F02A         	goto	l5359
  4667  00540A                     u6860:
  4668  00540A  C008  FFD9         	movff	strncmp@l,fsr2l
  4669  00540E  C009  FFDA         	movff	strncmp@l+1,fsr2h
  4670  005412  50DF               	movf	indf2,w,c
  4671  005414  6E07               	movwf	??_strncmp^0,c
  4672  005416  C00A  FFF6         	movff	strncmp@r,tblptrl
  4673  00541A  C00B  FFF7         	movff	strncmp@r+1,tblptrh
  4674  00541E                     	if	0	;tblptru may be non-zero
  4675  00541E                     	endif
  4676  00541E                     	if	0	;tblptru may be non-zero
  4677  00541E                     	endif
  4678  00541E  0008               	tblrd		*
  4679  005420  50F5               	movf	tablat,w,c
  4680  005422  1807               	xorwf	??_strncmp^0,w,c
  4681  005424  B4D8               	btfsc	status,2,c
  4682  005426  EF17  F02A         	goto	u6871
  4683  00542A  EF19  F02A         	goto	u6870
  4684  00542E                     u6871:
  4685  00542E  EFDB  F029         	goto	l5349
  4686  005432                     u6870:
  4687  005432                     l5359:
  4688  005432  C008  FFD9         	movff	strncmp@l,fsr2l
  4689  005436  C009  FFDA         	movff	strncmp@l+1,fsr2h
  4690  00543A  50DF               	movf	indf2,w,c
  4691  00543C  6E07               	movwf	??_strncmp^0,c
  4692  00543E  C00A  FFF6         	movff	strncmp@r,tblptrl
  4693  005442  C00B  FFF7         	movff	strncmp@r+1,tblptrh
  4694  005446                     	if	0	;tblptru may be non-zero
  4695  005446                     	endif
  4696  005446                     	if	0	;tblptru may be non-zero
  4697  005446                     	endif
  4698  005446  0008               	tblrd		*
  4699  005448  50F5               	movf	tablat,w,c
  4700  00544A  5C07               	subwf	??_strncmp^0,w,c
  4701  00544C  6E01               	movwf	?_strncmp^0,c
  4702  00544E  6A02               	clrf	(?_strncmp+1)^0,c
  4703  005450  A0D8               	btfss	status,0,c
  4704  005452  0602               	decf	(?_strncmp+1)^0,f,c
  4705  005454                     l1229:
  4706  005454  0012               	return		;funcret
  4707  005456                     __end_of_strncmp:
  4708                           	opt callstack 0
  4709                           
  4710 ;; *************** function _stoa *****************
  4711 ;; Defined at:
  4712 ;;		line 546 in file "/opt/microchip/xc8/v2.10/pic/sources/c99/common/doprnt.c"
  4713 ;; Parameters:    Size  Location     Type
  4714 ;;  fp              2    9[COMRAM] PTR struct _IO_FILE
  4715 ;;		 -> sprintf@f(6), 
  4716 ;;  s               2   11[COMRAM] PTR unsigned char 
  4717 ;;		 -> ?_sprintf(2), main@bufferFecha(20), main@longitudMostrar(4), main@horaCompleta(9), 
  4718 ;; Auto vars:     Size  Location     Type
  4719 ;;  nuls            7   14[COMRAM] unsigned char [7]
  4720 ;;  l               2   29[COMRAM] int 
  4721 ;;  p               2   27[COMRAM] int 
  4722 ;;  cp              2   25[COMRAM] PTR unsigned char 
  4723 ;;		 -> ?_sprintf(2), stoa@nuls(7), main@bufferFecha(20), main@longitudMostrar(4), 
  4724 ;;		 -> main@horaCompleta(9), 
  4725 ;;  w               2   23[COMRAM] int 
  4726 ;;  i               2   21[COMRAM] int 
  4727 ;; Return value:  Size  Location     Type
  4728 ;;                  2    9[COMRAM] int 
  4729 ;; Registers used:
  4730 ;;		wreg, fsr1l, fsr1h, fsr2l, fsr2h, status,2, status,0, cstack
  4731 ;; Tracked objects:
  4732 ;;		On entry : 0/0
  4733 ;;		On exit  : 0/0
  4734 ;;		Unchanged: 0/0
  4735 ;; Data sizes:     COMRAM   BANK0   BANK1   BANK2   BANK3   BANK4   BANK5   BANK6   BANK7
  4736 ;;      Params:         4       0       0       0       0       0       0       0       0
  4737 ;;      Locals:        17       0       0       0       0       0       0       0       0
  4738 ;;      Temps:          1       0       0       0       0       0       0       0       0
  4739 ;;      Totals:        22       0       0       0       0       0       0       0       0
  4740 ;;Total ram usage:       22 bytes
  4741 ;; Hardware stack levels used:    1
  4742 ;; Hardware stack levels required when called:    2
  4743 ;; This function calls:
  4744 ;;		_fputc
  4745 ;;		_strlen
  4746 ;; This function is called by:
  4747 ;;		_vfpfcnvrt
  4748 ;; This function uses a non-reentrant model
  4749 ;;
  4750                           
  4751                           	psect	text14
  4752  004B24                     __ptext14:
  4753                           	opt callstack 0
  4754  004B24                     _stoa:
  4755                           	opt callstack 25
  4756  004B24                     
  4757                           ;/opt/microchip/xc8/v2.10/pic/sources/c99/common/doprnt.c: 546: static int stoa(FILE *fp
      +                          , char *s);/opt/microchip/xc8/v2.10/pic/sources/c99/common/doprnt.c: 547: {;/opt/microch
      +                          ip/xc8/v2.10/pic/sources/c99/common/doprnt.c: 548:     char *cp, nuls[] = "(null)";
  4758  004B24  EE21  F0EC         	lfsr	2,stoa@F1166
  4759  004B28  EE10  F00F         	lfsr	1,stoa@nuls
  4760  004B2C  0E06               	movlw	6
  4761  004B2E                     u6671:
  4762  004B2E  CFDB FFE3          	movff	plusw2,plusw1
  4763  004B32  06E8               	decf	wreg,f,c
  4764  004B34  E2FC               	bc	u6671
  4765  004B36                     
  4766                           ;/opt/microchip/xc8/v2.10/pic/sources/c99/common/doprnt.c: 549:     int i, l, p, w;;/opt
      +                          /microchip/xc8/v2.10/pic/sources/c99/common/doprnt.c: 552:     cp = s;
  4767  004B36  C00C  F01A         	movff	stoa@s,stoa@cp
  4768  004B3A  C00D  F01B         	movff	stoa@s+1,stoa@cp+1
  4769  004B3E                     
  4770                           ;/opt/microchip/xc8/v2.10/pic/sources/c99/common/doprnt.c: 553:     if (!cp) {
  4771  004B3E  501A               	movf	stoa@cp^0,w,c
  4772  004B40  101B               	iorwf	(stoa@cp+1)^0,w,c
  4773  004B42  A4D8               	btfss	status,2,c
  4774  004B44  EFA6  F025         	goto	u6681
  4775  004B48  EFA8  F025         	goto	u6680
  4776  004B4C                     u6681:
  4777  004B4C  EFAC  F025         	goto	l5267
  4778  004B50                     u6680:
  4779  004B50                     
  4780                           ;/opt/microchip/xc8/v2.10/pic/sources/c99/common/doprnt.c: 554:         cp = nuls;
  4781  004B50  0E0F               	movlw	low stoa@nuls
  4782  004B52  6E1A               	movwf	stoa@cp^0,c
  4783  004B54  0E00               	movlw	high stoa@nuls
  4784  004B56  6E1B               	movwf	(stoa@cp+1)^0,c
  4785  004B58                     l5267:
  4786                           
  4787                           ;/opt/microchip/xc8/v2.10/pic/sources/c99/common/doprnt.c: 558:     l = strlen(cp);
  4788  004B58  C01A  F001         	movff	stoa@cp,strlen@s
  4789  004B5C  C01B  F002         	movff	stoa@cp+1,strlen@s+1
  4790  004B60  ECD4  F030         	call	_strlen	;wreg free
  4791  004B64  C001  F01E         	movff	?_strlen,stoa@l
  4792  004B68  C002  F01F         	movff	?_strlen+1,stoa@l+1
  4793  004B6C                     
  4794                           ;/opt/microchip/xc8/v2.10/pic/sources/c99/common/doprnt.c: 559:     p = prec;
  4795  004B6C  C0FA  F01C         	movff	_prec,stoa@p
  4796  004B70  C0FB  F01D         	movff	_prec+1,stoa@p+1
  4797  004B74                     
  4798                           ;/opt/microchip/xc8/v2.10/pic/sources/c99/common/doprnt.c: 560:     l = (!(p < 0) && (p 
      +                          < l)) ? p : l;
  4799  004B74  BE1D               	btfsc	(stoa@p+1)^0,7,c
  4800  004B76  EFBF  F025         	goto	u6691
  4801  004B7A  EFC1  F025         	goto	u6690
  4802  004B7E                     u6691:
  4803  004B7E  EFD6  F025         	goto	l377
  4804  004B82                     u6690:
  4805  004B82  501E               	movf	stoa@l^0,w,c
  4806  004B84  5C1C               	subwf	stoa@p^0,w,c
  4807  004B86  501D               	movf	(stoa@p+1)^0,w,c
  4808  004B88  0A80               	xorlw	128
  4809  004B8A  6E0E               	movwf	??_stoa^0,c
  4810  004B8C  501F               	movf	(stoa@l+1)^0,w,c
  4811  004B8E  0A80               	xorlw	128
  4812  004B90  580E               	subwfb	??_stoa^0,w,c
  4813  004B92  A0D8               	btfss	status,0,c
  4814  004B94  EFCE  F025         	goto	u6701
  4815  004B98  EFD0  F025         	goto	u6700
  4816  004B9C                     u6701:
  4817  004B9C  EFD2  F025         	goto	l375
  4818  004BA0                     u6700:
  4819  004BA0  EFD6  F025         	goto	l377
  4820  004BA4                     l375:
  4821  004BA4  C01C  F01E         	movff	stoa@p,stoa@l
  4822  004BA8  C01D  F01F         	movff	stoa@p+1,stoa@l+1
  4823  004BAC                     l377:
  4824                           
  4825                           ;/opt/microchip/xc8/v2.10/pic/sources/c99/common/doprnt.c: 561:     p = l;
  4826  004BAC  C01E  F01C         	movff	stoa@l,stoa@p
  4827  004BB0  C01F  F01D         	movff	stoa@l+1,stoa@p+1
  4828                           
  4829                           ;/opt/microchip/xc8/v2.10/pic/sources/c99/common/doprnt.c: 562:     w = width;
  4830  004BB4  C0F8  F018         	movff	_width,stoa@w
  4831  004BB8  C0F9  F019         	movff	_width+1,stoa@w+1
  4832                           
  4833                           ;/opt/microchip/xc8/v2.10/pic/sources/c99/common/doprnt.c: 565:     if (!(flags & (1 << 
      +                          0))) {
  4834  004BBC  0100               	movlb	0	; () banked
  4835  004BBE  B1FC               	btfsc	_flags& (0+255),0,b
  4836  004BC0  EFE4  F025         	goto	u6711
  4837  004BC4  EFE6  F025         	goto	u6710
  4838  004BC8                     u6711:
  4839  004BC8  EF03  F026         	goto	l5283
  4840  004BCC                     u6710:
  4841  004BCC  EFF4  F025         	goto	l5281
  4842  004BD0                     l5277:
  4843                           
  4844                           ;/opt/microchip/xc8/v2.10/pic/sources/c99/common/doprnt.c: 567:             fputc(' ', f
      +                          p);
  4845  004BD0  0E00               	movlw	0
  4846  004BD2  6E02               	movwf	(fputc@c+1)^0,c
  4847  004BD4  0E20               	movlw	32
  4848  004BD6  6E01               	movwf	fputc@c^0,c
  4849  004BD8  C00A  F003         	movff	stoa@fp,fputc@fp
  4850  004BDC  C00B  F004         	movff	stoa@fp+1,fputc@fp+1
  4851  004BE0  EC95  F02A         	call	_fputc	;wreg free
  4852  004BE4                     
  4853                           ;/opt/microchip/xc8/v2.10/pic/sources/c99/common/doprnt.c: 568:             ++l;
  4854  004BE4  4A1E               	infsnz	stoa@l^0,f,c
  4855  004BE6  2A1F               	incf	(stoa@l+1)^0,f,c
  4856  004BE8                     l5281:
  4857                           
  4858                           ;/opt/microchip/xc8/v2.10/pic/sources/c99/common/doprnt.c: 566:         while (l < w) {
  4859  004BE8  5018               	movf	stoa@w^0,w,c
  4860  004BEA  5C1E               	subwf	stoa@l^0,w,c
  4861  004BEC  501F               	movf	(stoa@l+1)^0,w,c
  4862  004BEE  0A80               	xorlw	128
  4863  004BF0  6E0E               	movwf	??_stoa^0,c
  4864  004BF2  5019               	movf	(stoa@w+1)^0,w,c
  4865  004BF4  0A80               	xorlw	128
  4866  004BF6  580E               	subwfb	??_stoa^0,w,c
  4867  004BF8  A0D8               	btfss	status,0,c
  4868  004BFA  EF01  F026         	goto	u6721
  4869  004BFE  EF03  F026         	goto	u6720
  4870  004C02                     u6721:
  4871  004C02  EFE8  F025         	goto	l5277
  4872  004C06                     u6720:
  4873  004C06                     l5283:
  4874                           
  4875                           ;/opt/microchip/xc8/v2.10/pic/sources/c99/common/doprnt.c: 573:     i = 0;
  4876  004C06  0E00               	movlw	0
  4877  004C08  6E17               	movwf	(stoa@i+1)^0,c
  4878  004C0A  0E00               	movlw	0
  4879  004C0C  6E16               	movwf	stoa@i^0,c
  4880                           
  4881                           ;/opt/microchip/xc8/v2.10/pic/sources/c99/common/doprnt.c: 574:     while (i < p) {
  4882  004C0E  EF1C  F026         	goto	l5291
  4883  004C12                     l5285:
  4884                           
  4885                           ;/opt/microchip/xc8/v2.10/pic/sources/c99/common/doprnt.c: 575:         fputc(*cp, fp);
  4886  004C12  C01A  FFD9         	movff	stoa@cp,fsr2l
  4887  004C16  C01B  FFDA         	movff	stoa@cp+1,fsr2h
  4888  004C1A  50DF               	movf	indf2,w,c
  4889  004C1C  6E0E               	movwf	??_stoa^0,c
  4890  004C1E  500E               	movf	??_stoa^0,w,c
  4891  004C20  6E01               	movwf	fputc@c^0,c
  4892  004C22  6A02               	clrf	(fputc@c+1)^0,c
  4893  004C24  C00A  F003         	movff	stoa@fp,fputc@fp
  4894  004C28  C00B  F004         	movff	stoa@fp+1,fputc@fp+1
  4895  004C2C  EC95  F02A         	call	_fputc	;wreg free
  4896  004C30                     
  4897                           ;/opt/microchip/xc8/v2.10/pic/sources/c99/common/doprnt.c: 576:         ++cp;
  4898  004C30  4A1A               	infsnz	stoa@cp^0,f,c
  4899  004C32  2A1B               	incf	(stoa@cp+1)^0,f,c
  4900  004C34                     
  4901                           ;/opt/microchip/xc8/v2.10/pic/sources/c99/common/doprnt.c: 577:         ++i;
  4902  004C34  4A16               	infsnz	stoa@i^0,f,c
  4903  004C36  2A17               	incf	(stoa@i+1)^0,f,c
  4904  004C38                     l5291:
  4905                           
  4906                           ;/opt/microchip/xc8/v2.10/pic/sources/c99/common/doprnt.c: 574:     while (i < p) {
  4907  004C38  501C               	movf	stoa@p^0,w,c
  4908  004C3A  5C16               	subwf	stoa@i^0,w,c
  4909  004C3C  5017               	movf	(stoa@i+1)^0,w,c
  4910  004C3E  0A80               	xorlw	128
  4911  004C40  6E0E               	movwf	??_stoa^0,c
  4912  004C42  501D               	movf	(stoa@p+1)^0,w,c
  4913  004C44  0A80               	xorlw	128
  4914  004C46  580E               	subwfb	??_stoa^0,w,c
  4915  004C48  A0D8               	btfss	status,0,c
  4916  004C4A  EF29  F026         	goto	u6731
  4917  004C4E  EF2B  F026         	goto	u6730
  4918  004C52                     u6731:
  4919  004C52  EF09  F026         	goto	l5285
  4920  004C56                     u6730:
  4921  004C56                     
  4922                           ;/opt/microchip/xc8/v2.10/pic/sources/c99/common/doprnt.c: 581:     if (flags & (1 << 0)
      +                          ) {
  4923  004C56  0100               	movlb	0	; () banked
  4924  004C58  A1FC               	btfss	_flags& (0+255),0,b
  4925  004C5A  EF31  F026         	goto	u6741
  4926  004C5E  EF33  F026         	goto	u6740
  4927  004C62                     u6741:
  4928  004C62  EF50  F026         	goto	l387
  4929  004C66                     u6740:
  4930  004C66  EF41  F026         	goto	l5299
  4931  004C6A                     l5295:
  4932                           
  4933                           ;/opt/microchip/xc8/v2.10/pic/sources/c99/common/doprnt.c: 583:             fputc(' ', f
      +                          p);
  4934  004C6A  0E00               	movlw	0
  4935  004C6C  6E02               	movwf	(fputc@c+1)^0,c
  4936  004C6E  0E20               	movlw	32
  4937  004C70  6E01               	movwf	fputc@c^0,c
  4938  004C72  C00A  F003         	movff	stoa@fp,fputc@fp
  4939  004C76  C00B  F004         	movff	stoa@fp+1,fputc@fp+1
  4940  004C7A  EC95  F02A         	call	_fputc	;wreg free
  4941  004C7E                     
  4942                           ;/opt/microchip/xc8/v2.10/pic/sources/c99/common/doprnt.c: 584:             ++l;
  4943  004C7E  4A1E               	infsnz	stoa@l^0,f,c
  4944  004C80  2A1F               	incf	(stoa@l+1)^0,f,c
  4945  004C82                     l5299:
  4946                           
  4947                           ;/opt/microchip/xc8/v2.10/pic/sources/c99/common/doprnt.c: 582:         while (l < w) {
  4948  004C82  5018               	movf	stoa@w^0,w,c
  4949  004C84  5C1E               	subwf	stoa@l^0,w,c
  4950  004C86  501F               	movf	(stoa@l+1)^0,w,c
  4951  004C88  0A80               	xorlw	128
  4952  004C8A  6E0E               	movwf	??_stoa^0,c
  4953  004C8C  5019               	movf	(stoa@w+1)^0,w,c
  4954  004C8E  0A80               	xorlw	128
  4955  004C90  580E               	subwfb	??_stoa^0,w,c
  4956  004C92  A0D8               	btfss	status,0,c
  4957  004C94  EF4E  F026         	goto	u6751
  4958  004C98  EF50  F026         	goto	u6750
  4959  004C9C                     u6751:
  4960  004C9C  EF35  F026         	goto	l5295
  4961  004CA0                     u6750:
  4962  004CA0                     l387:
  4963                           
  4964                           ;/opt/microchip/xc8/v2.10/pic/sources/c99/common/doprnt.c: 588:     return l;
  4965  004CA0  C01E  F00A         	movff	stoa@l,?_stoa
  4966  004CA4  C01F  F00B         	movff	stoa@l+1,?_stoa+1
  4967  004CA8  0012               	return		;funcret
  4968  004CAA                     __end_of_stoa:
  4969                           	opt callstack 0
  4970                           
  4971 ;; *************** function _efgtoa *****************
  4972 ;; Defined at:
  4973 ;;		line 319 in file "/opt/microchip/xc8/v2.10/pic/sources/c99/common/doprnt.c"
  4974 ;; Parameters:    Size  Location     Type
  4975 ;;  fp              2   74[COMRAM] PTR struct _IO_FILE
  4976 ;;		 -> sprintf@f(6), 
  4977 ;;  f               4   76[COMRAM] PTR struct _IO_FILE
  4978 ;;  c               1   80[COMRAM] unsigned char 
  4979 ;; Auto vars:     Size  Location     Type
  4980 ;;  u               4   52[BANK0 ] unsigned char 
  4981 ;;  g               4   44[BANK0 ] unsigned char 
  4982 ;;  l               4   38[BANK0 ] unsigned char 
  4983 ;;  h               4   34[BANK0 ] unsigned char 
  4984 ;;  ou              4    0[BANK0 ] unsigned char 
  4985 ;;  n               2   50[BANK0 ] int 
  4986 ;;  e               2   48[BANK0 ] int 
  4987 ;;  i               2   42[BANK0 ] int 
  4988 ;;  w               2   31[BANK0 ] int 
  4989 ;;  p               2   28[BANK0 ] int 
  4990 ;;  sign            2   26[BANK0 ] int 
  4991 ;;  d               2   24[BANK0 ] int 
  4992 ;;  ne              2   22[BANK0 ] int 
  4993 ;;  m               2   20[BANK0 ] int 
  4994 ;;  pp              2   18[BANK0 ] int 
  4995 ;;  t               2   16[BANK0 ] int 
  4996 ;;  mode            1   33[BANK0 ] unsigned char 
  4997 ;;  nmode           1   30[BANK0 ] unsigned char 
  4998 ;; Return value:  Size  Location     Type
  4999 ;;                  2   74[COMRAM] int 
  5000 ;; Registers used:
  5001 ;;		wreg, fsr1l, fsr1h, fsr2l, fsr2h, status,2, status,0, tblptrl, tblptrh, tblptru, prodl, prodh, cstack
  5002 ;; Tracked objects:
  5003 ;;		On entry : 0/0
  5004 ;;		On exit  : 0/0
  5005 ;;		Unchanged: 0/0
  5006 ;; Data sizes:     COMRAM   BANK0   BANK1   BANK2   BANK3   BANK4   BANK5   BANK6   BANK7
  5007 ;;      Params:         7       0       0       0       0       0       0       0       0
  5008 ;;      Locals:         0      56       0       0       0       0       0       0       0
  5009 ;;      Temps:          5       0       0       0       0       0       0       0       0
  5010 ;;      Totals:        12      56       0       0       0       0       0       0       0
  5011 ;;Total ram usage:       68 bytes
  5012 ;; Hardware stack levels used:    1
  5013 ;; Hardware stack levels required when called:    4
  5014 ;; This function calls:
  5015 ;;		___awdiv
  5016 ;;		___awmod
  5017 ;;		___fladd
  5018 ;;		___fldiv
  5019 ;;		___fleq
  5020 ;;		___flge
  5021 ;;		___flmul
  5022 ;;		___flneg
  5023 ;;		___flsub
  5024 ;;		___fltol
  5025 ;;		___fpclassifyf
  5026 ;;		_floorf
  5027 ;;		_isupper
  5028 ;;		_pad
  5029 ;;		_strcpy
  5030 ;;		_tolower
  5031 ;; This function is called by:
  5032 ;;		_vfpfcnvrt
  5033 ;; This function uses a non-reentrant model
  5034 ;;
  5035                           
  5036                           	psect	text15
  5037  001A06                     __ptext15:
  5038                           	opt callstack 0
  5039  001A06                     _efgtoa:
  5040                           	opt callstack 23
  5041  001A06                     
  5042                           ;/opt/microchip/xc8/v2.10/pic/sources/c99/common/doprnt.c: 319: static int efgtoa(FILE *
      +                          fp, long double f, char c);/opt/microchip/xc8/v2.10/pic/sources/c99/common/doprnt.c: 320
      +                          : {;/opt/microchip/xc8/v2.10/pic/sources/c99/common/doprnt.c: 321:     char mode, nmode;
      +                          ;/opt/microchip/xc8/v2.10/pic/sources/c99/common/doprnt.c: 322:     int d, e, i, m, n, n
      +                          e, p, pp, sign, t, w;;/opt/microchip/xc8/v2.10/pic/sources/c99/common/doprnt.c: 323:    
      +                           long double g, h, l, ou, u;;/opt/microchip/xc8/v2.10/pic/sources/c99/common/doprnt.c: 3
      +                          26:     sign = 0;
  5043  001A06  0E00               	movlw	0
  5044  001A08  0100               	movlb	0	; () banked
  5045  001A0A  6F7B               	movwf	(efgtoa@sign+1)& (0+255),b
  5046  001A0C  0E00               	movlw	0
  5047  001A0E  6F7A               	movwf	efgtoa@sign& (0+255),b
  5048  001A10                     
  5049                           ; BSR set to: 0
  5050                           ;/opt/microchip/xc8/v2.10/pic/sources/c99/common/doprnt.c: 327:     g = f;
  5051  001A10  C04D  F08C         	movff	efgtoa@f,efgtoa@g
  5052  001A14  C04E  F08D         	movff	efgtoa@f+1,efgtoa@g+1
  5053  001A18  C04F  F08E         	movff	efgtoa@f+2,efgtoa@g+2
  5054  001A1C  C050  F08F         	movff	efgtoa@f+3,efgtoa@g+3
  5055  001A20                     
  5056                           ; BSR set to: 0
  5057                           ;/opt/microchip/xc8/v2.10/pic/sources/c99/common/doprnt.c: 328:     if (g < 0.0) {
  5058  001A20  BF8F               	btfsc	(efgtoa@g+3)& (0+255),7,b
  5059  001A22  EF17  F00D         	goto	u6150
  5060  001A26  EF15  F00D         	goto	u6151
  5061  001A2A                     u6151:
  5062  001A2A  EF2D  F00D         	goto	l4971
  5063  001A2E                     u6150:
  5064  001A2E                     
  5065                           ; BSR set to: 0
  5066                           ;/opt/microchip/xc8/v2.10/pic/sources/c99/common/doprnt.c: 329:         sign = 1;
  5067  001A2E  0E00               	movlw	0
  5068  001A30  6F7B               	movwf	(efgtoa@sign+1)& (0+255),b
  5069  001A32  0E01               	movlw	1
  5070  001A34  6F7A               	movwf	efgtoa@sign& (0+255),b
  5071  001A36                     
  5072                           ; BSR set to: 0
  5073                           ;/opt/microchip/xc8/v2.10/pic/sources/c99/common/doprnt.c: 330:         g = -g;
  5074  001A36  C08C  F001         	movff	efgtoa@g,___flneg@f1
  5075  001A3A  C08D  F002         	movff	efgtoa@g+1,___flneg@f1+1
  5076  001A3E  C08E  F003         	movff	efgtoa@g+2,___flneg@f1+2
  5077  001A42  C08F  F004         	movff	efgtoa@g+3,___flneg@f1+3
  5078  001A46  ECB8  F030         	call	___flneg	;wreg free
  5079  001A4A  C001  F08C         	movff	?___flneg,efgtoa@g
  5080  001A4E  C002  F08D         	movff	?___flneg+1,efgtoa@g+1
  5081  001A52  C003  F08E         	movff	?___flneg+2,efgtoa@g+2
  5082  001A56  C004  F08F         	movff	?___flneg+3,efgtoa@g+3
  5083  001A5A                     l4971:
  5084                           
  5085                           ;/opt/microchip/xc8/v2.10/pic/sources/c99/common/doprnt.c: 334:     n = 0;
  5086  001A5A  0E00               	movlw	0
  5087  001A5C  0100               	movlb	0	; () banked
  5088  001A5E  6F93               	movwf	(efgtoa@n+1)& (0+255),b
  5089  001A60  0E00               	movlw	0
  5090  001A62  6F92               	movwf	efgtoa@n& (0+255),b
  5091  001A64                     
  5092                           ; BSR set to: 0
  5093                           ;/opt/microchip/xc8/v2.10/pic/sources/c99/common/doprnt.c: 335:     w = width;
  5094  001A64  C0F8  F07F         	movff	_width,efgtoa@w
  5095  001A68  C0F9  F080         	movff	_width+1,efgtoa@w+1
  5096  001A6C                     
  5097                           ; BSR set to: 0
  5098                           ;/opt/microchip/xc8/v2.10/pic/sources/c99/common/doprnt.c: 336:     if (sign || (flags &
      +                           (1 << 2))) {
  5099  001A6C  517A               	movf	efgtoa@sign& (0+255),w,b
  5100  001A6E  117B               	iorwf	(efgtoa@sign+1)& (0+255),w,b
  5101  001A70  A4D8               	btfss	status,2,c
  5102  001A72  EF3D  F00D         	goto	u6161
  5103  001A76  EF3F  F00D         	goto	u6160
  5104  001A7A                     u6161:
  5105  001A7A  EF46  F00D         	goto	l4979
  5106  001A7E                     u6160:
  5107  001A7E                     
  5108                           ; BSR set to: 0
  5109  001A7E  A5FC               	btfss	_flags& (0+255),2,b
  5110  001A80  EF44  F00D         	goto	u6171
  5111  001A84  EF46  F00D         	goto	u6170
  5112  001A88                     u6171:
  5113  001A88  EF60  F00D         	goto	l4991
  5114  001A8C                     u6170:
  5115  001A8C                     l4979:
  5116                           
  5117                           ; BSR set to: 0
  5118                           ;/opt/microchip/xc8/v2.10/pic/sources/c99/common/doprnt.c: 337:         dbuf[n] = sign ?
      +                           '-' : '+';
  5119  001A8C  517A               	movf	efgtoa@sign& (0+255),w,b
  5120  001A8E  117B               	iorwf	(efgtoa@sign+1)& (0+255),w,b
  5121  001A90  A4D8               	btfss	status,2,c
  5122  001A92  EF4D  F00D         	goto	u6181
  5123  001A96  EF4F  F00D         	goto	u6180
  5124  001A9A                     u6181:
  5125  001A9A  EF55  F00D         	goto	l4983
  5126  001A9E                     u6180:
  5127  001A9E                     
  5128                           ; BSR set to: 0
  5129  001A9E  0E00               	movlw	0
  5130  001AA0  6F65               	movwf	(_efgtoa$629+1)& (0+255),b
  5131  001AA2  0E2B               	movlw	43
  5132  001AA4  6F64               	movwf	_efgtoa$629& (0+255),b
  5133  001AA6  EF59  F00D         	goto	l4985
  5134  001AAA                     l4983:
  5135                           
  5136                           ; BSR set to: 0
  5137  001AAA  0E00               	movlw	0
  5138  001AAC  6F65               	movwf	(_efgtoa$629+1)& (0+255),b
  5139  001AAE  0E2D               	movlw	45
  5140  001AB0  6F64               	movwf	_efgtoa$629& (0+255),b
  5141  001AB2                     l4985:
  5142                           
  5143                           ; BSR set to: 0
  5144  001AB2  C064  F200         	movff	_efgtoa$629,_dbuf
  5145  001AB6                     
  5146                           ; BSR set to: 0
  5147                           ;/opt/microchip/xc8/v2.10/pic/sources/c99/common/doprnt.c: 338:         ++n;
  5148  001AB6  4B92               	infsnz	efgtoa@n& (0+255),f,b
  5149  001AB8  2B93               	incf	(efgtoa@n+1)& (0+255),f,b
  5150  001ABA                     
  5151                           ; BSR set to: 0
  5152                           ;/opt/microchip/xc8/v2.10/pic/sources/c99/common/doprnt.c: 339:         --w;
  5153  001ABA  077F               	decf	efgtoa@w& (0+255),f,b
  5154  001ABC  A0D8               	btfss	status,0,c
  5155  001ABE  0780               	decf	(efgtoa@w+1)& (0+255),f,b
  5156  001AC0                     l4991:
  5157                           
  5158                           ; BSR set to: 0
  5159                           ;/opt/microchip/xc8/v2.10/pic/sources/c99/common/doprnt.c: 344:         if ((0 ? isupper
      +                          ((int)c) : ((unsigned)((int)c)-'A') < 26)) {
  5160  001AC0  C08C  F001         	movff	efgtoa@g,___fpclassifyf@x
  5161  001AC4  C08D  F002         	movff	efgtoa@g+1,___fpclassifyf@x+1
  5162  001AC8  C08E  F003         	movff	efgtoa@g+2,___fpclassifyf@x+2
  5163  001ACC  C08F  F004         	movff	efgtoa@g+3,___fpclassifyf@x+3
  5164  001AD0  EC41  F029         	call	___fpclassifyf	;wreg free
  5165  001AD4  0401               	decf	?___fpclassifyf^0,w,c
  5166  001AD6  1002               	iorwf	(?___fpclassifyf+1)^0,w,c
  5167  001AD8  A4D8               	btfss	status,2,c
  5168  001ADA  EF71  F00D         	goto	u6191
  5169  001ADE  EF73  F00D         	goto	u6190
  5170  001AE2                     u6191:
  5171  001AE2  EFCA  F00D         	goto	l5009
  5172  001AE6                     u6190:
  5173  001AE6  0EBF               	movlw	191
  5174  001AE8  6E52               	movwf	??_efgtoa^0,c
  5175  001AEA  0EFF               	movlw	255
  5176  001AEC  6E53               	movwf	(??_efgtoa+1)^0,c
  5177  001AEE  5051               	movf	efgtoa@c^0,w,c
  5178  001AF0  6E54               	movwf	(??_efgtoa+2)^0,c
  5179  001AF2  6A55               	clrf	(??_efgtoa+3)^0,c
  5180  001AF4  5052               	movf	??_efgtoa^0,w,c
  5181  001AF6  2654               	addwf	(??_efgtoa+2)^0,f,c
  5182  001AF8  5053               	movf	(??_efgtoa+1)^0,w,c
  5183  001AFA  2255               	addwfc	(??_efgtoa+3)^0,f,c
  5184  001AFC  5055               	movf	(??_efgtoa+3)^0,w,c
  5185  001AFE  E10A               	bnz	u6200
  5186  001B00  0E1A               	movlw	26
  5187  001B02  5C54               	subwf	(??_efgtoa+2)^0,w,c
  5188  001B04  A0D8               	btfss	status,0,c
  5189  001B06  EF87  F00D         	goto	u6201
  5190  001B0A  EF8A  F00D         	goto	u6200
  5191  001B0E                     u6201:
  5192  001B0E  0E01               	movlw	1
  5193  001B10  EF8B  F00D         	goto	u6210
  5194  001B14                     u6200:
  5195  001B14  0E00               	movlw	0
  5196  001B16                     u6210:
  5197  001B16  0100               	movlb	0	; () banked
  5198  001B18  6F66               	movwf	_efgtoa$630& (0+255),b
  5199  001B1A  6B67               	clrf	(_efgtoa$630+1)& (0+255),b
  5200  001B1C                     
  5201                           ; BSR set to: 0
  5202  001B1C  5166               	movf	_efgtoa$630& (0+255),w,b
  5203  001B1E  1167               	iorwf	(_efgtoa$630+1)& (0+255),w,b
  5204  001B20  B4D8               	btfsc	status,2,c
  5205  001B22  EF95  F00D         	goto	u6221
  5206  001B26  EF97  F00D         	goto	u6220
  5207  001B2A                     u6221:
  5208  001B2A  EFA5  F00D         	goto	l5001
  5209  001B2E                     u6220:
  5210  001B2E                     
  5211                           ; BSR set to: 0
  5212                           ;/opt/microchip/xc8/v2.10/pic/sources/c99/common/doprnt.c: 345:             strcpy(&dbuf
      +                          [n], "INF");
  5213  001B2E  0E00               	movlw	low _dbuf
  5214  001B30  2592               	addwf	efgtoa@n& (0+255),w,b
  5215  001B32  6E01               	movwf	strcpy@dest^0,c
  5216  001B34  0E02               	movlw	high _dbuf
  5217  001B36  2193               	addwfc	(efgtoa@n+1)& (0+255),w,b
  5218  001B38  6E02               	movwf	(strcpy@dest+1)^0,c
  5219  001B3A  0E98               	movlw	low STR_14
  5220  001B3C  6E03               	movwf	strcpy@src^0,c
  5221  001B3E  0E08               	movlw	high STR_14
  5222  001B40  6E04               	movwf	(strcpy@src+1)^0,c
  5223  001B42  ECE0  F02E         	call	_strcpy	;wreg free
  5224                           
  5225                           ;/opt/microchip/xc8/v2.10/pic/sources/c99/common/doprnt.c: 346:         } else {
  5226  001B46  EFB1  F00D         	goto	l5003
  5227  001B4A                     l5001:
  5228                           
  5229                           ; BSR set to: 0
  5230                           ;/opt/microchip/xc8/v2.10/pic/sources/c99/common/doprnt.c: 347:             strcpy(&dbuf
      +                          [n], "inf");
  5231  001B4A  0E00               	movlw	low _dbuf
  5232  001B4C  2592               	addwf	efgtoa@n& (0+255),w,b
  5233  001B4E  6E01               	movwf	strcpy@dest^0,c
  5234  001B50  0E02               	movlw	high _dbuf
  5235  001B52  2193               	addwfc	(efgtoa@n+1)& (0+255),w,b
  5236  001B54  6E02               	movwf	(strcpy@dest+1)^0,c
  5237  001B56  0EA0               	movlw	low STR_15
  5238  001B58  6E03               	movwf	strcpy@src^0,c
  5239  001B5A  0E08               	movlw	high STR_15
  5240  001B5C  6E04               	movwf	(strcpy@src+1)^0,c
  5241  001B5E  ECE0  F02E         	call	_strcpy	;wreg free
  5242  001B62                     l5003:
  5243                           
  5244                           ;/opt/microchip/xc8/v2.10/pic/sources/c99/common/doprnt.c: 349:         w -= ((sizeof("i
      +                          nf")/sizeof("inf"[0]))-1);
  5245  001B62  0100               	movlb	0	; () banked
  5246  001B64  0EFD               	movlw	253
  5247  001B66  277F               	addwf	efgtoa@w& (0+255),f,b
  5248  001B68  0EFF               	movlw	255
  5249  001B6A  2380               	addwfc	(efgtoa@w+1)& (0+255),f,b
  5250  001B6C                     l5005:
  5251                           
  5252                           ;/opt/microchip/xc8/v2.10/pic/sources/c99/common/doprnt.c: 350:         return pad(fp, &
      +                          dbuf[0], w);
  5253  001B6C  C04B  F011         	movff	efgtoa@fp,pad@fp
  5254  001B70  C04C  F012         	movff	efgtoa@fp+1,pad@fp+1
  5255  001B74  0E00               	movlw	low _dbuf
  5256  001B76  6E13               	movwf	pad@buf^0,c
  5257  001B78  0E02               	movlw	high _dbuf
  5258  001B7A  6E14               	movwf	(pad@buf+1)^0,c
  5259  001B7C  C07F  F015         	movff	efgtoa@w,pad@p
  5260  001B80  C080  F016         	movff	efgtoa@w+1,pad@p+1
  5261  001B84  ECFA  F02A         	call	_pad	;wreg free
  5262  001B88  C011  F04B         	movff	?_pad,?_efgtoa
  5263  001B8C  C012  F04C         	movff	?_pad+1,?_efgtoa+1
  5264  001B90  EFDA  F012         	goto	l295
  5265  001B94                     l5009:
  5266                           
  5267                           ;/opt/microchip/xc8/v2.10/pic/sources/c99/common/doprnt.c: 353:         if ((0 ? isupper
      +                          ((int)c) : ((unsigned)((int)c)-'A') < 26)) {
  5268  001B94  C08C  F001         	movff	efgtoa@g,___fpclassifyf@x
  5269  001B98  C08D  F002         	movff	efgtoa@g+1,___fpclassifyf@x+1
  5270  001B9C  C08E  F003         	movff	efgtoa@g+2,___fpclassifyf@x+2
  5271  001BA0  C08F  F004         	movff	efgtoa@g+3,___fpclassifyf@x+3
  5272  001BA4  EC41  F029         	call	___fpclassifyf	;wreg free
  5273  001BA8  5001               	movf	?___fpclassifyf^0,w,c
  5274  001BAA  1002               	iorwf	(?___fpclassifyf+1)^0,w,c
  5275  001BAC  A4D8               	btfss	status,2,c
  5276  001BAE  EFDB  F00D         	goto	u6231
  5277  001BB2  EFDD  F00D         	goto	u6230
  5278  001BB6                     u6231:
  5279  001BB6  EF1D  F00E         	goto	l5027
  5280  001BBA                     u6230:
  5281  001BBA  0EBF               	movlw	191
  5282  001BBC  6E52               	movwf	??_efgtoa^0,c
  5283  001BBE  0EFF               	movlw	255
  5284  001BC0  6E53               	movwf	(??_efgtoa+1)^0,c
  5285  001BC2  5051               	movf	efgtoa@c^0,w,c
  5286  001BC4  6E54               	movwf	(??_efgtoa+2)^0,c
  5287  001BC6  6A55               	clrf	(??_efgtoa+3)^0,c
  5288  001BC8  5052               	movf	??_efgtoa^0,w,c
  5289  001BCA  2654               	addwf	(??_efgtoa+2)^0,f,c
  5290  001BCC  5053               	movf	(??_efgtoa+1)^0,w,c
  5291  001BCE  2255               	addwfc	(??_efgtoa+3)^0,f,c
  5292  001BD0  5055               	movf	(??_efgtoa+3)^0,w,c
  5293  001BD2  E10A               	bnz	u6240
  5294  001BD4  0E1A               	movlw	26
  5295  001BD6  5C54               	subwf	(??_efgtoa+2)^0,w,c
  5296  001BD8  A0D8               	btfss	status,0,c
  5297  001BDA  EFF1  F00D         	goto	u6241
  5298  001BDE  EFF4  F00D         	goto	u6240
  5299  001BE2                     u6241:
  5300  001BE2  0E01               	movlw	1
  5301  001BE4  EFF5  F00D         	goto	u6250
  5302  001BE8                     u6240:
  5303  001BE8  0E00               	movlw	0
  5304  001BEA                     u6250:
  5305  001BEA  0100               	movlb	0	; () banked
  5306  001BEC  6F68               	movwf	_efgtoa$634& (0+255),b
  5307  001BEE  6B69               	clrf	(_efgtoa$634+1)& (0+255),b
  5308  001BF0                     
  5309                           ; BSR set to: 0
  5310  001BF0  5168               	movf	_efgtoa$634& (0+255),w,b
  5311  001BF2  1169               	iorwf	(_efgtoa$634+1)& (0+255),w,b
  5312  001BF4  B4D8               	btfsc	status,2,c
  5313  001BF6  EFFF  F00D         	goto	u6261
  5314  001BFA  EF01  F00E         	goto	u6260
  5315  001BFE                     u6261:
  5316  001BFE  EF0F  F00E         	goto	l5019
  5317  001C02                     u6260:
  5318  001C02                     
  5319                           ; BSR set to: 0
  5320                           ;/opt/microchip/xc8/v2.10/pic/sources/c99/common/doprnt.c: 354:             strcpy(&dbuf
      +                          [n], "NAN");
  5321  001C02  0E00               	movlw	low _dbuf
  5322  001C04  2592               	addwf	efgtoa@n& (0+255),w,b
  5323  001C06  6E01               	movwf	strcpy@dest^0,c
  5324  001C08  0E02               	movlw	high _dbuf
  5325  001C0A  2193               	addwfc	(efgtoa@n+1)& (0+255),w,b
  5326  001C0C  6E02               	movwf	(strcpy@dest+1)^0,c
  5327  001C0E  0E9C               	movlw	low STR_18
  5328  001C10  6E03               	movwf	strcpy@src^0,c
  5329  001C12  0E08               	movlw	high STR_18
  5330  001C14  6E04               	movwf	(strcpy@src+1)^0,c
  5331  001C16  ECE0  F02E         	call	_strcpy	;wreg free
  5332                           
  5333                           ;/opt/microchip/xc8/v2.10/pic/sources/c99/common/doprnt.c: 355:         } else {
  5334  001C1A  EFB1  F00D         	goto	l5003
  5335  001C1E                     l5019:
  5336                           
  5337                           ; BSR set to: 0
  5338                           ;/opt/microchip/xc8/v2.10/pic/sources/c99/common/doprnt.c: 356:             strcpy(&dbuf
      +                          [n], "nan");
  5339  001C1E  0E00               	movlw	low _dbuf
  5340  001C20  2592               	addwf	efgtoa@n& (0+255),w,b
  5341  001C22  6E01               	movwf	strcpy@dest^0,c
  5342  001C24  0E02               	movlw	high _dbuf
  5343  001C26  2193               	addwfc	(efgtoa@n+1)& (0+255),w,b
  5344  001C28  6E02               	movwf	(strcpy@dest+1)^0,c
  5345  001C2A  0EA4               	movlw	low STR_19
  5346  001C2C  6E03               	movwf	strcpy@src^0,c
  5347  001C2E  0E08               	movlw	high STR_19
  5348  001C30  6E04               	movwf	(strcpy@src+1)^0,c
  5349  001C32  ECE0  F02E         	call	_strcpy	;wreg free
  5350  001C36  EFB1  F00D         	goto	l5003
  5351  001C3A                     l5027:
  5352                           
  5353                           ;/opt/microchip/xc8/v2.10/pic/sources/c99/common/doprnt.c: 363:     u = 1.0;
  5354  001C3A  0E00               	movlw	0
  5355  001C3C  0100               	movlb	0	; () banked
  5356  001C3E  6F94               	movwf	efgtoa@u& (0+255),b
  5357  001C40  0E00               	movlw	0
  5358  001C42  6F95               	movwf	(efgtoa@u+1)& (0+255),b
  5359  001C44  0E80               	movlw	128
  5360  001C46  6F96               	movwf	(efgtoa@u+2)& (0+255),b
  5361  001C48  0E3F               	movlw	63
  5362  001C4A  6F97               	movwf	(efgtoa@u+3)& (0+255),b
  5363                           
  5364                           ;/opt/microchip/xc8/v2.10/pic/sources/c99/common/doprnt.c: 364:     e = 0;
  5365  001C4C  0E00               	movlw	0
  5366  001C4E  6F91               	movwf	(efgtoa@e+1)& (0+255),b
  5367  001C50  0E00               	movlw	0
  5368  001C52  6F90               	movwf	efgtoa@e& (0+255),b
  5369  001C54                     
  5370                           ; BSR set to: 0
  5371                           ;/opt/microchip/xc8/v2.10/pic/sources/c99/common/doprnt.c: 365:     if (!(g == 0.0)) {
  5372  001C54  C08C  F001         	movff	efgtoa@g,___fleq@ff1
  5373  001C58  C08D  F002         	movff	efgtoa@g+1,___fleq@ff1+1
  5374  001C5C  C08E  F003         	movff	efgtoa@g+2,___fleq@ff1+2
  5375  001C60  C08F  F004         	movff	efgtoa@g+3,___fleq@ff1+3
  5376  001C64  0E00               	movlw	0
  5377  001C66  6E05               	movwf	___fleq@ff2^0,c
  5378  001C68  0E00               	movlw	0
  5379  001C6A  6E06               	movwf	(___fleq@ff2+1)^0,c
  5380  001C6C  0E00               	movlw	0
  5381  001C6E  6E07               	movwf	(___fleq@ff2+2)^0,c
  5382  001C70  0E00               	movlw	0
  5383  001C72  6E08               	movwf	(___fleq@ff2+3)^0,c
  5384  001C74  EC17  F02C         	call	___fleq	;wreg free
  5385  001C78  B0D8               	btfsc	status,0,c
  5386  001C7A  EF41  F00E         	goto	u6271
  5387  001C7E  EF43  F00E         	goto	u6270
  5388  001C82                     u6271:
  5389  001C82  EFC6  F00E         	goto	l5045
  5390  001C86                     u6270:
  5391  001C86  EF62  F00E         	goto	l5037
  5392  001C8A                     l5033:
  5393                           
  5394                           ;/opt/microchip/xc8/v2.10/pic/sources/c99/common/doprnt.c: 367:             u = u*10.0;
  5395  001C8A  C094  F001         	movff	efgtoa@u,___flmul@b
  5396  001C8E  C095  F002         	movff	efgtoa@u+1,___flmul@b+1
  5397  001C92  C096  F003         	movff	efgtoa@u+2,___flmul@b+2
  5398  001C96  C097  F004         	movff	efgtoa@u+3,___flmul@b+3
  5399  001C9A  0E00               	movlw	0
  5400  001C9C  6E05               	movwf	___flmul@a^0,c
  5401  001C9E  0E00               	movlw	0
  5402  001CA0  6E06               	movwf	(___flmul@a+1)^0,c
  5403  001CA2  0E20               	movlw	32
  5404  001CA4  6E07               	movwf	(___flmul@a+2)^0,c
  5405  001CA6  0E41               	movlw	65
  5406  001CA8  6E08               	movwf	(___flmul@a+3)^0,c
  5407  001CAA  EC98  F01A         	call	___flmul	;wreg free
  5408  001CAE  C001  F094         	movff	?___flmul,efgtoa@u
  5409  001CB2  C002  F095         	movff	?___flmul+1,efgtoa@u+1
  5410  001CB6  C003  F096         	movff	?___flmul+2,efgtoa@u+2
  5411  001CBA  C004  F097         	movff	?___flmul+3,efgtoa@u+3
  5412  001CBE                     
  5413                           ;/opt/microchip/xc8/v2.10/pic/sources/c99/common/doprnt.c: 368:             ++e;
  5414  001CBE  0100               	movlb	0	; () banked
  5415  001CC0  4B90               	infsnz	efgtoa@e& (0+255),f,b
  5416  001CC2  2B91               	incf	(efgtoa@e+1)& (0+255),f,b
  5417  001CC4                     l5037:
  5418                           
  5419                           ;/opt/microchip/xc8/v2.10/pic/sources/c99/common/doprnt.c: 366:         while (!(g < (u*
      +                          10.0))) {
  5420  001CC4  C08C  F01A         	movff	efgtoa@g,___flge@ff1
  5421  001CC8  C08D  F01B         	movff	efgtoa@g+1,___flge@ff1+1
  5422  001CCC  C08E  F01C         	movff	efgtoa@g+2,___flge@ff1+2
  5423  001CD0  C08F  F01D         	movff	efgtoa@g+3,___flge@ff1+3
  5424  001CD4  0E00               	movlw	0
  5425  001CD6  6E05               	movwf	___flmul@a^0,c
  5426  001CD8  0E00               	movlw	0
  5427  001CDA  6E06               	movwf	(___flmul@a+1)^0,c
  5428  001CDC  0E20               	movlw	32
  5429  001CDE  6E07               	movwf	(___flmul@a+2)^0,c
  5430  001CE0  0E41               	movlw	65
  5431  001CE2  6E08               	movwf	(___flmul@a+3)^0,c
  5432  001CE4  C094  F001         	movff	efgtoa@u,___flmul@b
  5433  001CE8  C095  F002         	movff	efgtoa@u+1,___flmul@b+1
  5434  001CEC  C096  F003         	movff	efgtoa@u+2,___flmul@b+2
  5435  001CF0  C097  F004         	movff	efgtoa@u+3,___flmul@b+3
  5436  001CF4  EC98  F01A         	call	___flmul	;wreg free
  5437  001CF8  C001  F01E         	movff	?___flmul,___flge@ff2
  5438  001CFC  C002  F01F         	movff	?___flmul+1,___flge@ff2+1
  5439  001D00  C003  F020         	movff	?___flmul+2,___flge@ff2+2
  5440  001D04  C004  F021         	movff	?___flmul+3,___flge@ff2+3
  5441  001D08  ECBF  F028         	call	___flge	;wreg free
  5442  001D0C  B0D8               	btfsc	status,0,c
  5443  001D0E  EF8B  F00E         	goto	u6281
  5444  001D12  EF8D  F00E         	goto	u6280
  5445  001D16                     u6281:
  5446  001D16  EF45  F00E         	goto	l5033
  5447  001D1A                     u6280:
  5448  001D1A  EFAD  F00E         	goto	l5043
  5449  001D1E                     l5039:
  5450                           
  5451                           ;/opt/microchip/xc8/v2.10/pic/sources/c99/common/doprnt.c: 371:             u = u/10.0;
  5452  001D1E  C094  F01A         	movff	efgtoa@u,___fldiv@b
  5453  001D22  C095  F01B         	movff	efgtoa@u+1,___fldiv@b+1
  5454  001D26  C096  F01C         	movff	efgtoa@u+2,___fldiv@b+2
  5455  001D2A  C097  F01D         	movff	efgtoa@u+3,___fldiv@b+3
  5456  001D2E  0E00               	movlw	0
  5457  001D30  6E1E               	movwf	___fldiv@a^0,c
  5458  001D32  0E00               	movlw	0
  5459  001D34  6E1F               	movwf	(___fldiv@a+1)^0,c
  5460  001D36  0E20               	movlw	32
  5461  001D38  6E20               	movwf	(___fldiv@a+2)^0,c
  5462  001D3A  0E41               	movlw	65
  5463  001D3C  6E21               	movwf	(___fldiv@a+3)^0,c
  5464  001D3E  ECAD  F01C         	call	___fldiv	;wreg free
  5465  001D42  C01A  F094         	movff	?___fldiv,efgtoa@u
  5466  001D46  C01B  F095         	movff	?___fldiv+1,efgtoa@u+1
  5467  001D4A  C01C  F096         	movff	?___fldiv+2,efgtoa@u+2
  5468  001D4E  C01D  F097         	movff	?___fldiv+3,efgtoa@u+3
  5469  001D52                     
  5470                           ;/opt/microchip/xc8/v2.10/pic/sources/c99/common/doprnt.c: 372:             --e;
  5471  001D52  0100               	movlb	0	; () banked
  5472  001D54  0790               	decf	efgtoa@e& (0+255),f,b
  5473  001D56  A0D8               	btfss	status,0,c
  5474  001D58  0791               	decf	(efgtoa@e+1)& (0+255),f,b
  5475  001D5A                     l5043:
  5476                           
  5477                           ;/opt/microchip/xc8/v2.10/pic/sources/c99/common/doprnt.c: 370:         while (g < u) {
  5478  001D5A  C08C  F01A         	movff	efgtoa@g,___flge@ff1
  5479  001D5E  C08D  F01B         	movff	efgtoa@g+1,___flge@ff1+1
  5480  001D62  C08E  F01C         	movff	efgtoa@g+2,___flge@ff1+2
  5481  001D66  C08F  F01D         	movff	efgtoa@g+3,___flge@ff1+3
  5482  001D6A  C094  F01E         	movff	efgtoa@u,___flge@ff2
  5483  001D6E  C095  F01F         	movff	efgtoa@u+1,___flge@ff2+1
  5484  001D72  C096  F020         	movff	efgtoa@u+2,___flge@ff2+2
  5485  001D76  C097  F021         	movff	efgtoa@u+3,___flge@ff2+3
  5486  001D7A  ECBF  F028         	call	___flge	;wreg free
  5487  001D7E  A0D8               	btfss	status,0,c
  5488  001D80  EFC4  F00E         	goto	u6291
  5489  001D84  EFC6  F00E         	goto	u6290
  5490  001D88                     u6291:
  5491  001D88  EF8F  F00E         	goto	l5039
  5492  001D8C                     u6290:
  5493  001D8C                     l5045:
  5494                           
  5495                           ;/opt/microchip/xc8/v2.10/pic/sources/c99/common/doprnt.c: 377:     mode = tolower((int)
      +                          c);
  5496  001D8C  C051  F007         	movff	efgtoa@c,tolower@c
  5497  001D90  6A08               	clrf	(tolower@c+1)^0,c
  5498  001D92  EC81  F02E         	call	_tolower	;wreg free
  5499  001D96  5007               	movf	?_tolower^0,w,c
  5500  001D98  0100               	movlb	0	; () banked
  5501  001D9A  6F81               	movwf	efgtoa@mode& (0+255),b
  5502  001D9C                     
  5503                           ; BSR set to: 0
  5504                           ;/opt/microchip/xc8/v2.10/pic/sources/c99/common/doprnt.c: 378:     nmode = mode;
  5505  001D9C  C081  F07E         	movff	efgtoa@mode,efgtoa@nmode
  5506  001DA0                     
  5507                           ; BSR set to: 0
  5508                           ;/opt/microchip/xc8/v2.10/pic/sources/c99/common/doprnt.c: 379:     if (mode == 'g') {
  5509  001DA0  0E67               	movlw	103
  5510  001DA2  1981               	xorwf	efgtoa@mode& (0+255),w,b
  5511  001DA4  A4D8               	btfss	status,2,c
  5512  001DA6  EFD7  F00E         	goto	u6301
  5513  001DAA  EFD9  F00E         	goto	u6300
  5514  001DAE                     u6301:
  5515  001DAE  EFFF  F00E         	goto	l5059
  5516  001DB2                     u6300:
  5517  001DB2                     
  5518                           ; BSR set to: 0
  5519                           ;/opt/microchip/xc8/v2.10/pic/sources/c99/common/doprnt.c: 380:   if (prec == 0) {
  5520  001DB2  51FA               	movf	_prec& (0+255),w,b
  5521  001DB4  11FB               	iorwf	(_prec+1)& (0+255),w,b
  5522  001DB6  A4D8               	btfss	status,2,c
  5523  001DB8  EFE0  F00E         	goto	u6311
  5524  001DBC  EFE2  F00E         	goto	u6310
  5525  001DC0                     u6311:
  5526  001DC0  EFE6  F00E         	goto	l5055
  5527  001DC4                     u6310:
  5528  001DC4                     
  5529                           ; BSR set to: 0
  5530                           ;/opt/microchip/xc8/v2.10/pic/sources/c99/common/doprnt.c: 381:    prec = 1;
  5531  001DC4  0E00               	movlw	0
  5532  001DC6  6FFB               	movwf	(_prec+1)& (0+255),b
  5533  001DC8  0E01               	movlw	1
  5534  001DCA  6FFA               	movwf	_prec& (0+255),b
  5535  001DCC                     l5055:
  5536                           
  5537                           ; BSR set to: 0
  5538                           ;/opt/microchip/xc8/v2.10/pic/sources/c99/common/doprnt.c: 383:         p = (0 < prec) ?
      +                           prec : 6;
  5539  001DCC  BFFB               	btfsc	(_prec+1)& (0+255),7,b
  5540  001DCE  EFF3  F00E         	goto	u6320
  5541  001DD2  51FB               	movf	(_prec+1)& (0+255),w,b
  5542  001DD4  E106               	bnz	u6321
  5543  001DD6  05FA               	decf	_prec& (0+255),w,b
  5544  001DD8  B0D8               	btfsc	status,0,c
  5545  001DDA  EFF1  F00E         	goto	u6321
  5546  001DDE  EFF3  F00E         	goto	u6320
  5547  001DE2                     u6321:
  5548  001DE2  EFF9  F00E         	goto	l313
  5549  001DE6                     u6320:
  5550  001DE6                     l5057:
  5551                           
  5552                           ; BSR set to: 0
  5553  001DE6  0E00               	movlw	0
  5554  001DE8  6F7D               	movwf	(efgtoa@p+1)& (0+255),b
  5555  001DEA  0E06               	movlw	6
  5556  001DEC  6F7C               	movwf	efgtoa@p& (0+255),b
  5557  001DEE  EF08  F00F         	goto	l5065
  5558  001DF2                     l313:
  5559                           
  5560                           ; BSR set to: 0
  5561  001DF2  C0FA  F07C         	movff	_prec,efgtoa@p
  5562  001DF6  C0FB  F07D         	movff	_prec+1,efgtoa@p+1
  5563  001DFA  EF08  F00F         	goto	l5065
  5564  001DFE                     l5059:
  5565                           
  5566                           ; BSR set to: 0
  5567                           ;/opt/microchip/xc8/v2.10/pic/sources/c99/common/doprnt.c: 385:         p = (prec < 0) ?
      +                           6 : prec;
  5568  001DFE  BFFB               	btfsc	(_prec+1)& (0+255),7,b
  5569  001E00  EF04  F00F         	goto	u6331
  5570  001E04  EF06  F00F         	goto	u6330
  5571  001E08                     u6331:
  5572  001E08  EFF3  F00E         	goto	l5057
  5573  001E0C                     u6330:
  5574  001E0C  EFF9  F00E         	goto	l313
  5575  001E10                     l5065:
  5576                           
  5577                           ; BSR set to: 0
  5578                           ;/opt/microchip/xc8/v2.10/pic/sources/c99/common/doprnt.c: 389:     if (mode == 'g') {
  5579  001E10  0E67               	movlw	103
  5580  001E12  1981               	xorwf	efgtoa@mode& (0+255),w,b
  5581  001E14  A4D8               	btfss	status,2,c
  5582  001E16  EF0F  F00F         	goto	u6341
  5583  001E1A  EF11  F00F         	goto	u6340
  5584  001E1E                     u6341:
  5585  001E1E  EF40  F00F         	goto	l5075
  5586  001E22                     u6340:
  5587  001E22                     
  5588                           ; BSR set to: 0
  5589                           ;/opt/microchip/xc8/v2.10/pic/sources/c99/common/doprnt.c: 390:         if (!(e < -4) &&
      +                           !((p - 1) < e)) {
  5590  001E22  AF91               	btfss	(efgtoa@e+1)& (0+255),7,b
  5591  001E24  EF1F  F00F         	goto	u6350
  5592  001E28  0EFC               	movlw	252
  5593  001E2A  5D90               	subwf	efgtoa@e& (0+255),w,b
  5594  001E2C  0EFF               	movlw	255
  5595  001E2E  5991               	subwfb	(efgtoa@e+1)& (0+255),w,b
  5596  001E30  A0D8               	btfss	status,0,c
  5597  001E32  EF1D  F00F         	goto	u6351
  5598  001E36  EF1F  F00F         	goto	u6350
  5599  001E3A                     u6351:
  5600  001E3A  EF3E  F00F         	goto	l5073
  5601  001E3E                     u6350:
  5602  001E3E                     
  5603                           ; BSR set to: 0
  5604  001E3E  0EFF               	movlw	255
  5605  001E40  6E52               	movwf	??_efgtoa^0,c
  5606  001E42  0EFF               	movlw	255
  5607  001E44  6E53               	movwf	(??_efgtoa+1)^0,c
  5608  001E46  C07C  F054         	movff	efgtoa@p,??_efgtoa+2
  5609  001E4A  C07D  F055         	movff	efgtoa@p+1,??_efgtoa+3
  5610  001E4E  5052               	movf	??_efgtoa^0,w,c
  5611  001E50  2654               	addwf	(??_efgtoa+2)^0,f,c
  5612  001E52  5053               	movf	(??_efgtoa+1)^0,w,c
  5613  001E54  2255               	addwfc	(??_efgtoa+3)^0,f,c
  5614  001E56  5190               	movf	efgtoa@e& (0+255),w,b
  5615  001E58  5C54               	subwf	(??_efgtoa+2)^0,w,c
  5616  001E5A  5055               	movf	(??_efgtoa+3)^0,w,c
  5617  001E5C  0A80               	xorlw	128
  5618  001E5E  6E56               	movwf	(??_efgtoa+4)^0,c
  5619  001E60  5191               	movf	(efgtoa@e+1)& (0+255),w,b
  5620  001E62  0A80               	xorlw	128
  5621  001E64  5856               	subwfb	(??_efgtoa+4)^0,w,c
  5622  001E66  A0D8               	btfss	status,0,c
  5623  001E68  EF38  F00F         	goto	u6361
  5624  001E6C  EF3A  F00F         	goto	u6360
  5625  001E70                     u6361:
  5626  001E70  EF3E  F00F         	goto	l5073
  5627  001E74                     u6360:
  5628  001E74                     
  5629                           ; BSR set to: 0
  5630                           ;/opt/microchip/xc8/v2.10/pic/sources/c99/common/doprnt.c: 391:             nmode = 'f';
  5631  001E74  0E66               	movlw	102
  5632  001E76  6F7E               	movwf	efgtoa@nmode& (0+255),b
  5633                           
  5634                           ;/opt/microchip/xc8/v2.10/pic/sources/c99/common/doprnt.c: 392:         } else {
  5635  001E78  EF40  F00F         	goto	l5075
  5636  001E7C                     l5073:
  5637                           
  5638                           ; BSR set to: 0
  5639                           ;/opt/microchip/xc8/v2.10/pic/sources/c99/common/doprnt.c: 393:             nmode = 'e';
  5640  001E7C  0E65               	movlw	101
  5641  001E7E  6F7E               	movwf	efgtoa@nmode& (0+255),b
  5642  001E80                     l5075:
  5643                           
  5644                           ; BSR set to: 0
  5645                           ;/opt/microchip/xc8/v2.10/pic/sources/c99/common/doprnt.c: 398:     m = p;
  5646  001E80  C07C  F074         	movff	efgtoa@p,efgtoa@m
  5647  001E84  C07D  F075         	movff	efgtoa@p+1,efgtoa@m+1
  5648  001E88                     
  5649                           ; BSR set to: 0
  5650                           ;/opt/microchip/xc8/v2.10/pic/sources/c99/common/doprnt.c: 399:     if (!(mode == 'g') |
      +                          | ((nmode == 'f') && (e < 0))) {
  5651  001E88  0E67               	movlw	103
  5652  001E8A  1981               	xorwf	efgtoa@mode& (0+255),w,b
  5653  001E8C  A4D8               	btfss	status,2,c
  5654  001E8E  EF4B  F00F         	goto	u6371
  5655  001E92  EF4D  F00F         	goto	u6370
  5656  001E96                     u6371:
  5657  001E96  EF5D  F00F         	goto	l5083
  5658  001E9A                     u6370:
  5659  001E9A                     
  5660                           ; BSR set to: 0
  5661  001E9A  0E66               	movlw	102
  5662  001E9C  197E               	xorwf	efgtoa@nmode& (0+255),w,b
  5663  001E9E  A4D8               	btfss	status,2,c
  5664  001EA0  EF54  F00F         	goto	u6381
  5665  001EA4  EF56  F00F         	goto	u6380
  5666  001EA8                     u6381:
  5667  001EA8  EF5F  F00F         	goto	l5085
  5668  001EAC                     u6380:
  5669  001EAC                     
  5670                           ; BSR set to: 0
  5671  001EAC  BF91               	btfsc	(efgtoa@e+1)& (0+255),7,b
  5672  001EAE  EF5D  F00F         	goto	u6390
  5673  001EB2  EF5B  F00F         	goto	u6391
  5674  001EB6                     u6391:
  5675  001EB6  EF5F  F00F         	goto	l5085
  5676  001EBA                     u6390:
  5677  001EBA                     l5083:
  5678                           
  5679                           ; BSR set to: 0
  5680                           ;/opt/microchip/xc8/v2.10/pic/sources/c99/common/doprnt.c: 400:         ++m;
  5681  001EBA  4B74               	infsnz	efgtoa@m& (0+255),f,b
  5682  001EBC  2B75               	incf	(efgtoa@m+1)& (0+255),f,b
  5683  001EBE                     l5085:
  5684                           
  5685                           ; BSR set to: 0
  5686                           ;/opt/microchip/xc8/v2.10/pic/sources/c99/common/doprnt.c: 404:     if (nmode == 'f') {
  5687  001EBE  0E66               	movlw	102
  5688  001EC0  197E               	xorwf	efgtoa@nmode& (0+255),w,b
  5689  001EC2  A4D8               	btfss	status,2,c
  5690  001EC4  EF66  F00F         	goto	u6401
  5691  001EC8  EF68  F00F         	goto	u6400
  5692  001ECC                     u6401:
  5693  001ECC  EF88  F00F         	goto	l5095
  5694  001ED0                     u6400:
  5695  001ED0                     
  5696                           ; BSR set to: 0
  5697                           ;/opt/microchip/xc8/v2.10/pic/sources/c99/common/doprnt.c: 405:         if (e < 0) {
  5698  001ED0  BF91               	btfsc	(efgtoa@e+1)& (0+255),7,b
  5699  001ED2  EF6F  F00F         	goto	u6410
  5700  001ED6  EF6D  F00F         	goto	u6411
  5701  001EDA                     u6411:
  5702  001EDA  EF7B  F00F         	goto	l5091
  5703  001EDE                     u6410:
  5704  001EDE                     
  5705                           ; BSR set to: 0
  5706                           ;/opt/microchip/xc8/v2.10/pic/sources/c99/common/doprnt.c: 406:             u = 1.0;
  5707  001EDE  0E00               	movlw	0
  5708  001EE0  6F94               	movwf	efgtoa@u& (0+255),b
  5709  001EE2  0E00               	movlw	0
  5710  001EE4  6F95               	movwf	(efgtoa@u+1)& (0+255),b
  5711  001EE6  0E80               	movlw	128
  5712  001EE8  6F96               	movwf	(efgtoa@u+2)& (0+255),b
  5713  001EEA  0E3F               	movlw	63
  5714  001EEC  6F97               	movwf	(efgtoa@u+3)& (0+255),b
  5715                           
  5716                           ;/opt/microchip/xc8/v2.10/pic/sources/c99/common/doprnt.c: 407:             e = 0;
  5717  001EEE  0E00               	movlw	0
  5718  001EF0  6F91               	movwf	(efgtoa@e+1)& (0+255),b
  5719  001EF2  0E00               	movlw	0
  5720  001EF4  6F90               	movwf	efgtoa@e& (0+255),b
  5721  001EF6                     l5091:
  5722                           
  5723                           ; BSR set to: 0
  5724                           ;/opt/microchip/xc8/v2.10/pic/sources/c99/common/doprnt.c: 409:         if (!(mode == 'g
      +                          ')) {
  5725  001EF6  0E67               	movlw	103
  5726  001EF8  1981               	xorwf	efgtoa@mode& (0+255),w,b
  5727  001EFA  B4D8               	btfsc	status,2,c
  5728  001EFC  EF82  F00F         	goto	u6421
  5729  001F00  EF84  F00F         	goto	u6420
  5730  001F04                     u6421:
  5731  001F04  EF88  F00F         	goto	l5095
  5732  001F08                     u6420:
  5733  001F08                     
  5734                           ; BSR set to: 0
  5735                           ;/opt/microchip/xc8/v2.10/pic/sources/c99/common/doprnt.c: 410:             m += e;
  5736  001F08  5190               	movf	efgtoa@e& (0+255),w,b
  5737  001F0A  2774               	addwf	efgtoa@m& (0+255),f,b
  5738  001F0C  5191               	movf	(efgtoa@e+1)& (0+255),w,b
  5739  001F0E  2375               	addwfc	(efgtoa@m+1)& (0+255),f,b
  5740  001F10                     l5095:
  5741                           
  5742                           ; BSR set to: 0
  5743                           ;/opt/microchip/xc8/v2.10/pic/sources/c99/common/doprnt.c: 415:     i = 0;
  5744  001F10  0E00               	movlw	0
  5745  001F12  6F8B               	movwf	(efgtoa@i+1)& (0+255),b
  5746  001F14  0E00               	movlw	0
  5747  001F16  6F8A               	movwf	efgtoa@i& (0+255),b
  5748  001F18                     
  5749                           ; BSR set to: 0
  5750                           ;/opt/microchip/xc8/v2.10/pic/sources/c99/common/doprnt.c: 416:     h = g;
  5751  001F18  C08C  F082         	movff	efgtoa@g,efgtoa@h
  5752  001F1C  C08D  F083         	movff	efgtoa@g+1,efgtoa@h+1
  5753  001F20  C08E  F084         	movff	efgtoa@g+2,efgtoa@h+2
  5754  001F24  C08F  F085         	movff	efgtoa@g+3,efgtoa@h+3
  5755  001F28                     
  5756                           ; BSR set to: 0
  5757                           ;/opt/microchip/xc8/v2.10/pic/sources/c99/common/doprnt.c: 417:     ou = u;
  5758  001F28  C094  F060         	movff	efgtoa@u,efgtoa@ou
  5759  001F2C  C095  F061         	movff	efgtoa@u+1,efgtoa@ou+1
  5760  001F30  C096  F062         	movff	efgtoa@u+2,efgtoa@ou+2
  5761  001F34  C097  F063         	movff	efgtoa@u+3,efgtoa@ou+3
  5762                           
  5763                           ;/opt/microchip/xc8/v2.10/pic/sources/c99/common/doprnt.c: 418:     while (i < m) {
  5764  001F38  EF19  F010         	goto	l5109
  5765  001F3C                     l5101:
  5766                           
  5767                           ; BSR set to: 0
  5768                           ;/opt/microchip/xc8/v2.10/pic/sources/c99/common/doprnt.c: 419:         l = floorf(h/u);
  5769  001F3C  C082  F01A         	movff	efgtoa@h,___fldiv@b
  5770  001F40  C083  F01B         	movff	efgtoa@h+1,___fldiv@b+1
  5771  001F44  C084  F01C         	movff	efgtoa@h+2,___fldiv@b+2
  5772  001F48  C085  F01D         	movff	efgtoa@h+3,___fldiv@b+3
  5773  001F4C  C094  F01E         	movff	efgtoa@u,___fldiv@a
  5774  001F50  C095  F01F         	movff	efgtoa@u+1,___fldiv@a+1
  5775  001F54  C096  F020         	movff	efgtoa@u+2,___fldiv@a+2
  5776  001F58  C097  F021         	movff	efgtoa@u+3,___fldiv@a+3
  5777  001F5C  ECAD  F01C         	call	___fldiv	;wreg free
  5778  001F60  C01A  F033         	movff	?___fldiv,floorf@x
  5779  001F64  C01B  F034         	movff	?___fldiv+1,floorf@x+1
  5780  001F68  C01C  F035         	movff	?___fldiv+2,floorf@x+2
  5781  001F6C  C01D  F036         	movff	?___fldiv+3,floorf@x+3
  5782  001F70  EC5C  F021         	call	_floorf	;wreg free
  5783  001F74  C033  F086         	movff	?_floorf,efgtoa@l
  5784  001F78  C034  F087         	movff	?_floorf+1,efgtoa@l+1
  5785  001F7C  C035  F088         	movff	?_floorf+2,efgtoa@l+2
  5786  001F80  C036  F089         	movff	?_floorf+3,efgtoa@l+3
  5787                           
  5788                           ;/opt/microchip/xc8/v2.10/pic/sources/c99/common/doprnt.c: 420:         d = (int)l;
  5789  001F84  C086  F001         	movff	efgtoa@l,___fltol@f1
  5790  001F88  C087  F002         	movff	efgtoa@l+1,___fltol@f1+1
  5791  001F8C  C088  F003         	movff	efgtoa@l+2,___fltol@f1+2
  5792  001F90  C089  F004         	movff	efgtoa@l+3,___fltol@f1+3
  5793  001F94  EC3C  F028         	call	___fltol	;wreg free
  5794  001F98  C001  F078         	movff	?___fltol,efgtoa@d
  5795  001F9C  C002  F079         	movff	?___fltol+1,efgtoa@d+1
  5796  001FA0                     
  5797                           ;/opt/microchip/xc8/v2.10/pic/sources/c99/common/doprnt.c: 421:         h -= l*u;
  5798  001FA0  C082  F043         	movff	efgtoa@h,___flsub@b
  5799  001FA4  C083  F044         	movff	efgtoa@h+1,___flsub@b+1
  5800  001FA8  C084  F045         	movff	efgtoa@h+2,___flsub@b+2
  5801  001FAC  C085  F046         	movff	efgtoa@h+3,___flsub@b+3
  5802  001FB0  C094  F005         	movff	efgtoa@u,___flmul@a
  5803  001FB4  C095  F006         	movff	efgtoa@u+1,___flmul@a+1
  5804  001FB8  C096  F007         	movff	efgtoa@u+2,___flmul@a+2
  5805  001FBC  C097  F008         	movff	efgtoa@u+3,___flmul@a+3
  5806  001FC0  C086  F001         	movff	efgtoa@l,___flmul@b
  5807  001FC4  C087  F002         	movff	efgtoa@l+1,___flmul@b+1
  5808  001FC8  C088  F003         	movff	efgtoa@l+2,___flmul@b+2
  5809  001FCC  C089  F004         	movff	efgtoa@l+3,___flmul@b+3
  5810  001FD0  EC98  F01A         	call	___flmul	;wreg free
  5811  001FD4  C001  F047         	movff	?___flmul,___flsub@a
  5812  001FD8  C002  F048         	movff	?___flmul+1,___flsub@a+1
  5813  001FDC  C003  F049         	movff	?___flmul+2,___flsub@a+2
  5814  001FE0  C004  F04A         	movff	?___flmul+3,___flsub@a+3
  5815  001FE4  ECE3  F02F         	call	___flsub	;wreg free
  5816  001FE8  C043  F082         	movff	?___flsub,efgtoa@h
  5817  001FEC  C044  F083         	movff	?___flsub+1,efgtoa@h+1
  5818  001FF0  C045  F084         	movff	?___flsub+2,efgtoa@h+2
  5819  001FF4  C046  F085         	movff	?___flsub+3,efgtoa@h+3
  5820  001FF8                     
  5821                           ;/opt/microchip/xc8/v2.10/pic/sources/c99/common/doprnt.c: 422:         u = u/10.0;
  5822  001FF8  C094  F01A         	movff	efgtoa@u,___fldiv@b
  5823  001FFC  C095  F01B         	movff	efgtoa@u+1,___fldiv@b+1
  5824  002000  C096  F01C         	movff	efgtoa@u+2,___fldiv@b+2
  5825  002004  C097  F01D         	movff	efgtoa@u+3,___fldiv@b+3
  5826  002008  0E00               	movlw	0
  5827  00200A  6E1E               	movwf	___fldiv@a^0,c
  5828  00200C  0E00               	movlw	0
  5829  00200E  6E1F               	movwf	(___fldiv@a+1)^0,c
  5830  002010  0E20               	movlw	32
  5831  002012  6E20               	movwf	(___fldiv@a+2)^0,c
  5832  002014  0E41               	movlw	65
  5833  002016  6E21               	movwf	(___fldiv@a+3)^0,c
  5834  002018  ECAD  F01C         	call	___fldiv	;wreg free
  5835  00201C  C01A  F094         	movff	?___fldiv,efgtoa@u
  5836  002020  C01B  F095         	movff	?___fldiv+1,efgtoa@u+1
  5837  002024  C01C  F096         	movff	?___fldiv+2,efgtoa@u+2
  5838  002028  C01D  F097         	movff	?___fldiv+3,efgtoa@u+3
  5839  00202C                     
  5840                           ;/opt/microchip/xc8/v2.10/pic/sources/c99/common/doprnt.c: 423:         ++i;
  5841  00202C  0100               	movlb	0	; () banked
  5842  00202E  4B8A               	infsnz	efgtoa@i& (0+255),f,b
  5843  002030  2B8B               	incf	(efgtoa@i+1)& (0+255),f,b
  5844  002032                     l5109:
  5845                           
  5846                           ; BSR set to: 0
  5847                           ;/opt/microchip/xc8/v2.10/pic/sources/c99/common/doprnt.c: 418:     while (i < m) {
  5848  002032  5174               	movf	efgtoa@m& (0+255),w,b
  5849  002034  5D8A               	subwf	efgtoa@i& (0+255),w,b
  5850  002036  518B               	movf	(efgtoa@i+1)& (0+255),w,b
  5851  002038  0A80               	xorlw	128
  5852  00203A  6E52               	movwf	??_efgtoa^0,c
  5853  00203C  5175               	movf	(efgtoa@m+1)& (0+255),w,b
  5854  00203E  0A80               	xorlw	128
  5855  002040  5852               	subwfb	??_efgtoa^0,w,c
  5856  002042  A0D8               	btfss	status,0,c
  5857  002044  EF26  F010         	goto	u6431
  5858  002048  EF28  F010         	goto	u6430
  5859  00204C                     u6431:
  5860  00204C  EF9E  F00F         	goto	l5101
  5861  002050                     u6430:
  5862  002050                     
  5863                           ; BSR set to: 0
  5864                           ;/opt/microchip/xc8/v2.10/pic/sources/c99/common/doprnt.c: 427:     l = u*5.0;
  5865  002050  C094  F001         	movff	efgtoa@u,___flmul@b
  5866  002054  C095  F002         	movff	efgtoa@u+1,___flmul@b+1
  5867  002058  C096  F003         	movff	efgtoa@u+2,___flmul@b+2
  5868  00205C  C097  F004         	movff	efgtoa@u+3,___flmul@b+3
  5869  002060  0E00               	movlw	0
  5870  002062  6E05               	movwf	___flmul@a^0,c
  5871  002064  0E00               	movlw	0
  5872  002066  6E06               	movwf	(___flmul@a+1)^0,c
  5873  002068  0EA0               	movlw	160
  5874  00206A  6E07               	movwf	(___flmul@a+2)^0,c
  5875  00206C  0E40               	movlw	64
  5876  00206E  6E08               	movwf	(___flmul@a+3)^0,c
  5877  002070  EC98  F01A         	call	___flmul	;wreg free
  5878  002074  C001  F086         	movff	?___flmul,efgtoa@l
  5879  002078  C002  F087         	movff	?___flmul+1,efgtoa@l+1
  5880  00207C  C003  F088         	movff	?___flmul+2,efgtoa@l+2
  5881  002080  C004  F089         	movff	?___flmul+3,efgtoa@l+3
  5882  002084                     
  5883                           ;/opt/microchip/xc8/v2.10/pic/sources/c99/common/doprnt.c: 428:     if (h < l) {
  5884  002084  C082  F01A         	movff	efgtoa@h,___flge@ff1
  5885  002088  C083  F01B         	movff	efgtoa@h+1,___flge@ff1+1
  5886  00208C  C084  F01C         	movff	efgtoa@h+2,___flge@ff1+2
  5887  002090  C085  F01D         	movff	efgtoa@h+3,___flge@ff1+3
  5888  002094  C086  F01E         	movff	efgtoa@l,___flge@ff2
  5889  002098  C087  F01F         	movff	efgtoa@l+1,___flge@ff2+1
  5890  00209C  C088  F020         	movff	efgtoa@l+2,___flge@ff2+2
  5891  0020A0  C089  F021         	movff	efgtoa@l+3,___flge@ff2+3
  5892  0020A4  ECBF  F028         	call	___flge	;wreg free
  5893  0020A8  B0D8               	btfsc	status,0,c
  5894  0020AA  EF59  F010         	goto	u6441
  5895  0020AE  EF5B  F010         	goto	u6440
  5896  0020B2                     u6441:
  5897  0020B2  EF66  F010         	goto	l5117
  5898  0020B6                     u6440:
  5899  0020B6                     
  5900                           ;/opt/microchip/xc8/v2.10/pic/sources/c99/common/doprnt.c: 429:         l = 0.0;
  5901  0020B6  0E00               	movlw	0
  5902  0020B8  0100               	movlb	0	; () banked
  5903  0020BA  6F86               	movwf	efgtoa@l& (0+255),b
  5904  0020BC  0E00               	movlw	0
  5905  0020BE  6F87               	movwf	(efgtoa@l+1)& (0+255),b
  5906  0020C0  0E00               	movlw	0
  5907  0020C2  6F88               	movwf	(efgtoa@l+2)& (0+255),b
  5908  0020C4  0E00               	movlw	0
  5909  0020C6  6F89               	movwf	(efgtoa@l+3)& (0+255),b
  5910                           
  5911                           ;/opt/microchip/xc8/v2.10/pic/sources/c99/common/doprnt.c: 430:     } else {
  5912  0020C8  EF8F  F010         	goto	l5123
  5913  0020CC                     l5117:
  5914                           
  5915                           ;/opt/microchip/xc8/v2.10/pic/sources/c99/common/doprnt.c: 432:         if ((h == l) && 
      +                          !(d % 2)) {
  5916  0020CC  C082  F001         	movff	efgtoa@h,___fleq@ff1
  5917  0020D0  C083  F002         	movff	efgtoa@h+1,___fleq@ff1+1
  5918  0020D4  C084  F003         	movff	efgtoa@h+2,___fleq@ff1+2
  5919  0020D8  C085  F004         	movff	efgtoa@h+3,___fleq@ff1+3
  5920  0020DC  C086  F005         	movff	efgtoa@l,___fleq@ff2
  5921  0020E0  C087  F006         	movff	efgtoa@l+1,___fleq@ff2+1
  5922  0020E4  C088  F007         	movff	efgtoa@l+2,___fleq@ff2+2
  5923  0020E8  C089  F008         	movff	efgtoa@l+3,___fleq@ff2+3
  5924  0020EC  EC17  F02C         	call	___fleq	;wreg free
  5925  0020F0  A0D8               	btfss	status,0,c
  5926  0020F2  EF7D  F010         	goto	u6451
  5927  0020F6  EF7F  F010         	goto	u6450
  5928  0020FA                     u6451:
  5929  0020FA  EF8F  F010         	goto	l5123
  5930  0020FE                     u6450:
  5931  0020FE  0100               	movlb	0	; () banked
  5932  002100  B178               	btfsc	efgtoa@d& (0+255),0,b
  5933  002102  EF85  F010         	goto	u6461
  5934  002106  EF87  F010         	goto	u6460
  5935  00210A                     u6461:
  5936  00210A  EF8F  F010         	goto	l5123
  5937  00210E                     u6460:
  5938  00210E                     
  5939                           ; BSR set to: 0
  5940                           ;/opt/microchip/xc8/v2.10/pic/sources/c99/common/doprnt.c: 433:             l = 0.0;
  5941  00210E  0E00               	movlw	0
  5942  002110  6F86               	movwf	efgtoa@l& (0+255),b
  5943  002112  0E00               	movlw	0
  5944  002114  6F87               	movwf	(efgtoa@l+1)& (0+255),b
  5945  002116  0E00               	movlw	0
  5946  002118  6F88               	movwf	(efgtoa@l+2)& (0+255),b
  5947  00211A  0E00               	movlw	0
  5948  00211C  6F89               	movwf	(efgtoa@l+3)& (0+255),b
  5949  00211E                     l5123:
  5950                           
  5951                           ;/opt/microchip/xc8/v2.10/pic/sources/c99/common/doprnt.c: 438:     h = g + l;
  5952  00211E  C08C  F033         	movff	efgtoa@g,___fladd@b
  5953  002122  C08D  F034         	movff	efgtoa@g+1,___fladd@b+1
  5954  002126  C08E  F035         	movff	efgtoa@g+2,___fladd@b+2
  5955  00212A  C08F  F036         	movff	efgtoa@g+3,___fladd@b+3
  5956  00212E  C086  F037         	movff	efgtoa@l,___fladd@a
  5957  002132  C087  F038         	movff	efgtoa@l+1,___fladd@a+1
  5958  002136  C088  F039         	movff	efgtoa@l+2,___fladd@a+2
  5959  00213A  C089  F03A         	movff	efgtoa@l+3,___fladd@a+3
  5960  00213E  ECEA  F015         	call	___fladd	;wreg free
  5961  002142  C033  F082         	movff	?___fladd,efgtoa@h
  5962  002146  C034  F083         	movff	?___fladd+1,efgtoa@h+1
  5963  00214A  C035  F084         	movff	?___fladd+2,efgtoa@h+2
  5964  00214E  C036  F085         	movff	?___fladd+3,efgtoa@h+3
  5965  002152                     
  5966                           ;/opt/microchip/xc8/v2.10/pic/sources/c99/common/doprnt.c: 441:     u = ou;
  5967  002152  C060  F094         	movff	efgtoa@ou,efgtoa@u
  5968  002156  C061  F095         	movff	efgtoa@ou+1,efgtoa@u+1
  5969  00215A  C062  F096         	movff	efgtoa@ou+2,efgtoa@u+2
  5970  00215E  C063  F097         	movff	efgtoa@ou+3,efgtoa@u+3
  5971  002162                     
  5972                           ;/opt/microchip/xc8/v2.10/pic/sources/c99/common/doprnt.c: 442:     ne = (nmode == 'e') 
      +                          ? 0 : e;
  5973  002162  0E65               	movlw	101
  5974  002164  0100               	movlb	0	; () banked
  5975  002166  197E               	xorwf	efgtoa@nmode& (0+255),w,b
  5976  002168  B4D8               	btfsc	status,2,c
  5977  00216A  EFB9  F010         	goto	u6471
  5978  00216E  EFBB  F010         	goto	u6470
  5979  002172                     u6471:
  5980  002172  EFC1  F010         	goto	l5131
  5981  002176                     u6470:
  5982  002176                     
  5983                           ; BSR set to: 0
  5984  002176  C090  F076         	movff	efgtoa@e,efgtoa@ne
  5985  00217A  C091  F077         	movff	efgtoa@e+1,efgtoa@ne+1
  5986  00217E  EFC5  F010         	goto	l339
  5987  002182                     l5131:
  5988                           
  5989                           ; BSR set to: 0
  5990  002182  0E00               	movlw	0
  5991  002184  6F77               	movwf	(efgtoa@ne+1)& (0+255),b
  5992  002186  0E00               	movlw	0
  5993  002188  6F76               	movwf	efgtoa@ne& (0+255),b
  5994  00218A                     l339:
  5995                           
  5996                           ; BSR set to: 0
  5997                           ;/opt/microchip/xc8/v2.10/pic/sources/c99/common/doprnt.c: 443:     pp = 0;
  5998  00218A  0E00               	movlw	0
  5999  00218C  6F73               	movwf	(efgtoa@pp+1)& (0+255),b
  6000  00218E  0E00               	movlw	0
  6001  002190  6F72               	movwf	efgtoa@pp& (0+255),b
  6002                           
  6003                           ;/opt/microchip/xc8/v2.10/pic/sources/c99/common/doprnt.c: 444:     t = 0;
  6004  002192  0E00               	movlw	0
  6005  002194  6F71               	movwf	(efgtoa@t+1)& (0+255),b
  6006  002196  0E00               	movlw	0
  6007  002198  6F70               	movwf	efgtoa@t& (0+255),b
  6008                           
  6009                           ;/opt/microchip/xc8/v2.10/pic/sources/c99/common/doprnt.c: 445:     i = 0;
  6010  00219A  0E00               	movlw	0
  6011  00219C  6F8B               	movwf	(efgtoa@i+1)& (0+255),b
  6012  00219E  0E00               	movlw	0
  6013  0021A0  6F8A               	movwf	efgtoa@i& (0+255),b
  6014                           
  6015                           ;/opt/microchip/xc8/v2.10/pic/sources/c99/common/doprnt.c: 446:     while ((i < m) && (n
      +                           < (80 - 5))) {
  6016  0021A2  EFC0  F011         	goto	l5181
  6017  0021A6                     l5133:
  6018                           
  6019                           ; BSR set to: 0
  6020                           ;/opt/microchip/xc8/v2.10/pic/sources/c99/common/doprnt.c: 447:         l = floorf(h/u);
  6021  0021A6  C082  F01A         	movff	efgtoa@h,___fldiv@b
  6022  0021AA  C083  F01B         	movff	efgtoa@h+1,___fldiv@b+1
  6023  0021AE  C084  F01C         	movff	efgtoa@h+2,___fldiv@b+2
  6024  0021B2  C085  F01D         	movff	efgtoa@h+3,___fldiv@b+3
  6025  0021B6  C094  F01E         	movff	efgtoa@u,___fldiv@a
  6026  0021BA  C095  F01F         	movff	efgtoa@u+1,___fldiv@a+1
  6027  0021BE  C096  F020         	movff	efgtoa@u+2,___fldiv@a+2
  6028  0021C2  C097  F021         	movff	efgtoa@u+3,___fldiv@a+3
  6029  0021C6  ECAD  F01C         	call	___fldiv	;wreg free
  6030  0021CA  C01A  F033         	movff	?___fldiv,floorf@x
  6031  0021CE  C01B  F034         	movff	?___fldiv+1,floorf@x+1
  6032  0021D2  C01C  F035         	movff	?___fldiv+2,floorf@x+2
  6033  0021D6  C01D  F036         	movff	?___fldiv+3,floorf@x+3
  6034  0021DA  EC5C  F021         	call	_floorf	;wreg free
  6035  0021DE  C033  F086         	movff	?_floorf,efgtoa@l
  6036  0021E2  C034  F087         	movff	?_floorf+1,efgtoa@l+1
  6037  0021E6  C035  F088         	movff	?_floorf+2,efgtoa@l+2
  6038  0021EA  C036  F089         	movff	?_floorf+3,efgtoa@l+3
  6039                           
  6040                           ;/opt/microchip/xc8/v2.10/pic/sources/c99/common/doprnt.c: 448:         d = (int)l;
  6041  0021EE  C086  F001         	movff	efgtoa@l,___fltol@f1
  6042  0021F2  C087  F002         	movff	efgtoa@l+1,___fltol@f1+1
  6043  0021F6  C088  F003         	movff	efgtoa@l+2,___fltol@f1+2
  6044  0021FA  C089  F004         	movff	efgtoa@l+3,___fltol@f1+3
  6045  0021FE  EC3C  F028         	call	___fltol	;wreg free
  6046  002202  C001  F078         	movff	?___fltol,efgtoa@d
  6047  002206  C002  F079         	movff	?___fltol+1,efgtoa@d+1
  6048  00220A                     
  6049                           ;/opt/microchip/xc8/v2.10/pic/sources/c99/common/doprnt.c: 449:         if (!(flags & (1
      +                           << 4)) && !d && (mode == 'g') && (ne < 0)) {
  6050  00220A  0100               	movlb	0	; () banked
  6051  00220C  B9FC               	btfsc	_flags& (0+255),4,b
  6052  00220E  EF0B  F011         	goto	u6481
  6053  002212  EF0D  F011         	goto	u6480
  6054  002216                     u6481:
  6055  002216  EF2A  F011         	goto	l5145
  6056  00221A                     u6480:
  6057  00221A                     
  6058                           ; BSR set to: 0
  6059  00221A  5178               	movf	efgtoa@d& (0+255),w,b
  6060  00221C  1179               	iorwf	(efgtoa@d+1)& (0+255),w,b
  6061  00221E  A4D8               	btfss	status,2,c
  6062  002220  EF14  F011         	goto	u6491
  6063  002224  EF16  F011         	goto	u6490
  6064  002228                     u6491:
  6065  002228  EF2A  F011         	goto	l5145
  6066  00222C                     u6490:
  6067  00222C                     
  6068                           ; BSR set to: 0
  6069  00222C  0E67               	movlw	103
  6070  00222E  1981               	xorwf	efgtoa@mode& (0+255),w,b
  6071  002230  A4D8               	btfss	status,2,c
  6072  002232  EF1D  F011         	goto	u6501
  6073  002236  EF1F  F011         	goto	u6500
  6074  00223A                     u6501:
  6075  00223A  EF2A  F011         	goto	l5145
  6076  00223E                     u6500:
  6077  00223E                     
  6078                           ; BSR set to: 0
  6079  00223E  BF77               	btfsc	(efgtoa@ne+1)& (0+255),7,b
  6080  002240  EF26  F011         	goto	u6510
  6081  002244  EF24  F011         	goto	u6511
  6082  002248                     u6511:
  6083  002248  EF2A  F011         	goto	l5145
  6084  00224C                     u6510:
  6085  00224C                     
  6086                           ; BSR set to: 0
  6087                           ;/opt/microchip/xc8/v2.10/pic/sources/c99/common/doprnt.c: 450:             ++t;
  6088  00224C  4B70               	infsnz	efgtoa@t& (0+255),f,b
  6089  00224E  2B71               	incf	(efgtoa@t+1)& (0+255),f,b
  6090                           
  6091                           ;/opt/microchip/xc8/v2.10/pic/sources/c99/common/doprnt.c: 451:         } else {
  6092  002250  EF74  F011         	goto	l5173
  6093  002254                     l5145:
  6094                           
  6095                           ; BSR set to: 0
  6096                           ;/opt/microchip/xc8/v2.10/pic/sources/c99/common/doprnt.c: 452:             if (!pp && (
      +                          ne < 0)) {
  6097  002254  5172               	movf	efgtoa@pp& (0+255),w,b
  6098  002256  1173               	iorwf	(efgtoa@pp+1)& (0+255),w,b
  6099  002258  A4D8               	btfss	status,2,c
  6100  00225A  EF31  F011         	goto	u6521
  6101  00225E  EF33  F011         	goto	u6520
  6102  002262                     u6521:
  6103  002262  EF5D  F011         	goto	l5165
  6104  002266                     u6520:
  6105  002266                     
  6106                           ; BSR set to: 0
  6107  002266  BF77               	btfsc	(efgtoa@ne+1)& (0+255),7,b
  6108  002268  EF3A  F011         	goto	u6530
  6109  00226C  EF38  F011         	goto	u6531
  6110  002270                     u6531:
  6111  002270  EF5D  F011         	goto	l5165
  6112  002274                     u6530:
  6113  002274                     
  6114                           ; BSR set to: 0
  6115                           ;/opt/microchip/xc8/v2.10/pic/sources/c99/common/doprnt.c: 453:                 dbuf[n++
      +                          ] = '.';
  6116  002274  0E00               	movlw	low _dbuf
  6117  002276  2592               	addwf	efgtoa@n& (0+255),w,b
  6118  002278  6ED9               	movwf	fsr2l,c
  6119  00227A  0E02               	movlw	high _dbuf
  6120  00227C  2193               	addwfc	(efgtoa@n+1)& (0+255),w,b
  6121  00227E  6EDA               	movwf	fsr2h,c
  6122  002280  0E2E               	movlw	46
  6123  002282  6EDF               	movwf	indf2,c
  6124  002284                     
  6125                           ; BSR set to: 0
  6126  002284  4B92               	infsnz	efgtoa@n& (0+255),f,b
  6127  002286  2B93               	incf	(efgtoa@n+1)& (0+255),f,b
  6128  002288                     
  6129                           ; BSR set to: 0
  6130                           ;/opt/microchip/xc8/v2.10/pic/sources/c99/common/doprnt.c: 454:                 --w;
  6131  002288  077F               	decf	efgtoa@w& (0+255),f,b
  6132  00228A  A0D8               	btfss	status,0,c
  6133  00228C  0780               	decf	(efgtoa@w+1)& (0+255),f,b
  6134  00228E                     
  6135                           ; BSR set to: 0
  6136                           ;/opt/microchip/xc8/v2.10/pic/sources/c99/common/doprnt.c: 455:                 pp = 1;
  6137  00228E  0E00               	movlw	0
  6138  002290  6F73               	movwf	(efgtoa@pp+1)& (0+255),b
  6139  002292  0E01               	movlw	1
  6140  002294  6F72               	movwf	efgtoa@pp& (0+255),b
  6141  002296  EF5D  F011         	goto	l5165
  6142  00229A                     l5157:
  6143                           
  6144                           ; BSR set to: 0
  6145                           ;/opt/microchip/xc8/v2.10/pic/sources/c99/common/doprnt.c: 458:                 dbuf[n++
      +                          ] = '0';
  6146  00229A  0E00               	movlw	low _dbuf
  6147  00229C  2592               	addwf	efgtoa@n& (0+255),w,b
  6148  00229E  6ED9               	movwf	fsr2l,c
  6149  0022A0  0E02               	movlw	high _dbuf
  6150  0022A2  2193               	addwfc	(efgtoa@n+1)& (0+255),w,b
  6151  0022A4  6EDA               	movwf	fsr2h,c
  6152  0022A6  0E30               	movlw	48
  6153  0022A8  6EDF               	movwf	indf2,c
  6154  0022AA                     
  6155                           ; BSR set to: 0
  6156  0022AA  4B92               	infsnz	efgtoa@n& (0+255),f,b
  6157  0022AC  2B93               	incf	(efgtoa@n+1)& (0+255),f,b
  6158  0022AE                     
  6159                           ; BSR set to: 0
  6160                           ;/opt/microchip/xc8/v2.10/pic/sources/c99/common/doprnt.c: 459:                 --w;
  6161  0022AE  077F               	decf	efgtoa@w& (0+255),f,b
  6162  0022B0  A0D8               	btfss	status,0,c
  6163  0022B2  0780               	decf	(efgtoa@w+1)& (0+255),f,b
  6164  0022B4                     
  6165                           ; BSR set to: 0
  6166                           ;/opt/microchip/xc8/v2.10/pic/sources/c99/common/doprnt.c: 460:                 --t;
  6167  0022B4  0770               	decf	efgtoa@t& (0+255),f,b
  6168  0022B6  A0D8               	btfss	status,0,c
  6169  0022B8  0771               	decf	(efgtoa@t+1)& (0+255),f,b
  6170  0022BA                     l5165:
  6171                           
  6172                           ; BSR set to: 0
  6173                           ;/opt/microchip/xc8/v2.10/pic/sources/c99/common/doprnt.c: 457:             while (t) {
  6174  0022BA  5170               	movf	efgtoa@t& (0+255),w,b
  6175  0022BC  1171               	iorwf	(efgtoa@t+1)& (0+255),w,b
  6176  0022BE  A4D8               	btfss	status,2,c
  6177  0022C0  EF64  F011         	goto	u6541
  6178  0022C4  EF66  F011         	goto	u6540
  6179  0022C8                     u6541:
  6180  0022C8  EF4D  F011         	goto	l5157
  6181  0022CC                     u6540:
  6182  0022CC                     
  6183                           ; BSR set to: 0
  6184                           ;/opt/microchip/xc8/v2.10/pic/sources/c99/common/doprnt.c: 462:             dbuf[n++] = 
      +                          '0' + d;
  6185  0022CC  0E00               	movlw	low _dbuf
  6186  0022CE  2592               	addwf	efgtoa@n& (0+255),w,b
  6187  0022D0  6ED9               	movwf	fsr2l,c
  6188  0022D2  0E02               	movlw	high _dbuf
  6189  0022D4  2193               	addwfc	(efgtoa@n+1)& (0+255),w,b
  6190  0022D6  6EDA               	movwf	fsr2h,c
  6191  0022D8  5178               	movf	efgtoa@d& (0+255),w,b
  6192  0022DA  0F30               	addlw	48
  6193  0022DC  6EDF               	movwf	indf2,c
  6194  0022DE                     
  6195                           ; BSR set to: 0
  6196  0022DE  4B92               	infsnz	efgtoa@n& (0+255),f,b
  6197  0022E0  2B93               	incf	(efgtoa@n+1)& (0+255),f,b
  6198  0022E2                     
  6199                           ; BSR set to: 0
  6200                           ;/opt/microchip/xc8/v2.10/pic/sources/c99/common/doprnt.c: 463:             --w;
  6201  0022E2  077F               	decf	efgtoa@w& (0+255),f,b
  6202  0022E4  A0D8               	btfss	status,0,c
  6203  0022E6  0780               	decf	(efgtoa@w+1)& (0+255),f,b
  6204  0022E8                     l5173:
  6205                           
  6206                           ; BSR set to: 0
  6207                           ;/opt/microchip/xc8/v2.10/pic/sources/c99/common/doprnt.c: 465:         h -= l*u;
  6208  0022E8  C082  F043         	movff	efgtoa@h,___flsub@b
  6209  0022EC  C083  F044         	movff	efgtoa@h+1,___flsub@b+1
  6210  0022F0  C084  F045         	movff	efgtoa@h+2,___flsub@b+2
  6211  0022F4  C085  F046         	movff	efgtoa@h+3,___flsub@b+3
  6212  0022F8  C094  F005         	movff	efgtoa@u,___flmul@a
  6213  0022FC  C095  F006         	movff	efgtoa@u+1,___flmul@a+1
  6214  002300  C096  F007         	movff	efgtoa@u+2,___flmul@a+2
  6215  002304  C097  F008         	movff	efgtoa@u+3,___flmul@a+3
  6216  002308  C086  F001         	movff	efgtoa@l,___flmul@b
  6217  00230C  C087  F002         	movff	efgtoa@l+1,___flmul@b+1
  6218  002310  C088  F003         	movff	efgtoa@l+2,___flmul@b+2
  6219  002314  C089  F004         	movff	efgtoa@l+3,___flmul@b+3
  6220  002318  EC98  F01A         	call	___flmul	;wreg free
  6221  00231C  C001  F047         	movff	?___flmul,___flsub@a
  6222  002320  C002  F048         	movff	?___flmul+1,___flsub@a+1
  6223  002324  C003  F049         	movff	?___flmul+2,___flsub@a+2
  6224  002328  C004  F04A         	movff	?___flmul+3,___flsub@a+3
  6225  00232C  ECE3  F02F         	call	___flsub	;wreg free
  6226  002330  C043  F082         	movff	?___flsub,efgtoa@h
  6227  002334  C044  F083         	movff	?___flsub+1,efgtoa@h+1
  6228  002338  C045  F084         	movff	?___flsub+2,efgtoa@h+2
  6229  00233C  C046  F085         	movff	?___flsub+3,efgtoa@h+3
  6230  002340                     
  6231                           ;/opt/microchip/xc8/v2.10/pic/sources/c99/common/doprnt.c: 466:         u = u/10.0;
  6232  002340  C094  F01A         	movff	efgtoa@u,___fldiv@b
  6233  002344  C095  F01B         	movff	efgtoa@u+1,___fldiv@b+1
  6234  002348  C096  F01C         	movff	efgtoa@u+2,___fldiv@b+2
  6235  00234C  C097  F01D         	movff	efgtoa@u+3,___fldiv@b+3
  6236  002350  0E00               	movlw	0
  6237  002352  6E1E               	movwf	___fldiv@a^0,c
  6238  002354  0E00               	movlw	0
  6239  002356  6E1F               	movwf	(___fldiv@a+1)^0,c
  6240  002358  0E20               	movlw	32
  6241  00235A  6E20               	movwf	(___fldiv@a+2)^0,c
  6242  00235C  0E41               	movlw	65
  6243  00235E  6E21               	movwf	(___fldiv@a+3)^0,c
  6244  002360  ECAD  F01C         	call	___fldiv	;wreg free
  6245  002364  C01A  F094         	movff	?___fldiv,efgtoa@u
  6246  002368  C01B  F095         	movff	?___fldiv+1,efgtoa@u+1
  6247  00236C  C01C  F096         	movff	?___fldiv+2,efgtoa@u+2
  6248  002370  C01D  F097         	movff	?___fldiv+3,efgtoa@u+3
  6249  002374                     
  6250                           ;/opt/microchip/xc8/v2.10/pic/sources/c99/common/doprnt.c: 467:         --ne;
  6251  002374  0100               	movlb	0	; () banked
  6252  002376  0776               	decf	efgtoa@ne& (0+255),f,b
  6253  002378  A0D8               	btfss	status,0,c
  6254  00237A  0777               	decf	(efgtoa@ne+1)& (0+255),f,b
  6255  00237C                     
  6256                           ; BSR set to: 0
  6257                           ;/opt/microchip/xc8/v2.10/pic/sources/c99/common/doprnt.c: 468:         ++i;
  6258  00237C  4B8A               	infsnz	efgtoa@i& (0+255),f,b
  6259  00237E  2B8B               	incf	(efgtoa@i+1)& (0+255),f,b
  6260  002380                     l5181:
  6261                           
  6262                           ; BSR set to: 0
  6263                           ;/opt/microchip/xc8/v2.10/pic/sources/c99/common/doprnt.c: 446:     while ((i < m) && (n
      +                           < (80 - 5))) {
  6264  002380  5174               	movf	efgtoa@m& (0+255),w,b
  6265  002382  5D8A               	subwf	efgtoa@i& (0+255),w,b
  6266  002384  518B               	movf	(efgtoa@i+1)& (0+255),w,b
  6267  002386  0A80               	xorlw	128
  6268  002388  6E52               	movwf	??_efgtoa^0,c
  6269  00238A  5175               	movf	(efgtoa@m+1)& (0+255),w,b
  6270  00238C  0A80               	xorlw	128
  6271  00238E  5852               	subwfb	??_efgtoa^0,w,c
  6272  002390  B0D8               	btfsc	status,0,c
  6273  002392  EFCD  F011         	goto	u6551
  6274  002396  EFCF  F011         	goto	u6550
  6275  00239A                     u6551:
  6276  00239A  EFDD  F011         	goto	l5185
  6277  00239E                     u6550:
  6278  00239E                     
  6279                           ; BSR set to: 0
  6280  00239E  BF93               	btfsc	(efgtoa@n+1)& (0+255),7,b
  6281  0023A0  EFDB  F011         	goto	u6561
  6282  0023A4  5193               	movf	(efgtoa@n+1)& (0+255),w,b
  6283  0023A6  E109               	bnz	u6560
  6284  0023A8  0E4B               	movlw	75
  6285  0023AA  5D92               	subwf	efgtoa@n& (0+255),w,b
  6286  0023AC  A0D8               	btfss	status,0,c
  6287  0023AE  EFDB  F011         	goto	u6561
  6288  0023B2  EFDD  F011         	goto	u6560
  6289  0023B6                     u6561:
  6290  0023B6  EFD3  F010         	goto	l5133
  6291  0023BA                     u6560:
  6292  0023BA                     l5185:
  6293                           
  6294                           ; BSR set to: 0
  6295                           ;/opt/microchip/xc8/v2.10/pic/sources/c99/common/doprnt.c: 470:     if (!pp && (flags & 
      +                          (1 << 4))) {
  6296  0023BA  5172               	movf	efgtoa@pp& (0+255),w,b
  6297  0023BC  1173               	iorwf	(efgtoa@pp+1)& (0+255),w,b
  6298  0023BE  A4D8               	btfss	status,2,c
  6299  0023C0  EFE4  F011         	goto	u6571
  6300  0023C4  EFE6  F011         	goto	u6570
  6301  0023C8                     u6571:
  6302  0023C8  EFF7  F011         	goto	l5193
  6303  0023CC                     u6570:
  6304  0023CC                     
  6305                           ; BSR set to: 0
  6306  0023CC  A9FC               	btfss	_flags& (0+255),4,b
  6307  0023CE  EFEB  F011         	goto	u6581
  6308  0023D2  EFED  F011         	goto	u6580
  6309  0023D6                     u6581:
  6310  0023D6  EFF7  F011         	goto	l5193
  6311  0023DA                     u6580:
  6312  0023DA                     
  6313                           ; BSR set to: 0
  6314                           ;/opt/microchip/xc8/v2.10/pic/sources/c99/common/doprnt.c: 471:         dbuf[n++] = '.';
  6315  0023DA  0E00               	movlw	low _dbuf
  6316  0023DC  2592               	addwf	efgtoa@n& (0+255),w,b
  6317  0023DE  6ED9               	movwf	fsr2l,c
  6318  0023E0  0E02               	movlw	high _dbuf
  6319  0023E2  2193               	addwfc	(efgtoa@n+1)& (0+255),w,b
  6320  0023E4  6EDA               	movwf	fsr2h,c
  6321  0023E6  0E2E               	movlw	46
  6322  0023E8  6EDF               	movwf	indf2,c
  6323  0023EA                     
  6324                           ; BSR set to: 0
  6325  0023EA  4B92               	infsnz	efgtoa@n& (0+255),f,b
  6326  0023EC  2B93               	incf	(efgtoa@n+1)& (0+255),f,b
  6327  0023EE                     l5193:
  6328                           
  6329                           ; BSR set to: 0
  6330                           ;/opt/microchip/xc8/v2.10/pic/sources/c99/common/doprnt.c: 473:     dbuf[n] = '\0';
  6331  0023EE  0E00               	movlw	low _dbuf
  6332  0023F0  2592               	addwf	efgtoa@n& (0+255),w,b
  6333  0023F2  6ED9               	movwf	fsr2l,c
  6334  0023F4  0E02               	movlw	high _dbuf
  6335  0023F6  2193               	addwfc	(efgtoa@n+1)& (0+255),w,b
  6336  0023F8  6EDA               	movwf	fsr2h,c
  6337  0023FA  0E00               	movlw	0
  6338  0023FC  6EDF               	movwf	indf2,c
  6339  0023FE                     
  6340                           ; BSR set to: 0
  6341                           ;/opt/microchip/xc8/v2.10/pic/sources/c99/common/doprnt.c: 476:     if (nmode == 'e') {
  6342  0023FE  0E65               	movlw	101
  6343  002400  197E               	xorwf	efgtoa@nmode& (0+255),w,b
  6344  002402  A4D8               	btfss	status,2,c
  6345  002404  EF06  F012         	goto	u6591
  6346  002408  EF08  F012         	goto	u6590
  6347  00240C                     u6591:
  6348  00240C  EFB6  F00D         	goto	l5005
  6349  002410                     u6590:
  6350  002410                     
  6351                           ; BSR set to: 0
  6352                           ;/opt/microchip/xc8/v2.10/pic/sources/c99/common/doprnt.c: 477:         i = sizeof(dbuf)
      +                           - 1;
  6353  002410  0E00               	movlw	0
  6354  002412  6F8B               	movwf	(efgtoa@i+1)& (0+255),b
  6355  002414  0E4F               	movlw	79
  6356  002416  6F8A               	movwf	efgtoa@i& (0+255),b
  6357  002418                     
  6358                           ; BSR set to: 0
  6359                           ;/opt/microchip/xc8/v2.10/pic/sources/c99/common/doprnt.c: 478:         dbuf[i] = '\0';
  6360  002418  0E00               	movlw	low _dbuf
  6361  00241A  258A               	addwf	efgtoa@i& (0+255),w,b
  6362  00241C  6ED9               	movwf	fsr2l,c
  6363  00241E  0E02               	movlw	high _dbuf
  6364  002420  218B               	addwfc	(efgtoa@i+1)& (0+255),w,b
  6365  002422  6EDA               	movwf	fsr2h,c
  6366  002424  0E00               	movlw	0
  6367  002426  6EDF               	movwf	indf2,c
  6368  002428                     
  6369                           ; BSR set to: 0
  6370                           ;/opt/microchip/xc8/v2.10/pic/sources/c99/common/doprnt.c: 479:         sign = 0;
  6371  002428  0E00               	movlw	0
  6372  00242A  6F7B               	movwf	(efgtoa@sign+1)& (0+255),b
  6373  00242C  0E00               	movlw	0
  6374  00242E  6F7A               	movwf	efgtoa@sign& (0+255),b
  6375  002430                     
  6376                           ; BSR set to: 0
  6377                           ;/opt/microchip/xc8/v2.10/pic/sources/c99/common/doprnt.c: 480:         if (e < 0) {
  6378  002430  BF91               	btfsc	(efgtoa@e+1)& (0+255),7,b
  6379  002432  EF1F  F012         	goto	u6600
  6380  002436  EF1D  F012         	goto	u6601
  6381  00243A                     u6601:
  6382  00243A  EF27  F012         	goto	l5209
  6383  00243E                     u6600:
  6384  00243E                     
  6385                           ; BSR set to: 0
  6386                           ;/opt/microchip/xc8/v2.10/pic/sources/c99/common/doprnt.c: 481:             sign = 1;
  6387  00243E  0E00               	movlw	0
  6388  002440  6F7B               	movwf	(efgtoa@sign+1)& (0+255),b
  6389  002442  0E01               	movlw	1
  6390  002444  6F7A               	movwf	efgtoa@sign& (0+255),b
  6391  002446                     
  6392                           ; BSR set to: 0
  6393                           ;/opt/microchip/xc8/v2.10/pic/sources/c99/common/doprnt.c: 482:             e = -e;
  6394  002446  6D90               	negf	efgtoa@e& (0+255),b
  6395  002448  1F91               	comf	(efgtoa@e+1)& (0+255),f,b
  6396  00244A  B0D8               	btfsc	status,0,c
  6397  00244C  2B91               	incf	(efgtoa@e+1)& (0+255),f,b
  6398  00244E                     l5209:
  6399                           
  6400                           ; BSR set to: 0
  6401                           ;/opt/microchip/xc8/v2.10/pic/sources/c99/common/doprnt.c: 484:         p = 2;
  6402  00244E  0E00               	movlw	0
  6403  002450  6F7D               	movwf	(efgtoa@p+1)& (0+255),b
  6404  002452  0E02               	movlw	2
  6405  002454  6F7C               	movwf	efgtoa@p& (0+255),b
  6406                           
  6407                           ;/opt/microchip/xc8/v2.10/pic/sources/c99/common/doprnt.c: 485:         while (e || (0 <
      +                           p)) {
  6408  002456  EF58  F012         	goto	l5221
  6409  00245A                     l5211:
  6410                           
  6411                           ; BSR set to: 0
  6412                           ;/opt/microchip/xc8/v2.10/pic/sources/c99/common/doprnt.c: 486:             --i;
  6413  00245A  078A               	decf	efgtoa@i& (0+255),f,b
  6414  00245C  A0D8               	btfss	status,0,c
  6415  00245E  078B               	decf	(efgtoa@i+1)& (0+255),f,b
  6416  002460                     
  6417                           ; BSR set to: 0
  6418                           ;/opt/microchip/xc8/v2.10/pic/sources/c99/common/doprnt.c: 487:             dbuf[i] = '0
      +                          ' + (e % 10);
  6419  002460  0E00               	movlw	low _dbuf
  6420  002462  258A               	addwf	efgtoa@i& (0+255),w,b
  6421  002464  6ED9               	movwf	fsr2l,c
  6422  002466  0E02               	movlw	high _dbuf
  6423  002468  218B               	addwfc	(efgtoa@i+1)& (0+255),w,b
  6424  00246A  6EDA               	movwf	fsr2h,c
  6425  00246C  C090  F009         	movff	efgtoa@e,___awmod@dividend
  6426  002470  C091  F00A         	movff	efgtoa@e+1,___awmod@dividend+1
  6427  002474  0E00               	movlw	0
  6428  002476  6E0C               	movwf	(___awmod@divisor+1)^0,c
  6429  002478  0E0A               	movlw	10
  6430  00247A  6E0B               	movwf	___awmod@divisor^0,c
  6431  00247C  ECBF  F02B         	call	___awmod	;wreg free
  6432  002480  5009               	movf	?___awmod^0,w,c
  6433  002482  0F30               	addlw	48
  6434  002484  6EDF               	movwf	indf2,c
  6435  002486                     
  6436                           ;/opt/microchip/xc8/v2.10/pic/sources/c99/common/doprnt.c: 488:             e = e / 10;
  6437  002486  C090  F001         	movff	efgtoa@e,___awdiv@dividend
  6438  00248A  C091  F002         	movff	efgtoa@e+1,___awdiv@dividend+1
  6439  00248E  0E00               	movlw	0
  6440  002490  6E04               	movwf	(___awdiv@divisor+1)^0,c
  6441  002492  0E0A               	movlw	10
  6442  002494  6E03               	movwf	___awdiv@divisor^0,c
  6443  002496  EC5D  F02B         	call	___awdiv	;wreg free
  6444  00249A  C001  F090         	movff	?___awdiv,efgtoa@e
  6445  00249E  C002  F091         	movff	?___awdiv+1,efgtoa@e+1
  6446  0024A2                     
  6447                           ;/opt/microchip/xc8/v2.10/pic/sources/c99/common/doprnt.c: 489:             --p;
  6448  0024A2  0100               	movlb	0	; () banked
  6449  0024A4  077C               	decf	efgtoa@p& (0+255),f,b
  6450  0024A6  A0D8               	btfss	status,0,c
  6451  0024A8  077D               	decf	(efgtoa@p+1)& (0+255),f,b
  6452  0024AA                     
  6453                           ; BSR set to: 0
  6454                           ;/opt/microchip/xc8/v2.10/pic/sources/c99/common/doprnt.c: 490:             --w;
  6455  0024AA  077F               	decf	efgtoa@w& (0+255),f,b
  6456  0024AC  A0D8               	btfss	status,0,c
  6457  0024AE  0780               	decf	(efgtoa@w+1)& (0+255),f,b
  6458  0024B0                     l5221:
  6459                           
  6460                           ; BSR set to: 0
  6461                           ;/opt/microchip/xc8/v2.10/pic/sources/c99/common/doprnt.c: 485:         while (e || (0 <
      +                           p)) {
  6462  0024B0  5190               	movf	efgtoa@e& (0+255),w,b
  6463  0024B2  1191               	iorwf	(efgtoa@e+1)& (0+255),w,b
  6464  0024B4  A4D8               	btfss	status,2,c
  6465  0024B6  EF5F  F012         	goto	u6611
  6466  0024BA  EF61  F012         	goto	u6610
  6467  0024BE                     u6611:
  6468  0024BE  EF2D  F012         	goto	l5211
  6469  0024C2                     u6610:
  6470  0024C2                     
  6471                           ; BSR set to: 0
  6472  0024C2  BF7D               	btfsc	(efgtoa@p+1)& (0+255),7,b
  6473  0024C4  EF6E  F012         	goto	u6620
  6474  0024C8  517D               	movf	(efgtoa@p+1)& (0+255),w,b
  6475  0024CA  E106               	bnz	u6621
  6476  0024CC  057C               	decf	efgtoa@p& (0+255),w,b
  6477  0024CE  B0D8               	btfsc	status,0,c
  6478  0024D0  EF6C  F012         	goto	u6621
  6479  0024D4  EF6E  F012         	goto	u6620
  6480  0024D8                     u6621:
  6481  0024D8  EF2D  F012         	goto	l5211
  6482  0024DC                     u6620:
  6483  0024DC                     
  6484                           ; BSR set to: 0
  6485                           ;/opt/microchip/xc8/v2.10/pic/sources/c99/common/doprnt.c: 492:         --i;
  6486  0024DC  078A               	decf	efgtoa@i& (0+255),f,b
  6487  0024DE  A0D8               	btfss	status,0,c
  6488  0024E0  078B               	decf	(efgtoa@i+1)& (0+255),f,b
  6489  0024E2                     
  6490                           ; BSR set to: 0
  6491                           ;/opt/microchip/xc8/v2.10/pic/sources/c99/common/doprnt.c: 493:         dbuf[i] = sign ?
      +                           '-' : '+';
  6492  0024E2  517A               	movf	efgtoa@sign& (0+255),w,b
  6493  0024E4  117B               	iorwf	(efgtoa@sign+1)& (0+255),w,b
  6494  0024E6  A4D8               	btfss	status,2,c
  6495  0024E8  EF78  F012         	goto	u6631
  6496  0024EC  EF7A  F012         	goto	u6630
  6497  0024F0                     u6631:
  6498  0024F0  EF80  F012         	goto	l5231
  6499  0024F4                     u6630:
  6500  0024F4                     
  6501                           ; BSR set to: 0
  6502  0024F4  0E00               	movlw	0
  6503  0024F6  6F6B               	movwf	(_efgtoa$638+1)& (0+255),b
  6504  0024F8  0E2B               	movlw	43
  6505  0024FA  6F6A               	movwf	_efgtoa$638& (0+255),b
  6506  0024FC  EF84  F012         	goto	l5233
  6507  002500                     l5231:
  6508                           
  6509                           ; BSR set to: 0
  6510  002500  0E00               	movlw	0
  6511  002502  6F6B               	movwf	(_efgtoa$638+1)& (0+255),b
  6512  002504  0E2D               	movlw	45
  6513  002506  6F6A               	movwf	_efgtoa$638& (0+255),b
  6514  002508                     l5233:
  6515                           
  6516                           ; BSR set to: 0
  6517  002508  0E00               	movlw	low _dbuf
  6518  00250A  258A               	addwf	efgtoa@i& (0+255),w,b
  6519  00250C  6ED9               	movwf	fsr2l,c
  6520  00250E  0E02               	movlw	high _dbuf
  6521  002510  218B               	addwfc	(efgtoa@i+1)& (0+255),w,b
  6522  002512  6EDA               	movwf	fsr2h,c
  6523  002514  C06A  FFDF         	movff	_efgtoa$638,indf2
  6524  002518                     
  6525                           ; BSR set to: 0
  6526                           ;/opt/microchip/xc8/v2.10/pic/sources/c99/common/doprnt.c: 494:         --w;
  6527  002518  077F               	decf	efgtoa@w& (0+255),f,b
  6528  00251A  A0D8               	btfss	status,0,c
  6529  00251C  0780               	decf	(efgtoa@w+1)& (0+255),f,b
  6530  00251E                     
  6531                           ; BSR set to: 0
  6532                           ;/opt/microchip/xc8/v2.10/pic/sources/c99/common/doprnt.c: 496:         dbuf[i] = (0 ? i
      +                          supper((int)c) : ((unsigned)((int)c)-'A') < 26) ? 'E' : 'e';
  6533  00251E  078A               	decf	efgtoa@i& (0+255),f,b
  6534  002520  A0D8               	btfss	status,0,c
  6535  002522  078B               	decf	(efgtoa@i+1)& (0+255),f,b
  6536  002524                     
  6537                           ; BSR set to: 0
  6538  002524  0EBF               	movlw	191
  6539  002526  6E52               	movwf	??_efgtoa^0,c
  6540  002528  0EFF               	movlw	255
  6541  00252A  6E53               	movwf	(??_efgtoa+1)^0,c
  6542  00252C  5051               	movf	efgtoa@c^0,w,c
  6543  00252E  6E54               	movwf	(??_efgtoa+2)^0,c
  6544  002530  6A55               	clrf	(??_efgtoa+3)^0,c
  6545  002532  5052               	movf	??_efgtoa^0,w,c
  6546  002534  2654               	addwf	(??_efgtoa+2)^0,f,c
  6547  002536  5053               	movf	(??_efgtoa+1)^0,w,c
  6548  002538  2255               	addwfc	(??_efgtoa+3)^0,f,c
  6549  00253A  5055               	movf	(??_efgtoa+3)^0,w,c
  6550  00253C  E10A               	bnz	u6640
  6551  00253E  0E1A               	movlw	26
  6552  002540  5C54               	subwf	(??_efgtoa+2)^0,w,c
  6553  002542  A0D8               	btfss	status,0,c
  6554  002544  EFA6  F012         	goto	u6641
  6555  002548  EFA9  F012         	goto	u6640
  6556  00254C                     u6641:
  6557  00254C  0E01               	movlw	1
  6558  00254E  EFAA  F012         	goto	u6650
  6559  002552                     u6640:
  6560  002552  0E00               	movlw	0
  6561  002554                     u6650:
  6562  002554  6F6E               	movwf	_efgtoa$640& (0+255),b
  6563  002556  6B6F               	clrf	(_efgtoa$640+1)& (0+255),b
  6564  002558                     
  6565                           ; BSR set to: 0
  6566  002558  516E               	movf	_efgtoa$640& (0+255),w,b
  6567  00255A  116F               	iorwf	(_efgtoa$640+1)& (0+255),w,b
  6568  00255C  A4D8               	btfss	status,2,c
  6569  00255E  EFB3  F012         	goto	u6661
  6570  002562  EFB5  F012         	goto	u6660
  6571  002566                     u6661:
  6572  002566  EFBB  F012         	goto	l5247
  6573  00256A                     u6660:
  6574  00256A                     
  6575                           ; BSR set to: 0
  6576  00256A  0E00               	movlw	0
  6577  00256C  6F6D               	movwf	(_efgtoa$639+1)& (0+255),b
  6578  00256E  0E65               	movlw	101
  6579  002570  6F6C               	movwf	_efgtoa$639& (0+255),b
  6580  002572  EFBF  F012         	goto	l5249
  6581  002576                     l5247:
  6582                           
  6583                           ; BSR set to: 0
  6584  002576  0E00               	movlw	0
  6585  002578  6F6D               	movwf	(_efgtoa$639+1)& (0+255),b
  6586  00257A  0E45               	movlw	69
  6587  00257C  6F6C               	movwf	_efgtoa$639& (0+255),b
  6588  00257E                     l5249:
  6589                           
  6590                           ; BSR set to: 0
  6591  00257E  0E00               	movlw	low _dbuf
  6592  002580  258A               	addwf	efgtoa@i& (0+255),w,b
  6593  002582  6ED9               	movwf	fsr2l,c
  6594  002584  0E02               	movlw	high _dbuf
  6595  002586  218B               	addwfc	(efgtoa@i+1)& (0+255),w,b
  6596  002588  6EDA               	movwf	fsr2h,c
  6597  00258A  C06C  FFDF         	movff	_efgtoa$639,indf2
  6598  00258E                     
  6599                           ; BSR set to: 0
  6600                           ;/opt/microchip/xc8/v2.10/pic/sources/c99/common/doprnt.c: 497:         --w;
  6601  00258E  077F               	decf	efgtoa@w& (0+255),f,b
  6602  002590  A0D8               	btfss	status,0,c
  6603  002592  0780               	decf	(efgtoa@w+1)& (0+255),f,b
  6604  002594                     
  6605                           ; BSR set to: 0
  6606                           ;/opt/microchip/xc8/v2.10/pic/sources/c99/common/doprnt.c: 498:         strcpy(&dbuf[n],
      +                           &dbuf[i]);
  6607  002594  0E00               	movlw	low _dbuf
  6608  002596  2592               	addwf	efgtoa@n& (0+255),w,b
  6609  002598  6E01               	movwf	strcpy@dest^0,c
  6610  00259A  0E02               	movlw	high _dbuf
  6611  00259C  2193               	addwfc	(efgtoa@n+1)& (0+255),w,b
  6612  00259E  6E02               	movwf	(strcpy@dest+1)^0,c
  6613  0025A0  0E00               	movlw	low _dbuf
  6614  0025A2  258A               	addwf	efgtoa@i& (0+255),w,b
  6615  0025A4  6E03               	movwf	strcpy@src^0,c
  6616  0025A6  0E02               	movlw	high _dbuf
  6617  0025A8  218B               	addwfc	(efgtoa@i+1)& (0+255),w,b
  6618  0025AA  6E04               	movwf	(strcpy@src+1)^0,c
  6619  0025AC  ECE0  F02E         	call	_strcpy	;wreg free
  6620  0025B0  EFB6  F00D         	goto	l5005
  6621  0025B4                     l295:
  6622  0025B4  0012               	return		;funcret
  6623  0025B6                     __end_of_efgtoa:
  6624                           	opt callstack 0
  6625                           
  6626 ;; *************** function _tolower *****************
  6627 ;; Defined at:
  6628 ;;		line 4 in file "/opt/microchip/xc8/v2.10/pic/sources/c99/common/tolower.c"
  6629 ;; Parameters:    Size  Location     Type
  6630 ;;  c               2    6[COMRAM] int 
  6631 ;; Auto vars:     Size  Location     Type
  6632 ;;		None
  6633 ;; Return value:  Size  Location     Type
  6634 ;;                  2    6[COMRAM] int 
  6635 ;; Registers used:
  6636 ;;		wreg, status,2, status,0
  6637 ;; Tracked objects:
  6638 ;;		On entry : 0/0
  6639 ;;		On exit  : 0/0
  6640 ;;		Unchanged: 0/0
  6641 ;; Data sizes:     COMRAM   BANK0   BANK1   BANK2   BANK3   BANK4   BANK5   BANK6   BANK7
  6642 ;;      Params:         2       0       0       0       0       0       0       0       0
  6643 ;;      Locals:         2       0       0       0       0       0       0       0       0
  6644 ;;      Temps:          4       0       0       0       0       0       0       0       0
  6645 ;;      Totals:         8       0       0       0       0       0       0       0       0
  6646 ;;Total ram usage:        8 bytes
  6647 ;; Hardware stack levels used:    1
  6648 ;; Hardware stack levels required when called:    1
  6649 ;; This function calls:
  6650 ;;		_isupper
  6651 ;; This function is called by:
  6652 ;;		_efgtoa
  6653 ;;		_vfpfcnvrt
  6654 ;; This function uses a non-reentrant model
  6655 ;;
  6656                           
  6657                           	psect	text16
  6658  005D02                     __ptext16:
  6659                           	opt callstack 0
  6660  005D02                     _tolower:
  6661                           	opt callstack 26
  6662  005D02  0EBF               	movlw	191
  6663  005D04  6E09               	movwf	??_tolower^0,c
  6664  005D06  0EFF               	movlw	255
  6665  005D08  6E0A               	movwf	(??_tolower+1)^0,c
  6666  005D0A  C007  F00B         	movff	tolower@c,??_tolower+2
  6667  005D0E  C008  F00C         	movff	tolower@c+1,??_tolower+3
  6668  005D12  5009               	movf	??_tolower^0,w,c
  6669  005D14  260B               	addwf	(??_tolower+2)^0,f,c
  6670  005D16  500A               	movf	(??_tolower+1)^0,w,c
  6671  005D18  220C               	addwfc	(??_tolower+3)^0,f,c
  6672  005D1A  500C               	movf	(??_tolower+3)^0,w,c
  6673  005D1C  E10A               	bnz	u4990
  6674  005D1E  0E1A               	movlw	26
  6675  005D20  5C0B               	subwf	(??_tolower+2)^0,w,c
  6676  005D22  A0D8               	btfss	status,0,c
  6677  005D24  EF96  F02E         	goto	u4991
  6678  005D28  EF99  F02E         	goto	u4990
  6679  005D2C                     u4991:
  6680  005D2C  0E01               	movlw	1
  6681  005D2E  EF9A  F02E         	goto	u5000
  6682  005D32                     u4990:
  6683  005D32  0E00               	movlw	0
  6684  005D34                     u5000:
  6685  005D34  6E0D               	movwf	_tolower$1324^0,c
  6686  005D36  6A0E               	clrf	(_tolower$1324+1)^0,c
  6687  005D38  500D               	movf	_tolower$1324^0,w,c
  6688  005D3A  100E               	iorwf	(_tolower$1324+1)^0,w,c
  6689  005D3C  B4D8               	btfsc	status,2,c
  6690  005D3E  EFA3  F02E         	goto	u5011
  6691  005D42  EFA5  F02E         	goto	u5010
  6692  005D46                     u5011:
  6693  005D46  EFAC  F02E         	goto	l1433
  6694  005D4A                     u5010:
  6695  005D4A  0E20               	movlw	32
  6696  005D4C  1007               	iorwf	tolower@c^0,w,c
  6697  005D4E  6E07               	movwf	?_tolower^0,c
  6698  005D50  5008               	movf	(tolower@c+1)^0,w,c
  6699  005D52  6E08               	movwf	(?_tolower+1)^0,c
  6700  005D54  EFB0  F02E         	goto	l1438
  6701  005D58                     l1433:
  6702  005D58  C007  F007         	movff	tolower@c,?_tolower
  6703  005D5C  C008  F008         	movff	tolower@c+1,?_tolower+1
  6704  005D60                     l1438:
  6705  005D60  0012               	return		;funcret
  6706  005D62                     __end_of_tolower:
  6707                           	opt callstack 0
  6708                           
  6709 ;; *************** function _isupper *****************
  6710 ;; Defined at:
  6711 ;;		line 5 in file "/opt/microchip/xc8/v2.10/pic/sources/c99/common/isupper.c"
  6712 ;; Parameters:    Size  Location     Type
  6713 ;;  c               2    0[COMRAM] int 
  6714 ;; Auto vars:     Size  Location     Type
  6715 ;;		None
  6716 ;; Return value:  Size  Location     Type
  6717 ;;                  2    0[COMRAM] int 
  6718 ;; Registers used:
  6719 ;;		wreg, status,2, status,0
  6720 ;; Tracked objects:
  6721 ;;		On entry : 0/0
  6722 ;;		On exit  : 0/0
  6723 ;;		Unchanged: 0/0
  6724 ;; Data sizes:     COMRAM   BANK0   BANK1   BANK2   BANK3   BANK4   BANK5   BANK6   BANK7
  6725 ;;      Params:         2       0       0       0       0       0       0       0       0
  6726 ;;      Locals:         0       0       0       0       0       0       0       0       0
  6727 ;;      Temps:          4       0       0       0       0       0       0       0       0
  6728 ;;      Totals:         6       0       0       0       0       0       0       0       0
  6729 ;;Total ram usage:        6 bytes
  6730 ;; Hardware stack levels used:    1
  6731 ;; This function calls:
  6732 ;;		Nothing
  6733 ;; This function is called by:
  6734 ;;		_efgtoa
  6735 ;;		_vfpfcnvrt
  6736 ;;		_tolower
  6737 ;; This function uses a non-reentrant model
  6738 ;;
  6739                           
  6740                           	psect	text17
  6741  0060C8                     __ptext17:
  6742                           	opt callstack 0
  6743  0060C8                     _isupper:
  6744                           	opt callstack 26
  6745  0060C8  0EBF               	movlw	191
  6746  0060CA  6E03               	movwf	??_isupper^0,c
  6747  0060CC  0EFF               	movlw	255
  6748  0060CE  6E04               	movwf	(??_isupper+1)^0,c
  6749  0060D0  C001  F005         	movff	isupper@c,??_isupper+2
  6750  0060D4  C002  F006         	movff	isupper@c+1,??_isupper+3
  6751  0060D8  5003               	movf	??_isupper^0,w,c
  6752  0060DA  2605               	addwf	(??_isupper+2)^0,f,c
  6753  0060DC  5004               	movf	(??_isupper+1)^0,w,c
  6754  0060DE  2206               	addwfc	(??_isupper+3)^0,f,c
  6755  0060E0  5006               	movf	(??_isupper+3)^0,w,c
  6756  0060E2  E10A               	bnz	u4440
  6757  0060E4  0E1A               	movlw	26
  6758  0060E6  5C05               	subwf	(??_isupper+2)^0,w,c
  6759  0060E8  A0D8               	btfss	status,0,c
  6760  0060EA  EF79  F030         	goto	u4441
  6761  0060EE  EF7C  F030         	goto	u4440
  6762  0060F2                     u4441:
  6763  0060F2  0E01               	movlw	1
  6764  0060F4  EF7D  F030         	goto	u4450
  6765  0060F8                     u4440:
  6766  0060F8  0E00               	movlw	0
  6767  0060FA                     u4450:
  6768  0060FA  6E01               	movwf	?_isupper^0,c
  6769  0060FC  6A02               	clrf	(?_isupper+1)^0,c
  6770  0060FE  0012               	return		;funcret
  6771  006100                     __end_of_isupper:
  6772                           	opt callstack 0
  6773                           
  6774 ;; *************** function _strcpy *****************
  6775 ;; Defined at:
  6776 ;;		line 3 in file "/opt/microchip/xc8/v2.10/pic/sources/c99/common/strcpy.c"
  6777 ;; Parameters:    Size  Location     Type
  6778 ;;  dest            2    0[COMRAM] PTR unsigned char 
  6779 ;;		 -> dbuf(80), 
  6780 ;;  src             2    2[COMRAM] PTR const unsigned char 
  6781 ;;		 -> STR_19(4), STR_18(4), STR_15(4), STR_14(4), 
  6782 ;;		 -> dbuf(80), 
  6783 ;; Auto vars:     Size  Location     Type
  6784 ;;  d               2    8[COMRAM] PTR unsigned char 
  6785 ;;		 -> dbuf(80), 
  6786 ;;  s               2    6[COMRAM] PTR const unsigned char 
  6787 ;;		 -> STR_19(4), STR_18(4), STR_15(4), STR_14(4), 
  6788 ;;		 -> dbuf(80), 
  6789 ;; Return value:  Size  Location     Type
  6790 ;;                  2    0[COMRAM] PTR unsigned char 
  6791 ;; Registers used:
  6792 ;;		wreg, fsr1l, fsr1h, fsr2l, fsr2h, status,2, status,0, tblptrl, tblptrh, tblptru
  6793 ;; Tracked objects:
  6794 ;;		On entry : 0/0
  6795 ;;		On exit  : 0/0
  6796 ;;		Unchanged: 0/0
  6797 ;; Data sizes:     COMRAM   BANK0   BANK1   BANK2   BANK3   BANK4   BANK5   BANK6   BANK7
  6798 ;;      Params:         4       0       0       0       0       0       0       0       0
  6799 ;;      Locals:         4       0       0       0       0       0       0       0       0
  6800 ;;      Temps:          2       0       0       0       0       0       0       0       0
  6801 ;;      Totals:        10       0       0       0       0       0       0       0       0
  6802 ;;Total ram usage:       10 bytes
  6803 ;; Hardware stack levels used:    1
  6804 ;; This function calls:
  6805 ;;		Nothing
  6806 ;; This function is called by:
  6807 ;;		_efgtoa
  6808 ;; This function uses a non-reentrant model
  6809 ;;
  6810                           
  6811                           	psect	text18
  6812  005DC0                     __ptext18:
  6813                           	opt callstack 0
  6814  005DC0                     _strcpy:
  6815                           	opt callstack 26
  6816  005DC0  C003  F007         	movff	strcpy@src,strcpy@s
  6817  005DC4  C004  F008         	movff	strcpy@src+1,strcpy@s+1
  6818  005DC8  C001  F009         	movff	strcpy@dest,strcpy@d
  6819  005DCC  C002  F00A         	movff	strcpy@dest+1,strcpy@d+1
  6820  005DD0                     l4299:
  6821  005DD0  5007               	movf	strcpy@s^0,w,c
  6822  005DD2  6E05               	movwf	??_strcpy^0,c
  6823  005DD4  5008               	movf	(strcpy@s+1)^0,w,c
  6824  005DD6  6E06               	movwf	(??_strcpy+1)^0,c
  6825  005DD8  4A07               	infsnz	strcpy@s^0,f,c
  6826  005DDA  2A08               	incf	(strcpy@s+1)^0,f,c
  6827  005DDC  C005  FFF6         	movff	??_strcpy,tblptrl
  6828  005DE0  C006  FFF7         	movff	??_strcpy+1,tblptrh
  6829  005DE4  6AF8               	clrf	tblptru,c
  6830  005DE6  C009  FFD9         	movff	strcpy@d,fsr2l
  6831  005DEA  C00A  FFDA         	movff	strcpy@d+1,fsr2h
  6832  005DEE  4A09               	infsnz	strcpy@d^0,f,c
  6833  005DF0  2A0A               	incf	(strcpy@d+1)^0,f,c
  6834  005DF2  0E07               	movlw	(high __ramtop+-1)
  6835  005DF4  64F7               	cpfsgt	tblptrh,c
  6836  005DF6  D003               	bra	u4977
  6837  005DF8  0008               	tblrd		*
  6838  005DFA  50F5               	movf	tablat,w,c
  6839  005DFC  D005               	bra	u4970
  6840  005DFE                     u4977:
  6841  005DFE  CFF6 FFE1          	movff	tblptrl,fsr1l
  6842  005E02  CFF7 FFE2          	movff	tblptrh,fsr1h
  6843  005E06  50E7               	movf	indf1,w,c
  6844  005E08                     u4970:
  6845  005E08  6EDF               	movwf	indf2,c
  6846  005E0A  50DF               	movf	indf2,w,c
  6847  005E0C  A4D8               	btfss	status,2,c
  6848  005E0E  EF0B  F02F         	goto	u4981
  6849  005E12  EF0D  F02F         	goto	u4980
  6850  005E16                     u4981:
  6851  005E16  EFE8  F02E         	goto	l4299
  6852  005E1A                     u4980:
  6853  005E1A  0012               	return		;funcret
  6854  005E1C                     __end_of_strcpy:
  6855                           	opt callstack 0
  6856                           
  6857 ;; *************** function _floorf *****************
  6858 ;; Defined at:
  6859 ;;		line 3 in file "/opt/microchip/xc8/v2.10/pic/sources/c99/common/floorf.c"
  6860 ;; Parameters:    Size  Location     Type
  6861 ;;  x               4   50[COMRAM] float 
  6862 ;; Auto vars:     Size  Location     Type
  6863 ;;  u               4   66[COMRAM] struct .
  6864 ;;  m               4   60[COMRAM] unsigned long 
  6865 ;;  e               2   64[COMRAM] int 
  6866 ;; Return value:  Size  Location     Type
  6867 ;;                  4   50[COMRAM] float 
  6868 ;; Registers used:
  6869 ;;		wreg, status,2, status,0
  6870 ;; Tracked objects:
  6871 ;;		On entry : 0/0
  6872 ;;		On exit  : 0/0
  6873 ;;		Unchanged: 0/0
  6874 ;; Data sizes:     COMRAM   BANK0   BANK1   BANK2   BANK3   BANK4   BANK5   BANK6   BANK7
  6875 ;;      Params:         4       0       0       0       0       0       0       0       0
  6876 ;;      Locals:        10       0       0       0       0       0       0       0       0
  6877 ;;      Temps:          6       0       0       0       0       0       0       0       0
  6878 ;;      Totals:        20       0       0       0       0       0       0       0       0
  6879 ;;Total ram usage:       20 bytes
  6880 ;; Hardware stack levels used:    1
  6881 ;; This function calls:
  6882 ;;		Nothing
  6883 ;; This function is called by:
  6884 ;;		_efgtoa
  6885 ;; This function uses a non-reentrant model
  6886 ;;
  6887                           
  6888                           	psect	text19
  6889  0042B8                     __ptext19:
  6890                           	opt callstack 0
  6891  0042B8                     _floorf:
  6892                           	opt callstack 26
  6893  0042B8  C1F3  F043         	movff	floorf@F524,floorf@u
  6894  0042BC  C1F4  F044         	movff	floorf@F524+1,floorf@u+1
  6895  0042C0  C1F5  F045         	movff	floorf@F524+2,floorf@u+2
  6896  0042C4  C1F6  F046         	movff	floorf@F524+3,floorf@u+3
  6897  0042C8  C033  F043         	movff	floorf@x,floorf@u
  6898  0042CC  C034  F044         	movff	floorf@x+1,floorf@u+1
  6899  0042D0  C035  F045         	movff	floorf@x+2,floorf@u+2
  6900  0042D4  C036  F046         	movff	floorf@x+3,floorf@u+3
  6901  0042D8  0E81               	movlw	129
  6902  0042DA  6E37               	movwf	??_floorf^0,c
  6903  0042DC  0EFF               	movlw	255
  6904  0042DE  6E38               	movwf	(??_floorf+1)^0,c
  6905  0042E0  C043  F039         	movff	floorf@u,??_floorf+2
  6906  0042E4  C044  F03A         	movff	floorf@u+1,??_floorf+3
  6907  0042E8  C045  F03B         	movff	floorf@u+2,??_floorf+4
  6908  0042EC  C046  F03C         	movff	floorf@u+3,??_floorf+5
  6909  0042F0  0E18               	movlw	24
  6910  0042F2  EF80  F021         	goto	u5020
  6911  0042F6                     u5025:
  6912  0042F6  90D8               	bcf	status,0,c
  6913  0042F8  323C               	rrcf	(??_floorf+5)^0,f,c
  6914  0042FA  323B               	rrcf	(??_floorf+4)^0,f,c
  6915  0042FC  323A               	rrcf	(??_floorf+3)^0,f,c
  6916  0042FE  3239               	rrcf	(??_floorf+2)^0,f,c
  6917  004300                     u5020:
  6918  004300  2EE8               	decfsz	wreg,f,c
  6919  004302  EF7B  F021         	goto	u5025
  6920  004306  5039               	movf	(??_floorf+2)^0,w,c
  6921  004308  2437               	addwf	??_floorf^0,w,c
  6922  00430A  6E41               	movwf	floorf@e^0,c
  6923  00430C  0E00               	movlw	0
  6924  00430E  2038               	addwfc	(??_floorf+1)^0,w,c
  6925  004310  6E42               	movwf	(floorf@e+1)^0,c
  6926  004312  BE42               	btfsc	(floorf@e+1)^0,7,c
  6927  004314  EF95  F021         	goto	u5031
  6928  004318  5042               	movf	(floorf@e+1)^0,w,c
  6929  00431A  E109               	bnz	u5030
  6930  00431C  0E17               	movlw	23
  6931  00431E  5C41               	subwf	floorf@e^0,w,c
  6932  004320  A0D8               	btfss	status,0,c
  6933  004322  EF95  F021         	goto	u5031
  6934  004326  EF97  F021         	goto	u5030
  6935  00432A                     u5031:
  6936  00432A  EFA1  F021         	goto	l4317
  6937  00432E                     u5030:
  6938  00432E                     l4315:
  6939  00432E  C033  F033         	movff	floorf@x,?_floorf
  6940  004332  C034  F034         	movff	floorf@x+1,?_floorf+1
  6941  004336  C035  F035         	movff	floorf@x+2,?_floorf+2
  6942  00433A  C036  F036         	movff	floorf@x+3,?_floorf+3
  6943  00433E  EF64  F022         	goto	l1156
  6944  004342                     l4317:
  6945  004342  BE42               	btfsc	(floorf@e+1)^0,7,c
  6946  004344  EFA6  F021         	goto	u5041
  6947  004348  EFA8  F021         	goto	u5040
  6948  00434C                     u5041:
  6949  00434C  EF18  F022         	goto	l4327
  6950  004350                     u5040:
  6951  004350  C041  F037         	movff	floorf@e,??_floorf
  6952  004354  0EFF               	movlw	255
  6953  004356  6E38               	movwf	(??_floorf+1)^0,c
  6954  004358  0EFF               	movlw	255
  6955  00435A  6E39               	movwf	(??_floorf+2)^0,c
  6956  00435C  0E7F               	movlw	127
  6957  00435E  6E3A               	movwf	(??_floorf+3)^0,c
  6958  004360  0E00               	movlw	0
  6959  004362  6E3B               	movwf	(??_floorf+4)^0,c
  6960  004364                     u5055:
  6961  004364  6637               	tstfsz	??_floorf^0,c
  6962  004366  EFB7  F021         	goto	u5056
  6963  00436A  EFBF  F021         	goto	u5057
  6964  00436E                     u5056:
  6965  00436E  343B               	rlcf	(??_floorf+4)^0,w,c
  6966  004370  323B               	rrcf	(??_floorf+4)^0,f,c
  6967  004372  323A               	rrcf	(??_floorf+3)^0,f,c
  6968  004374  3239               	rrcf	(??_floorf+2)^0,f,c
  6969  004376  3238               	rrcf	(??_floorf+1)^0,f,c
  6970  004378  2E37               	decfsz	??_floorf^0,f,c
  6971  00437A  EFB2  F021         	goto	u5055
  6972  00437E                     u5057:
  6973  00437E  C038  F03D         	movff	??_floorf+1,floorf@m
  6974  004382  C039  F03E         	movff	??_floorf+2,floorf@m+1
  6975  004386  C03A  F03F         	movff	??_floorf+3,floorf@m+2
  6976  00438A  C03B  F040         	movff	??_floorf+4,floorf@m+3
  6977  00438E  503D               	movf	floorf@m^0,w,c
  6978  004390  1443               	andwf	floorf@u^0,w,c
  6979  004392  6E37               	movwf	??_floorf^0,c
  6980  004394  503E               	movf	(floorf@m+1)^0,w,c
  6981  004396  1444               	andwf	(floorf@u+1)^0,w,c
  6982  004398  6E38               	movwf	(??_floorf+1)^0,c
  6983  00439A  503F               	movf	(floorf@m+2)^0,w,c
  6984  00439C  1445               	andwf	(floorf@u+2)^0,w,c
  6985  00439E  6E39               	movwf	(??_floorf+2)^0,c
  6986  0043A0  5040               	movf	(floorf@m+3)^0,w,c
  6987  0043A2  1446               	andwf	(floorf@u+3)^0,w,c
  6988  0043A4  6E3A               	movwf	(??_floorf+3)^0,c
  6989  0043A6  5037               	movf	??_floorf^0,w,c
  6990  0043A8  1038               	iorwf	(??_floorf+1)^0,w,c
  6991  0043AA  1039               	iorwf	(??_floorf+2)^0,w,c
  6992  0043AC  103A               	iorwf	(??_floorf+3)^0,w,c
  6993  0043AE  A4D8               	btfss	status,2,c
  6994  0043B0  EFDC  F021         	goto	u5061
  6995  0043B4  EFDE  F021         	goto	u5060
  6996  0043B8                     u5061:
  6997  0043B8  EFE0  F021         	goto	l4323
  6998  0043BC                     u5060:
  6999  0043BC  EF97  F021         	goto	l4315
  7000  0043C0                     l4323:
  7001  0043C0  C043  F037         	movff	floorf@u,??_floorf
  7002  0043C4  C044  F038         	movff	floorf@u+1,??_floorf+1
  7003  0043C8  C045  F039         	movff	floorf@u+2,??_floorf+2
  7004  0043CC  C046  F03A         	movff	floorf@u+3,??_floorf+3
  7005  0043D0  0E20               	movlw	32
  7006  0043D2  EFF0  F021         	goto	u5070
  7007  0043D6                     u5075:
  7008  0043D6  90D8               	bcf	status,0,c
  7009  0043D8  323A               	rrcf	(??_floorf+3)^0,f,c
  7010  0043DA  3239               	rrcf	(??_floorf+2)^0,f,c
  7011  0043DC  3238               	rrcf	(??_floorf+1)^0,f,c
  7012  0043DE  3237               	rrcf	??_floorf^0,f,c
  7013  0043E0                     u5070:
  7014  0043E0  2EE8               	decfsz	wreg,f,c
  7015  0043E2  EFEB  F021         	goto	u5075
  7016  0043E6  5037               	movf	??_floorf^0,w,c
  7017  0043E8  1038               	iorwf	(??_floorf+1)^0,w,c
  7018  0043EA  1039               	iorwf	(??_floorf+2)^0,w,c
  7019  0043EC  103A               	iorwf	(??_floorf+3)^0,w,c
  7020  0043EE  B4D8               	btfsc	status,2,c
  7021  0043F0  EFFC  F021         	goto	u5081
  7022  0043F4  EFFE  F021         	goto	u5080
  7023  0043F8                     u5081:
  7024  0043F8  EF06  F022         	goto	l1159
  7025  0043FC                     u5080:
  7026  0043FC  503D               	movf	floorf@m^0,w,c
  7027  0043FE  2643               	addwf	floorf@u^0,f,c
  7028  004400  503E               	movf	(floorf@m+1)^0,w,c
  7029  004402  2244               	addwfc	(floorf@u+1)^0,f,c
  7030  004404  503F               	movf	(floorf@m+2)^0,w,c
  7031  004406  2245               	addwfc	(floorf@u+2)^0,f,c
  7032  004408  5040               	movf	(floorf@m+3)^0,w,c
  7033  00440A  2246               	addwfc	(floorf@u+3)^0,f,c
  7034  00440C                     l1159:
  7035  00440C  1C3D               	comf	floorf@m^0,w,c
  7036  00440E  6E37               	movwf	??_floorf^0,c
  7037  004410  1C3E               	comf	(floorf@m+1)^0,w,c
  7038  004412  6E38               	movwf	(??_floorf+1)^0,c
  7039  004414  1C3F               	comf	(floorf@m+2)^0,w,c
  7040  004416  6E39               	movwf	(??_floorf+2)^0,c
  7041  004418  1C40               	comf	(floorf@m+3)^0,w,c
  7042  00441A  6E3A               	movwf	(??_floorf+3)^0,c
  7043  00441C  5037               	movf	??_floorf^0,w,c
  7044  00441E  1643               	andwf	floorf@u^0,f,c
  7045  004420  5038               	movf	(??_floorf+1)^0,w,c
  7046  004422  1644               	andwf	(floorf@u+1)^0,f,c
  7047  004424  5039               	movf	(??_floorf+2)^0,w,c
  7048  004426  1645               	andwf	(floorf@u+2)^0,f,c
  7049  004428  503A               	movf	(??_floorf+3)^0,w,c
  7050  00442A  1646               	andwf	(floorf@u+3)^0,f,c
  7051  00442C  EF5C  F022         	goto	l4335
  7052  004430                     l4327:
  7053  004430  C043  F037         	movff	floorf@u,??_floorf
  7054  004434  C044  F038         	movff	floorf@u+1,??_floorf+1
  7055  004438  C045  F039         	movff	floorf@u+2,??_floorf+2
  7056  00443C  C046  F03A         	movff	floorf@u+3,??_floorf+3
  7057  004440  0E20               	movlw	32
  7058  004442  EF28  F022         	goto	u5090
  7059  004446                     u5095:
  7060  004446  90D8               	bcf	status,0,c
  7061  004448  323A               	rrcf	(??_floorf+3)^0,f,c
  7062  00444A  3239               	rrcf	(??_floorf+2)^0,f,c
  7063  00444C  3238               	rrcf	(??_floorf+1)^0,f,c
  7064  00444E  3237               	rrcf	??_floorf^0,f,c
  7065  004450                     u5090:
  7066  004450  2EE8               	decfsz	wreg,f,c
  7067  004452  EF23  F022         	goto	u5095
  7068  004456  5037               	movf	??_floorf^0,w,c
  7069  004458  1038               	iorwf	(??_floorf+1)^0,w,c
  7070  00445A  1039               	iorwf	(??_floorf+2)^0,w,c
  7071  00445C  103A               	iorwf	(??_floorf+3)^0,w,c
  7072  00445E  A4D8               	btfss	status,2,c
  7073  004460  EF34  F022         	goto	u5101
  7074  004464  EF36  F022         	goto	u5100
  7075  004468                     u5101:
  7076  004468  EF40  F022         	goto	l4331
  7077  00446C                     u5100:
  7078  00446C  0E00               	movlw	0
  7079  00446E  6E43               	movwf	floorf@u^0,c
  7080  004470  0E00               	movlw	0
  7081  004472  6E44               	movwf	(floorf@u+1)^0,c
  7082  004474  0E00               	movlw	0
  7083  004476  6E45               	movwf	(floorf@u+2)^0,c
  7084  004478  0E00               	movlw	0
  7085  00447A  6E46               	movwf	(floorf@u+3)^0,c
  7086  00447C  EF5C  F022         	goto	l4335
  7087  004480                     l4331:
  7088  004480  90D8               	bcf	status,0,c
  7089  004482  3443               	rlcf	floorf@u^0,w,c
  7090  004484  6E37               	movwf	??_floorf^0,c
  7091  004486  3444               	rlcf	(floorf@u+1)^0,w,c
  7092  004488  6E38               	movwf	(??_floorf+1)^0,c
  7093  00448A  3445               	rlcf	(floorf@u+2)^0,w,c
  7094  00448C  6E39               	movwf	(??_floorf+2)^0,c
  7095  00448E  3446               	rlcf	(floorf@u+3)^0,w,c
  7096  004490  6E3A               	movwf	(??_floorf+3)^0,c
  7097  004492  5037               	movf	??_floorf^0,w,c
  7098  004494  1038               	iorwf	(??_floorf+1)^0,w,c
  7099  004496  1039               	iorwf	(??_floorf+2)^0,w,c
  7100  004498  103A               	iorwf	(??_floorf+3)^0,w,c
  7101  00449A  B4D8               	btfsc	status,2,c
  7102  00449C  EF52  F022         	goto	u5111
  7103  0044A0  EF54  F022         	goto	u5110
  7104  0044A4                     u5111:
  7105  0044A4  EF5C  F022         	goto	l4335
  7106  0044A8                     u5110:
  7107  0044A8  0E00               	movlw	0
  7108  0044AA  6E43               	movwf	floorf@u^0,c
  7109  0044AC  0E00               	movlw	0
  7110  0044AE  6E44               	movwf	(floorf@u+1)^0,c
  7111  0044B0  0E80               	movlw	128
  7112  0044B2  6E45               	movwf	(floorf@u+2)^0,c
  7113  0044B4  0EBF               	movlw	191
  7114  0044B6  6E46               	movwf	(floorf@u+3)^0,c
  7115  0044B8                     l4335:
  7116  0044B8  C043  F033         	movff	floorf@u,?_floorf
  7117  0044BC  C044  F034         	movff	floorf@u+1,?_floorf+1
  7118  0044C0  C045  F035         	movff	floorf@u+2,?_floorf+2
  7119  0044C4  C046  F036         	movff	floorf@u+3,?_floorf+3
  7120  0044C8                     l1156:
  7121  0044C8  0012               	return		;funcret
  7122  0044CA                     __end_of_floorf:
  7123                           	opt callstack 0
  7124                           
  7125 ;; *************** function ___fpclassifyf *****************
  7126 ;; Defined at:
  7127 ;;		line 4 in file "/opt/microchip/xc8/v2.10/pic/sources/c99/common/__fpclassifyf.c"
  7128 ;; Parameters:    Size  Location     Type
  7129 ;;  x               4    0[COMRAM] float 
  7130 ;; Auto vars:     Size  Location     Type
  7131 ;;  u               4   10[COMRAM] struct .
  7132 ;;  e               2    8[COMRAM] int 
  7133 ;; Return value:  Size  Location     Type
  7134 ;;                  2    0[COMRAM] int 
  7135 ;; Registers used:
  7136 ;;		wreg, status,2, status,0
  7137 ;; Tracked objects:
  7138 ;;		On entry : 0/0
  7139 ;;		On exit  : 0/0
  7140 ;;		Unchanged: 0/0
  7141 ;; Data sizes:     COMRAM   BANK0   BANK1   BANK2   BANK3   BANK4   BANK5   BANK6   BANK7
  7142 ;;      Params:         4       0       0       0       0       0       0       0       0
  7143 ;;      Locals:         6       0       0       0       0       0       0       0       0
  7144 ;;      Temps:          4       0       0       0       0       0       0       0       0
  7145 ;;      Totals:        14       0       0       0       0       0       0       0       0
  7146 ;;Total ram usage:       14 bytes
  7147 ;; Hardware stack levels used:    1
  7148 ;; This function calls:
  7149 ;;		Nothing
  7150 ;; This function is called by:
  7151 ;;		_efgtoa
  7152 ;; This function uses a non-reentrant model
  7153 ;;
  7154                           
  7155                           	psect	text20
  7156  005282                     __ptext20:
  7157                           	opt callstack 0
  7158  005282                     ___fpclassifyf:
  7159                           	opt callstack 26
  7160  005282  C0F2  F00B         	movff	___fpclassifyf@F463,___fpclassifyf@u
  7161  005286  C0F3  F00C         	movff	___fpclassifyf@F463+1,___fpclassifyf@u+1
  7162  00528A  C0F4  F00D         	movff	___fpclassifyf@F463+2,___fpclassifyf@u+2
  7163  00528E  C0F5  F00E         	movff	___fpclassifyf@F463+3,___fpclassifyf@u+3
  7164  005292  C001  F00B         	movff	___fpclassifyf@x,___fpclassifyf@u
  7165  005296  C002  F00C         	movff	___fpclassifyf@x+1,___fpclassifyf@u+1
  7166  00529A  C003  F00D         	movff	___fpclassifyf@x+2,___fpclassifyf@u+2
  7167  00529E  C004  F00E         	movff	___fpclassifyf@x+3,___fpclassifyf@u+3
  7168  0052A2  C00B  F005         	movff	___fpclassifyf@u,??___fpclassifyf
  7169  0052A6  C00C  F006         	movff	___fpclassifyf@u+1,??___fpclassifyf+1
  7170  0052AA  C00D  F007         	movff	___fpclassifyf@u+2,??___fpclassifyf+2
  7171  0052AE  C00E  F008         	movff	___fpclassifyf@u+3,??___fpclassifyf+3
  7172  0052B2  0E18               	movlw	24
  7173  0052B4  EF61  F029         	goto	u4900
  7174  0052B8                     u4905:
  7175  0052B8  90D8               	bcf	status,0,c
  7176  0052BA  3208               	rrcf	(??___fpclassifyf+3)^0,f,c
  7177  0052BC  3207               	rrcf	(??___fpclassifyf+2)^0,f,c
  7178  0052BE  3206               	rrcf	(??___fpclassifyf+1)^0,f,c
  7179  0052C0  3205               	rrcf	??___fpclassifyf^0,f,c
  7180  0052C2                     u4900:
  7181  0052C2  2EE8               	decfsz	wreg,f,c
  7182  0052C4  EF5C  F029         	goto	u4905
  7183  0052C8  5005               	movf	??___fpclassifyf^0,w,c
  7184  0052CA  6E09               	movwf	___fpclassifyf@e^0,c
  7185  0052CC  6A0A               	clrf	(___fpclassifyf@e+1)^0,c
  7186  0052CE  5009               	movf	___fpclassifyf@e^0,w,c
  7187  0052D0  100A               	iorwf	(___fpclassifyf@e+1)^0,w,c
  7188  0052D2  A4D8               	btfss	status,2,c
  7189  0052D4  EF6E  F029         	goto	u4911
  7190  0052D8  EF70  F029         	goto	u4910
  7191  0052DC                     u4911:
  7192  0052DC  EF90  F029         	goto	l4287
  7193  0052E0                     u4910:
  7194  0052E0  90D8               	bcf	status,0,c
  7195  0052E2  340B               	rlcf	___fpclassifyf@u^0,w,c
  7196  0052E4  6E05               	movwf	??___fpclassifyf^0,c
  7197  0052E6  340C               	rlcf	(___fpclassifyf@u+1)^0,w,c
  7198  0052E8  6E06               	movwf	(??___fpclassifyf+1)^0,c
  7199  0052EA  340D               	rlcf	(___fpclassifyf@u+2)^0,w,c
  7200  0052EC  6E07               	movwf	(??___fpclassifyf+2)^0,c
  7201  0052EE  340E               	rlcf	(___fpclassifyf@u+3)^0,w,c
  7202  0052F0  6E08               	movwf	(??___fpclassifyf+3)^0,c
  7203  0052F2  5005               	movf	??___fpclassifyf^0,w,c
  7204  0052F4  1006               	iorwf	(??___fpclassifyf+1)^0,w,c
  7205  0052F6  1007               	iorwf	(??___fpclassifyf+2)^0,w,c
  7206  0052F8  1008               	iorwf	(??___fpclassifyf+3)^0,w,c
  7207  0052FA  A4D8               	btfss	status,2,c
  7208  0052FC  EF82  F029         	goto	u4921
  7209  005300  EF84  F029         	goto	u4920
  7210  005304                     u4921:
  7211  005304  EF8A  F029         	goto	l4283
  7212  005308                     u4920:
  7213  005308  0E00               	movlw	0
  7214  00530A  6E02               	movwf	(?___fpclassifyf+1)^0,c
  7215  00530C  0E02               	movlw	2
  7216  00530E  6E01               	movwf	?___fpclassifyf^0,c
  7217  005310  EFBF  F029         	goto	l1111
  7218  005314                     l4283:
  7219  005314  0E00               	movlw	0
  7220  005316  6E02               	movwf	(?___fpclassifyf+1)^0,c
  7221  005318  0E03               	movlw	3
  7222  00531A  6E01               	movwf	?___fpclassifyf^0,c
  7223  00531C  EFBF  F029         	goto	l1111
  7224  005320                     l4287:
  7225  005320  2809               	incf	___fpclassifyf@e^0,w,c
  7226  005322  100A               	iorwf	(___fpclassifyf@e+1)^0,w,c
  7227  005324  A4D8               	btfss	status,2,c
  7228  005326  EF97  F029         	goto	u4931
  7229  00532A  EF99  F029         	goto	u4930
  7230  00532E                     u4931:
  7231  00532E  EFBB  F029         	goto	l4293
  7232  005332                     u4930:
  7233  005332  C00B  F005         	movff	___fpclassifyf@u,??___fpclassifyf
  7234  005336  C00C  F006         	movff	___fpclassifyf@u+1,??___fpclassifyf+1
  7235  00533A  C00D  F007         	movff	___fpclassifyf@u+2,??___fpclassifyf+2
  7236  00533E  C00E  F008         	movff	___fpclassifyf@u+3,??___fpclassifyf+3
  7237  005342  0E09               	movlw	9
  7238  005344                     u4945:
  7239  005344  90D8               	bcf	status,0,c
  7240  005346  3605               	rlcf	??___fpclassifyf^0,f,c
  7241  005348  3606               	rlcf	(??___fpclassifyf+1)^0,f,c
  7242  00534A  3607               	rlcf	(??___fpclassifyf+2)^0,f,c
  7243  00534C  3608               	rlcf	(??___fpclassifyf+3)^0,f,c
  7244  00534E  2EE8               	decfsz	wreg,f,c
  7245  005350  EFA2  F029         	goto	u4945
  7246  005354  5005               	movf	??___fpclassifyf^0,w,c
  7247  005356  1006               	iorwf	(??___fpclassifyf+1)^0,w,c
  7248  005358  1007               	iorwf	(??___fpclassifyf+2)^0,w,c
  7249  00535A  1008               	iorwf	(??___fpclassifyf+3)^0,w,c
  7250  00535C  B4D8               	btfsc	status,2,c
  7251  00535E  EFB3  F029         	goto	u4951
  7252  005362  EFB6  F029         	goto	u4950
  7253  005366                     u4951:
  7254  005366  0E01               	movlw	1
  7255  005368  EFB7  F029         	goto	u4960
  7256  00536C                     u4950:
  7257  00536C  0E00               	movlw	0
  7258  00536E                     u4960:
  7259  00536E  6E01               	movwf	?___fpclassifyf^0,c
  7260  005370  6A02               	clrf	(?___fpclassifyf+1)^0,c
  7261  005372  EFBF  F029         	goto	l1111
  7262  005376                     l4293:
  7263  005376  0E00               	movlw	0
  7264  005378  6E02               	movwf	(?___fpclassifyf+1)^0,c
  7265  00537A  0E04               	movlw	4
  7266  00537C  6E01               	movwf	?___fpclassifyf^0,c
  7267  00537E                     l1111:
  7268  00537E  0012               	return		;funcret
  7269  005380                     __end_of___fpclassifyf:
  7270                           	opt callstack 0
  7271                           
  7272 ;; *************** function ___awmod *****************
  7273 ;; Defined at:
  7274 ;;		line 7 in file "/opt/microchip/xc8/v2.10/pic/sources/c99/common/awmod.c"
  7275 ;; Parameters:    Size  Location     Type
  7276 ;;  dividend        2    8[COMRAM] int 
  7277 ;;  divisor         2   10[COMRAM] int 
  7278 ;; Auto vars:     Size  Location     Type
  7279 ;;  sign            1   13[COMRAM] unsigned char 
  7280 ;;  counter         1   12[COMRAM] unsigned char 
  7281 ;; Return value:  Size  Location     Type
  7282 ;;                  2    8[COMRAM] int 
  7283 ;; Registers used:
  7284 ;;		wreg, status,2, status,0
  7285 ;; Tracked objects:
  7286 ;;		On entry : 0/0
  7287 ;;		On exit  : 0/0
  7288 ;;		Unchanged: 0/0
  7289 ;; Data sizes:     COMRAM   BANK0   BANK1   BANK2   BANK3   BANK4   BANK5   BANK6   BANK7
  7290 ;;      Params:         4       0       0       0       0       0       0       0       0
  7291 ;;      Locals:         2       0       0       0       0       0       0       0       0
  7292 ;;      Temps:          0       0       0       0       0       0       0       0       0
  7293 ;;      Totals:         6       0       0       0       0       0       0       0       0
  7294 ;;Total ram usage:        6 bytes
  7295 ;; Hardware stack levels used:    1
  7296 ;; This function calls:
  7297 ;;		Nothing
  7298 ;; This function is called by:
  7299 ;;		_dameHora
  7300 ;;		_efgtoa
  7301 ;; This function uses a non-reentrant model
  7302 ;;
  7303                           
  7304                           	psect	text21
  7305  00577E                     __ptext21:
  7306                           	opt callstack 0
  7307  00577E                     ___awmod:
  7308                           	opt callstack 26
  7309  00577E  0E00               	movlw	0
  7310  005780  6E0E               	movwf	___awmod@sign^0,c
  7311  005782  BE0A               	btfsc	(___awmod@dividend+1)^0,7,c
  7312  005784  EFC8  F02B         	goto	u5750
  7313  005788  EFC6  F02B         	goto	u5751
  7314  00578C                     u5751:
  7315  00578C  EFCE  F02B         	goto	l4755
  7316  005790                     u5750:
  7317  005790  6C09               	negf	___awmod@dividend^0,c
  7318  005792  1E0A               	comf	(___awmod@dividend+1)^0,f,c
  7319  005794  B0D8               	btfsc	status,0,c
  7320  005796  2A0A               	incf	(___awmod@dividend+1)^0,f,c
  7321  005798  0E01               	movlw	1
  7322  00579A  6E0E               	movwf	___awmod@sign^0,c
  7323  00579C                     l4755:
  7324  00579C  BE0C               	btfsc	(___awmod@divisor+1)^0,7,c
  7325  00579E  EFD5  F02B         	goto	u5760
  7326  0057A2  EFD3  F02B         	goto	u5761
  7327  0057A6                     u5761:
  7328  0057A6  EFD9  F02B         	goto	l4759
  7329  0057AA                     u5760:
  7330  0057AA  6C0B               	negf	___awmod@divisor^0,c
  7331  0057AC  1E0C               	comf	(___awmod@divisor+1)^0,f,c
  7332  0057AE  B0D8               	btfsc	status,0,c
  7333  0057B0  2A0C               	incf	(___awmod@divisor+1)^0,f,c
  7334  0057B2                     l4759:
  7335  0057B2  500B               	movf	___awmod@divisor^0,w,c
  7336  0057B4  100C               	iorwf	(___awmod@divisor+1)^0,w,c
  7337  0057B6  B4D8               	btfsc	status,2,c
  7338  0057B8  EFE0  F02B         	goto	u5771
  7339  0057BC  EFE2  F02B         	goto	u5770
  7340  0057C0                     u5771:
  7341  0057C0  EF06  F02C         	goto	l4775
  7342  0057C4                     u5770:
  7343  0057C4  0E01               	movlw	1
  7344  0057C6  6E0D               	movwf	___awmod@counter^0,c
  7345  0057C8  EFEA  F02B         	goto	l4765
  7346  0057CC                     l4763:
  7347  0057CC  90D8               	bcf	status,0,c
  7348  0057CE  360B               	rlcf	___awmod@divisor^0,f,c
  7349  0057D0  360C               	rlcf	(___awmod@divisor+1)^0,f,c
  7350  0057D2  2A0D               	incf	___awmod@counter^0,f,c
  7351  0057D4                     l4765:
  7352  0057D4  AE0C               	btfss	(___awmod@divisor+1)^0,7,c
  7353  0057D6  EFEF  F02B         	goto	u5781
  7354  0057DA  EFF1  F02B         	goto	u5780
  7355  0057DE                     u5781:
  7356  0057DE  EFE6  F02B         	goto	l4763
  7357  0057E2                     u5780:
  7358  0057E2                     l4767:
  7359  0057E2  500B               	movf	___awmod@divisor^0,w,c
  7360  0057E4  5C09               	subwf	___awmod@dividend^0,w,c
  7361  0057E6  500C               	movf	(___awmod@divisor+1)^0,w,c
  7362  0057E8  580A               	subwfb	(___awmod@dividend+1)^0,w,c
  7363  0057EA  A0D8               	btfss	status,0,c
  7364  0057EC  EFFA  F02B         	goto	u5791
  7365  0057F0  EFFC  F02B         	goto	u5790
  7366  0057F4                     u5791:
  7367  0057F4  EF00  F02C         	goto	l4771
  7368  0057F8                     u5790:
  7369  0057F8  500B               	movf	___awmod@divisor^0,w,c
  7370  0057FA  5E09               	subwf	___awmod@dividend^0,f,c
  7371  0057FC  500C               	movf	(___awmod@divisor+1)^0,w,c
  7372  0057FE  5A0A               	subwfb	(___awmod@dividend+1)^0,f,c
  7373  005800                     l4771:
  7374  005800  90D8               	bcf	status,0,c
  7375  005802  320C               	rrcf	(___awmod@divisor+1)^0,f,c
  7376  005804  320B               	rrcf	___awmod@divisor^0,f,c
  7377  005806  2E0D               	decfsz	___awmod@counter^0,f,c
  7378  005808  EFF1  F02B         	goto	l4767
  7379  00580C                     l4775:
  7380  00580C  500E               	movf	___awmod@sign^0,w,c
  7381  00580E  B4D8               	btfsc	status,2,c
  7382  005810  EF0C  F02C         	goto	u5801
  7383  005814  EF0E  F02C         	goto	u5800
  7384  005818                     u5801:
  7385  005818  EF12  F02C         	goto	l4779
  7386  00581C                     u5800:
  7387  00581C  6C09               	negf	___awmod@dividend^0,c
  7388  00581E  1E0A               	comf	(___awmod@dividend+1)^0,f,c
  7389  005820  B0D8               	btfsc	status,0,c
  7390  005822  2A0A               	incf	(___awmod@dividend+1)^0,f,c
  7391  005824                     l4779:
  7392  005824  C009  F009         	movff	___awmod@dividend,?___awmod
  7393  005828  C00A  F00A         	movff	___awmod@dividend+1,?___awmod+1
  7394  00582C  0012               	return		;funcret
  7395  00582E                     __end_of___awmod:
  7396                           	opt callstack 0
  7397                           
  7398 ;; *************** function ___awdiv *****************
  7399 ;; Defined at:
  7400 ;;		line 7 in file "/opt/microchip/xc8/v2.10/pic/sources/c99/common/awdiv.c"
  7401 ;; Parameters:    Size  Location     Type
  7402 ;;  dividend        2    0[COMRAM] int 
  7403 ;;  divisor         2    2[COMRAM] int 
  7404 ;; Auto vars:     Size  Location     Type
  7405 ;;  quotient        2    6[COMRAM] int 
  7406 ;;  sign            1    5[COMRAM] unsigned char 
  7407 ;;  counter         1    4[COMRAM] unsigned char 
  7408 ;; Return value:  Size  Location     Type
  7409 ;;                  2    0[COMRAM] int 
  7410 ;; Registers used:
  7411 ;;		wreg, status,2, status,0
  7412 ;; Tracked objects:
  7413 ;;		On entry : 0/0
  7414 ;;		On exit  : 0/0
  7415 ;;		Unchanged: 0/0
  7416 ;; Data sizes:     COMRAM   BANK0   BANK1   BANK2   BANK3   BANK4   BANK5   BANK6   BANK7
  7417 ;;      Params:         4       0       0       0       0       0       0       0       0
  7418 ;;      Locals:         4       0       0       0       0       0       0       0       0
  7419 ;;      Temps:          0       0       0       0       0       0       0       0       0
  7420 ;;      Totals:         8       0       0       0       0       0       0       0       0
  7421 ;;Total ram usage:        8 bytes
  7422 ;; Hardware stack levels used:    1
  7423 ;; This function calls:
  7424 ;;		Nothing
  7425 ;; This function is called by:
  7426 ;;		_dameHora
  7427 ;;		_efgtoa
  7428 ;; This function uses a non-reentrant model
  7429 ;;
  7430                           
  7431                           	psect	text22
  7432  0056BA                     __ptext22:
  7433                           	opt callstack 0
  7434  0056BA                     ___awdiv:
  7435                           	opt callstack 26
  7436  0056BA  0E00               	movlw	0
  7437  0056BC  6E06               	movwf	___awdiv@sign^0,c
  7438  0056BE  BE04               	btfsc	(___awdiv@divisor+1)^0,7,c
  7439  0056C0  EF66  F02B         	goto	u5690
  7440  0056C4  EF64  F02B         	goto	u5691
  7441  0056C8                     u5691:
  7442  0056C8  EF6C  F02B         	goto	l4711
  7443  0056CC                     u5690:
  7444  0056CC  6C03               	negf	___awdiv@divisor^0,c
  7445  0056CE  1E04               	comf	(___awdiv@divisor+1)^0,f,c
  7446  0056D0  B0D8               	btfsc	status,0,c
  7447  0056D2  2A04               	incf	(___awdiv@divisor+1)^0,f,c
  7448  0056D4  0E01               	movlw	1
  7449  0056D6  6E06               	movwf	___awdiv@sign^0,c
  7450  0056D8                     l4711:
  7451  0056D8  BE02               	btfsc	(___awdiv@dividend+1)^0,7,c
  7452  0056DA  EF73  F02B         	goto	u5700
  7453  0056DE  EF71  F02B         	goto	u5701
  7454  0056E2                     u5701:
  7455  0056E2  EF79  F02B         	goto	l4717
  7456  0056E6                     u5700:
  7457  0056E6  6C01               	negf	___awdiv@dividend^0,c
  7458  0056E8  1E02               	comf	(___awdiv@dividend+1)^0,f,c
  7459  0056EA  B0D8               	btfsc	status,0,c
  7460  0056EC  2A02               	incf	(___awdiv@dividend+1)^0,f,c
  7461  0056EE  0E01               	movlw	1
  7462  0056F0  1A06               	xorwf	___awdiv@sign^0,f,c
  7463  0056F2                     l4717:
  7464  0056F2  0E00               	movlw	0
  7465  0056F4  6E08               	movwf	(___awdiv@quotient+1)^0,c
  7466  0056F6  0E00               	movlw	0
  7467  0056F8  6E07               	movwf	___awdiv@quotient^0,c
  7468  0056FA  5003               	movf	___awdiv@divisor^0,w,c
  7469  0056FC  1004               	iorwf	(___awdiv@divisor+1)^0,w,c
  7470  0056FE  B4D8               	btfsc	status,2,c
  7471  005700  EF84  F02B         	goto	u5711
  7472  005704  EF86  F02B         	goto	u5710
  7473  005708                     u5711:
  7474  005708  EFAE  F02B         	goto	l4739
  7475  00570C                     u5710:
  7476  00570C  0E01               	movlw	1
  7477  00570E  6E05               	movwf	___awdiv@counter^0,c
  7478  005710  EF8E  F02B         	goto	l4725
  7479  005714                     l4723:
  7480  005714  90D8               	bcf	status,0,c
  7481  005716  3603               	rlcf	___awdiv@divisor^0,f,c
  7482  005718  3604               	rlcf	(___awdiv@divisor+1)^0,f,c
  7483  00571A  2A05               	incf	___awdiv@counter^0,f,c
  7484  00571C                     l4725:
  7485  00571C  AE04               	btfss	(___awdiv@divisor+1)^0,7,c
  7486  00571E  EF93  F02B         	goto	u5721
  7487  005722  EF95  F02B         	goto	u5720
  7488  005726                     u5721:
  7489  005726  EF8A  F02B         	goto	l4723
  7490  00572A                     u5720:
  7491  00572A                     l4727:
  7492  00572A  90D8               	bcf	status,0,c
  7493  00572C  3607               	rlcf	___awdiv@quotient^0,f,c
  7494  00572E  3608               	rlcf	(___awdiv@quotient+1)^0,f,c
  7495  005730  5003               	movf	___awdiv@divisor^0,w,c
  7496  005732  5C01               	subwf	___awdiv@dividend^0,w,c
  7497  005734  5004               	movf	(___awdiv@divisor+1)^0,w,c
  7498  005736  5802               	subwfb	(___awdiv@dividend+1)^0,w,c
  7499  005738  A0D8               	btfss	status,0,c
  7500  00573A  EFA1  F02B         	goto	u5731
  7501  00573E  EFA3  F02B         	goto	u5730
  7502  005742                     u5731:
  7503  005742  EFA8  F02B         	goto	l4735
  7504  005746                     u5730:
  7505  005746  5003               	movf	___awdiv@divisor^0,w,c
  7506  005748  5E01               	subwf	___awdiv@dividend^0,f,c
  7507  00574A  5004               	movf	(___awdiv@divisor+1)^0,w,c
  7508  00574C  5A02               	subwfb	(___awdiv@dividend+1)^0,f,c
  7509  00574E  8007               	bsf	___awdiv@quotient^0,0,c
  7510  005750                     l4735:
  7511  005750  90D8               	bcf	status,0,c
  7512  005752  3204               	rrcf	(___awdiv@divisor+1)^0,f,c
  7513  005754  3203               	rrcf	___awdiv@divisor^0,f,c
  7514  005756  2E05               	decfsz	___awdiv@counter^0,f,c
  7515  005758  EF95  F02B         	goto	l4727
  7516  00575C                     l4739:
  7517  00575C  5006               	movf	___awdiv@sign^0,w,c
  7518  00575E  B4D8               	btfsc	status,2,c
  7519  005760  EFB4  F02B         	goto	u5741
  7520  005764  EFB6  F02B         	goto	u5740
  7521  005768                     u5741:
  7522  005768  EFBA  F02B         	goto	l4743
  7523  00576C                     u5740:
  7524  00576C  6C07               	negf	___awdiv@quotient^0,c
  7525  00576E  1E08               	comf	(___awdiv@quotient+1)^0,f,c
  7526  005770  B0D8               	btfsc	status,0,c
  7527  005772  2A08               	incf	(___awdiv@quotient+1)^0,f,c
  7528  005774                     l4743:
  7529  005774  C007  F001         	movff	___awdiv@quotient,?___awdiv
  7530  005778  C008  F002         	movff	___awdiv@quotient+1,?___awdiv+1
  7531  00577C  0012               	return		;funcret
  7532  00577E                     __end_of___awdiv:
  7533                           	opt callstack 0
  7534                           
  7535 ;; *************** function _dtoa *****************
  7536 ;; Defined at:
  7537 ;;		line 274 in file "/opt/microchip/xc8/v2.10/pic/sources/c99/common/doprnt.c"
  7538 ;; Parameters:    Size  Location     Type
  7539 ;;  fp              2   27[COMRAM] PTR struct _IO_FILE
  7540 ;;		 -> sprintf@f(6), 
  7541 ;;  d               8   29[COMRAM] long long 
  7542 ;; Auto vars:     Size  Location     Type
  7543 ;;  n               8   53[COMRAM] long long 
  7544 ;;  i               2   61[COMRAM] int 
  7545 ;;  s               2   51[COMRAM] int 
  7546 ;;  w               2   49[COMRAM] int 
  7547 ;;  p               2   47[COMRAM] int 
  7548 ;; Return value:  Size  Location     Type
  7549 ;;                  2   27[COMRAM] int 
  7550 ;; Registers used:
  7551 ;;		wreg, fsr1l, fsr1h, fsr2l, fsr2h, status,2, status,0, cstack
  7552 ;; Tracked objects:
  7553 ;;		On entry : 0/0
  7554 ;;		On exit  : 0/0
  7555 ;;		Unchanged: 0/0
  7556 ;; Data sizes:     COMRAM   BANK0   BANK1   BANK2   BANK3   BANK4   BANK5   BANK6   BANK7
  7557 ;;      Params:        10       0       0       0       0       0       0       0       0
  7558 ;;      Locals:        18       0       0       0       0       0       0       0       0
  7559 ;;      Temps:          8       0       0       0       0       0       0       0       0
  7560 ;;      Totals:        36       0       0       0       0       0       0       0       0
  7561 ;;Total ram usage:       36 bytes
  7562 ;; Hardware stack levels used:    1
  7563 ;; Hardware stack levels required when called:    4
  7564 ;; This function calls:
  7565 ;;		___aodiv
  7566 ;;		___aomod
  7567 ;;		_abs
  7568 ;;		_pad
  7569 ;; This function is called by:
  7570 ;;		_vfpfcnvrt
  7571 ;; This function uses a non-reentrant model
  7572 ;;
  7573                           
  7574                           	psect	text23
  7575  003CF4                     __ptext23:
  7576                           	opt callstack 0
  7577  003CF4                     _dtoa:
  7578                           	opt callstack 23
  7579  003CF4                     
  7580                           ;/opt/microchip/xc8/v2.10/pic/sources/c99/common/doprnt.c: 274: static int dtoa(FILE *fp
      +                          , long long d);/opt/microchip/xc8/v2.10/pic/sources/c99/common/doprnt.c: 275: {;/opt/mic
      +                          rochip/xc8/v2.10/pic/sources/c99/common/doprnt.c: 276:     int i, p, s, w;;/opt/microchi
      +                          p/xc8/v2.10/pic/sources/c99/common/doprnt.c: 277:     long long n;;/opt/microchip/xc8/v2
      +                          .10/pic/sources/c99/common/doprnt.c: 280:     n = d;
  7581  003CF4  C01E  F036         	movff	dtoa@d,dtoa@n
  7582  003CF8  C01F  F037         	movff	dtoa@d+1,dtoa@n+1
  7583  003CFC  C020  F038         	movff	dtoa@d+2,dtoa@n+2
  7584  003D00  C021  F039         	movff	dtoa@d+3,dtoa@n+3
  7585  003D04  C022  F03A         	movff	dtoa@d+4,dtoa@n+4
  7586  003D08  C023  F03B         	movff	dtoa@d+5,dtoa@n+5
  7587  003D0C  C024  F03C         	movff	dtoa@d+6,dtoa@n+6
  7588  003D10  C025  F03D         	movff	dtoa@d+7,dtoa@n+7
  7589  003D14                     
  7590                           ;/opt/microchip/xc8/v2.10/pic/sources/c99/common/doprnt.c: 281:     s = n < 0 ? 1 : 0;
  7591  003D14  BE3D               	btfsc	(dtoa@n+7)^0,7,c
  7592  003D16  EF8F  F01E         	goto	u6001
  7593  003D1A  EF92  F01E         	goto	u6000
  7594  003D1E                     u6001:
  7595  003D1E  0E01               	movlw	1
  7596  003D20  EF93  F01E         	goto	u6010
  7597  003D24                     u6000:
  7598  003D24  0E00               	movlw	0
  7599  003D26                     u6010:
  7600  003D26  6E34               	movwf	dtoa@s^0,c
  7601  003D28  6A35               	clrf	(dtoa@s+1)^0,c
  7602                           
  7603                           ;/opt/microchip/xc8/v2.10/pic/sources/c99/common/doprnt.c: 282:     if (s) {
  7604  003D2A  5034               	movf	dtoa@s^0,w,c
  7605  003D2C  1035               	iorwf	(dtoa@s+1)^0,w,c
  7606  003D2E  B4D8               	btfsc	status,2,c
  7607  003D30  EF9C  F01E         	goto	u6021
  7608  003D34  EF9E  F01E         	goto	u6020
  7609  003D38                     u6021:
  7610  003D38  EFAE  F01E         	goto	l4905
  7611  003D3C                     u6020:
  7612  003D3C                     
  7613                           ;/opt/microchip/xc8/v2.10/pic/sources/c99/common/doprnt.c: 283:         n = -n;
  7614  003D3C  1E3D               	comf	(dtoa@n+7)^0,f,c
  7615  003D3E  1E3C               	comf	(dtoa@n+6)^0,f,c
  7616  003D40  1E3B               	comf	(dtoa@n+5)^0,f,c
  7617  003D42  1E3A               	comf	(dtoa@n+4)^0,f,c
  7618  003D44  1E39               	comf	(dtoa@n+3)^0,f,c
  7619  003D46  1E38               	comf	(dtoa@n+2)^0,f,c
  7620  003D48  1E37               	comf	(dtoa@n+1)^0,f,c
  7621  003D4A  6C36               	negf	dtoa@n^0,c
  7622  003D4C  0E00               	movlw	0
  7623  003D4E  2237               	addwfc	(dtoa@n+1)^0,f,c
  7624  003D50  2238               	addwfc	(dtoa@n+2)^0,f,c
  7625  003D52  2239               	addwfc	(dtoa@n+3)^0,f,c
  7626  003D54  223A               	addwfc	(dtoa@n+4)^0,f,c
  7627  003D56  223B               	addwfc	(dtoa@n+5)^0,f,c
  7628  003D58  223C               	addwfc	(dtoa@n+6)^0,f,c
  7629  003D5A  223D               	addwfc	(dtoa@n+7)^0,f,c
  7630  003D5C                     l4905:
  7631                           
  7632                           ;/opt/microchip/xc8/v2.10/pic/sources/c99/common/doprnt.c: 287:     if (!(prec < 0)) {
  7633  003D5C  0100               	movlb	0	; () banked
  7634  003D5E  BFFB               	btfsc	(_prec+1)& (0+255),7,b
  7635  003D60  EFB4  F01E         	goto	u6031
  7636  003D64  EFB6  F01E         	goto	u6030
  7637  003D68                     u6031:
  7638  003D68  EFB7  F01E         	goto	l4909
  7639  003D6C                     u6030:
  7640  003D6C                     
  7641                           ; BSR set to: 0
  7642                           ;/opt/microchip/xc8/v2.10/pic/sources/c99/common/doprnt.c: 288:         flags &= ~(1 << 
      +                          1);
  7643  003D6C  93FC               	bcf	_flags& (0+255),1,b
  7644  003D6E                     l4909:
  7645                           
  7646                           ; BSR set to: 0
  7647                           ;/opt/microchip/xc8/v2.10/pic/sources/c99/common/doprnt.c: 290:     p = (0 < prec) ? pre
      +                          c : 1;
  7648  003D6E  BFFB               	btfsc	(_prec+1)& (0+255),7,b
  7649  003D70  EFC4  F01E         	goto	u6040
  7650  003D74  51FB               	movf	(_prec+1)& (0+255),w,b
  7651  003D76  E106               	bnz	u6041
  7652  003D78  05FA               	decf	_prec& (0+255),w,b
  7653  003D7A  B0D8               	btfsc	status,0,c
  7654  003D7C  EFC2  F01E         	goto	u6041
  7655  003D80  EFC4  F01E         	goto	u6040
  7656  003D84                     u6041:
  7657  003D84  EFCA  F01E         	goto	l257
  7658  003D88                     u6040:
  7659  003D88                     
  7660                           ; BSR set to: 0
  7661  003D88  0E00               	movlw	0
  7662  003D8A  6E31               	movwf	(dtoa@p+1)^0,c
  7663  003D8C  0E01               	movlw	1
  7664  003D8E  6E30               	movwf	dtoa@p^0,c
  7665  003D90  EFCE  F01E         	goto	l259
  7666  003D94                     l257:
  7667                           
  7668                           ; BSR set to: 0
  7669  003D94  C0FA  F030         	movff	_prec,dtoa@p
  7670  003D98  C0FB  F031         	movff	_prec+1,dtoa@p+1
  7671  003D9C                     l259:
  7672                           
  7673                           ; BSR set to: 0
  7674                           ;/opt/microchip/xc8/v2.10/pic/sources/c99/common/doprnt.c: 291:     w = width;
  7675  003D9C  C0F8  F032         	movff	_width,dtoa@w
  7676  003DA0  C0F9  F033         	movff	_width+1,dtoa@w+1
  7677  003DA4                     
  7678                           ; BSR set to: 0
  7679                           ;/opt/microchip/xc8/v2.10/pic/sources/c99/common/doprnt.c: 292:     if (s || (flags & (1
      +                           << 2))) {
  7680  003DA4  5034               	movf	dtoa@s^0,w,c
  7681  003DA6  1035               	iorwf	(dtoa@s+1)^0,w,c
  7682  003DA8  A4D8               	btfss	status,2,c
  7683  003DAA  EFD9  F01E         	goto	u6051
  7684  003DAE  EFDB  F01E         	goto	u6050
  7685  003DB2                     u6051:
  7686  003DB2  EFE2  F01E         	goto	l4917
  7687  003DB6                     u6050:
  7688  003DB6                     
  7689                           ; BSR set to: 0
  7690  003DB6  A5FC               	btfss	_flags& (0+255),2,b
  7691  003DB8  EFE0  F01E         	goto	u6061
  7692  003DBC  EFE2  F01E         	goto	u6060
  7693  003DC0                     u6061:
  7694  003DC0  EFE5  F01E         	goto	l4919
  7695  003DC4                     u6060:
  7696  003DC4                     l4917:
  7697                           
  7698                           ; BSR set to: 0
  7699                           ;/opt/microchip/xc8/v2.10/pic/sources/c99/common/doprnt.c: 293:         --w;
  7700  003DC4  0632               	decf	dtoa@w^0,f,c
  7701  003DC6  A0D8               	btfss	status,0,c
  7702  003DC8  0633               	decf	(dtoa@w+1)^0,f,c
  7703  003DCA                     l4919:
  7704                           
  7705                           ; BSR set to: 0
  7706                           ;/opt/microchip/xc8/v2.10/pic/sources/c99/common/doprnt.c: 297:     i = sizeof(dbuf) - 1
      +                          ;
  7707  003DCA  0E00               	movlw	0
  7708  003DCC  6E3F               	movwf	(dtoa@i+1)^0,c
  7709  003DCE  0E4F               	movlw	79
  7710  003DD0  6E3E               	movwf	dtoa@i^0,c
  7711  003DD2                     
  7712                           ; BSR set to: 0
  7713                           ;/opt/microchip/xc8/v2.10/pic/sources/c99/common/doprnt.c: 298:     dbuf[i] = '\0';
  7714  003DD2  0E00               	movlw	0
  7715  003DD4  0102               	movlb	2	; () banked
  7716  003DD6  6F4F               	movwf	(_dbuf+79)& (0+255),b
  7717                           
  7718                           ;/opt/microchip/xc8/v2.10/pic/sources/c99/common/doprnt.c: 299:     while (!(i < 1) && (
      +                          n || (0 < p) || ((0 < w) && (flags & (1 << 1))))) {
  7719  003DD8  EF6A  F01F         	goto	l4933
  7720  003DDC                     l4923:
  7721                           
  7722                           ;/opt/microchip/xc8/v2.10/pic/sources/c99/common/doprnt.c: 300:         --i;
  7723  003DDC  063E               	decf	dtoa@i^0,f,c
  7724  003DDE  A0D8               	btfss	status,0,c
  7725  003DE0  063F               	decf	(dtoa@i+1)^0,f,c
  7726  003DE2                     
  7727                           ;/opt/microchip/xc8/v2.10/pic/sources/c99/common/doprnt.c: 301:         dbuf[i] = '0' + 
      +                          abs(n % 10);
  7728  003DE2  0E00               	movlw	low _dbuf
  7729  003DE4  243E               	addwf	dtoa@i^0,w,c
  7730  003DE6  6ED9               	movwf	fsr2l,c
  7731  003DE8  0E02               	movlw	high _dbuf
  7732  003DEA  203F               	addwfc	(dtoa@i+1)^0,w,c
  7733  003DEC  6EDA               	movwf	fsr2h,c
  7734  003DEE  C036  F001         	movff	dtoa@n,___aomod@dividend
  7735  003DF2  C037  F002         	movff	dtoa@n+1,___aomod@dividend+1
  7736  003DF6  C038  F003         	movff	dtoa@n+2,___aomod@dividend+2
  7737  003DFA  C039  F004         	movff	dtoa@n+3,___aomod@dividend+3
  7738  003DFE  C03A  F005         	movff	dtoa@n+4,___aomod@dividend+4
  7739  003E02  C03B  F006         	movff	dtoa@n+5,___aomod@dividend+5
  7740  003E06  C03C  F007         	movff	dtoa@n+6,___aomod@dividend+6
  7741  003E0A  C03D  F008         	movff	dtoa@n+7,___aomod@dividend+7
  7742  003E0E  0E0A               	movlw	10
  7743  003E10  6E09               	movwf	___aomod@divisor^0,c
  7744  003E12  0E00               	movlw	0
  7745  003E14  6E0A               	movwf	(___aomod@divisor+1)^0,c
  7746  003E16  0E00               	movlw	0
  7747  003E18  6E0B               	movwf	(___aomod@divisor+2)^0,c
  7748  003E1A  0E00               	movlw	0
  7749  003E1C  6E0C               	movwf	(___aomod@divisor+3)^0,c
  7750  003E1E  0E00               	movlw	0
  7751  003E20  6E0D               	movwf	(___aomod@divisor+4)^0,c
  7752  003E22  0E00               	movlw	0
  7753  003E24  6E0E               	movwf	(___aomod@divisor+5)^0,c
  7754  003E26  0E00               	movlw	0
  7755  003E28  6E0F               	movwf	(___aomod@divisor+6)^0,c
  7756  003E2A  0E00               	movlw	0
  7757  003E2C  6E10               	movwf	(___aomod@divisor+7)^0,c
  7758  003E2E  EC55  F026         	call	___aomod	;wreg free
  7759  003E32  C001  F026         	movff	?___aomod,??_dtoa
  7760  003E36  C002  F027         	movff	?___aomod+1,??_dtoa+1
  7761  003E3A  C003  F028         	movff	?___aomod+2,??_dtoa+2
  7762  003E3E  C004  F029         	movff	?___aomod+3,??_dtoa+3
  7763  003E42  C005  F02A         	movff	?___aomod+4,??_dtoa+4
  7764  003E46  C006  F02B         	movff	?___aomod+5,??_dtoa+5
  7765  003E4A  C007  F02C         	movff	?___aomod+6,??_dtoa+6
  7766  003E4E  C008  F02D         	movff	?___aomod+7,??_dtoa+7
  7767  003E52  C026  F013         	movff	??_dtoa,abs@a
  7768  003E56  C028  F014         	movff	??_dtoa+2,abs@a+1
  7769  003E5A  EC28  F030         	call	_abs	;wreg free
  7770  003E5E  5013               	movf	?_abs^0,w,c
  7771  003E60  0F30               	addlw	48
  7772  003E62  6EDF               	movwf	indf2,c
  7773  003E64                     
  7774                           ;/opt/microchip/xc8/v2.10/pic/sources/c99/common/doprnt.c: 302:         --p;
  7775  003E64  0630               	decf	dtoa@p^0,f,c
  7776  003E66  A0D8               	btfss	status,0,c
  7777  003E68  0631               	decf	(dtoa@p+1)^0,f,c
  7778  003E6A                     
  7779                           ;/opt/microchip/xc8/v2.10/pic/sources/c99/common/doprnt.c: 303:         --w;
  7780  003E6A  0632               	decf	dtoa@w^0,f,c
  7781  003E6C  A0D8               	btfss	status,0,c
  7782  003E6E  0633               	decf	(dtoa@w+1)^0,f,c
  7783  003E70                     
  7784                           ;/opt/microchip/xc8/v2.10/pic/sources/c99/common/doprnt.c: 304:         n = n / 10;
  7785  003E70  C036  F001         	movff	dtoa@n,___aodiv@dividend
  7786  003E74  C037  F002         	movff	dtoa@n+1,___aodiv@dividend+1
  7787  003E78  C038  F003         	movff	dtoa@n+2,___aodiv@dividend+2
  7788  003E7C  C039  F004         	movff	dtoa@n+3,___aodiv@dividend+3
  7789  003E80  C03A  F005         	movff	dtoa@n+4,___aodiv@dividend+4
  7790  003E84  C03B  F006         	movff	dtoa@n+5,___aodiv@dividend+5
  7791  003E88  C03C  F007         	movff	dtoa@n+6,___aodiv@dividend+6
  7792  003E8C  C03D  F008         	movff	dtoa@n+7,___aodiv@dividend+7
  7793  003E90  0E0A               	movlw	10
  7794  003E92  6E09               	movwf	___aodiv@divisor^0,c
  7795  003E94  0E00               	movlw	0
  7796  003E96  6E0A               	movwf	(___aodiv@divisor+1)^0,c
  7797  003E98  0E00               	movlw	0
  7798  003E9A  6E0B               	movwf	(___aodiv@divisor+2)^0,c
  7799  003E9C  0E00               	movlw	0
  7800  003E9E  6E0C               	movwf	(___aodiv@divisor+3)^0,c
  7801  003EA0  0E00               	movlw	0
  7802  003EA2  6E0D               	movwf	(___aodiv@divisor+4)^0,c
  7803  003EA4  0E00               	movlw	0
  7804  003EA6  6E0E               	movwf	(___aodiv@divisor+5)^0,c
  7805  003EA8  0E00               	movlw	0
  7806  003EAA  6E0F               	movwf	(___aodiv@divisor+6)^0,c
  7807  003EAC  0E00               	movlw	0
  7808  003EAE  6E10               	movwf	(___aodiv@divisor+7)^0,c
  7809  003EB0  ECCE  F024         	call	___aodiv	;wreg free
  7810  003EB4  C001  F036         	movff	?___aodiv,dtoa@n
  7811  003EB8  C002  F037         	movff	?___aodiv+1,dtoa@n+1
  7812  003EBC  C003  F038         	movff	?___aodiv+2,dtoa@n+2
  7813  003EC0  C004  F039         	movff	?___aodiv+3,dtoa@n+3
  7814  003EC4  C005  F03A         	movff	?___aodiv+4,dtoa@n+4
  7815  003EC8  C006  F03B         	movff	?___aodiv+5,dtoa@n+5
  7816  003ECC  C007  F03C         	movff	?___aodiv+6,dtoa@n+6
  7817  003ED0  C008  F03D         	movff	?___aodiv+7,dtoa@n+7
  7818  003ED4                     l4933:
  7819                           
  7820                           ;/opt/microchip/xc8/v2.10/pic/sources/c99/common/doprnt.c: 299:     while (!(i < 1) && (
      +                          n || (0 < p) || ((0 < w) && (flags & (1 << 1))))) {
  7821  003ED4  BE3F               	btfsc	(dtoa@i+1)^0,7,c
  7822  003ED6  EF75  F01F         	goto	u6071
  7823  003EDA  503F               	movf	(dtoa@i+1)^0,w,c
  7824  003EDC  E108               	bnz	u6070
  7825  003EDE  043E               	decf	dtoa@i^0,w,c
  7826  003EE0  A0D8               	btfss	status,0,c
  7827  003EE2  EF75  F01F         	goto	u6071
  7828  003EE6  EF77  F01F         	goto	u6070
  7829  003EEA                     u6071:
  7830  003EEA  EFA8  F01F         	goto	l4943
  7831  003EEE                     u6070:
  7832  003EEE  5036               	movf	dtoa@n^0,w,c
  7833  003EF0  1037               	iorwf	(dtoa@n+1)^0,w,c
  7834  003EF2  1038               	iorwf	(dtoa@n+2)^0,w,c
  7835  003EF4  1039               	iorwf	(dtoa@n+3)^0,w,c
  7836  003EF6  103A               	iorwf	(dtoa@n+4)^0,w,c
  7837  003EF8  103B               	iorwf	(dtoa@n+5)^0,w,c
  7838  003EFA  103C               	iorwf	(dtoa@n+6)^0,w,c
  7839  003EFC  103D               	iorwf	(dtoa@n+7)^0,w,c
  7840  003EFE  A4D8               	btfss	status,2,c
  7841  003F00  EF84  F01F         	goto	u6081
  7842  003F04  EF86  F01F         	goto	u6080
  7843  003F08                     u6081:
  7844  003F08  EFEE  F01E         	goto	l4923
  7845  003F0C                     u6080:
  7846  003F0C  BE31               	btfsc	(dtoa@p+1)^0,7,c
  7847  003F0E  EF93  F01F         	goto	u6090
  7848  003F12  5031               	movf	(dtoa@p+1)^0,w,c
  7849  003F14  E106               	bnz	u6091
  7850  003F16  0430               	decf	dtoa@p^0,w,c
  7851  003F18  B0D8               	btfsc	status,0,c
  7852  003F1A  EF91  F01F         	goto	u6091
  7853  003F1E  EF93  F01F         	goto	u6090
  7854  003F22                     u6091:
  7855  003F22  EFEE  F01E         	goto	l4923
  7856  003F26                     u6090:
  7857  003F26  BE33               	btfsc	(dtoa@w+1)^0,7,c
  7858  003F28  EF9E  F01F         	goto	u6101
  7859  003F2C  5033               	movf	(dtoa@w+1)^0,w,c
  7860  003F2E  E108               	bnz	u6100
  7861  003F30  0432               	decf	dtoa@w^0,w,c
  7862  003F32  A0D8               	btfss	status,0,c
  7863  003F34  EF9E  F01F         	goto	u6101
  7864  003F38  EFA0  F01F         	goto	u6100
  7865  003F3C                     u6101:
  7866  003F3C  EFA8  F01F         	goto	l4943
  7867  003F40                     u6100:
  7868  003F40  0100               	movlb	0	; () banked
  7869  003F42  B3FC               	btfsc	_flags& (0+255),1,b
  7870  003F44  EFA6  F01F         	goto	u6111
  7871  003F48  EFA8  F01F         	goto	u6110
  7872  003F4C                     u6111:
  7873  003F4C  EFEE  F01E         	goto	l4923
  7874  003F50                     u6110:
  7875  003F50                     l4943:
  7876                           
  7877                           ;/opt/microchip/xc8/v2.10/pic/sources/c99/common/doprnt.c: 308:     if (s || (flags & (1
      +                           << 2))) {
  7878  003F50  5034               	movf	dtoa@s^0,w,c
  7879  003F52  1035               	iorwf	(dtoa@s+1)^0,w,c
  7880  003F54  A4D8               	btfss	status,2,c
  7881  003F56  EFAF  F01F         	goto	u6121
  7882  003F5A  EFB1  F01F         	goto	u6120
  7883  003F5E                     u6121:
  7884  003F5E  EFB9  F01F         	goto	l4947
  7885  003F62                     u6120:
  7886  003F62  0100               	movlb	0	; () banked
  7887  003F64  A5FC               	btfss	_flags& (0+255),2,b
  7888  003F66  EFB7  F01F         	goto	u6131
  7889  003F6A  EFB9  F01F         	goto	u6130
  7890  003F6E                     u6131:
  7891  003F6E  EFD7  F01F         	goto	l4957
  7892  003F72                     u6130:
  7893  003F72                     l4947:
  7894                           
  7895                           ;/opt/microchip/xc8/v2.10/pic/sources/c99/common/doprnt.c: 309:         --i;
  7896  003F72  063E               	decf	dtoa@i^0,f,c
  7897  003F74  A0D8               	btfss	status,0,c
  7898  003F76  063F               	decf	(dtoa@i+1)^0,f,c
  7899  003F78                     
  7900                           ;/opt/microchip/xc8/v2.10/pic/sources/c99/common/doprnt.c: 310:         dbuf[i] = s ? '-
      +                          ' : '+';
  7901  003F78  5034               	movf	dtoa@s^0,w,c
  7902  003F7A  1035               	iorwf	(dtoa@s+1)^0,w,c
  7903  003F7C  A4D8               	btfss	status,2,c
  7904  003F7E  EFC3  F01F         	goto	u6141
  7905  003F82  EFC5  F01F         	goto	u6140
  7906  003F86                     u6141:
  7907  003F86  EFCB  F01F         	goto	l4953
  7908  003F8A                     u6140:
  7909  003F8A  0E00               	movlw	0
  7910  003F8C  6E2F               	movwf	(_dtoa$606+1)^0,c
  7911  003F8E  0E2B               	movlw	43
  7912  003F90  6E2E               	movwf	_dtoa$606^0,c
  7913  003F92  EFCF  F01F         	goto	l4955
  7914  003F96                     l4953:
  7915  003F96  0E00               	movlw	0
  7916  003F98  6E2F               	movwf	(_dtoa$606+1)^0,c
  7917  003F9A  0E2D               	movlw	45
  7918  003F9C  6E2E               	movwf	_dtoa$606^0,c
  7919  003F9E                     l4955:
  7920  003F9E  0E00               	movlw	low _dbuf
  7921  003FA0  243E               	addwf	dtoa@i^0,w,c
  7922  003FA2  6ED9               	movwf	fsr2l,c
  7923  003FA4  0E02               	movlw	high _dbuf
  7924  003FA6  203F               	addwfc	(dtoa@i+1)^0,w,c
  7925  003FA8  6EDA               	movwf	fsr2h,c
  7926  003FAA  C02E  FFDF         	movff	_dtoa$606,indf2
  7927  003FAE                     l4957:
  7928                           
  7929                           ;/opt/microchip/xc8/v2.10/pic/sources/c99/common/doprnt.c: 314:     return pad(fp, &dbuf
      +                          [i], w);
  7930  003FAE  C01C  F011         	movff	dtoa@fp,pad@fp
  7931  003FB2  C01D  F012         	movff	dtoa@fp+1,pad@fp+1
  7932  003FB6  0E00               	movlw	low _dbuf
  7933  003FB8  243E               	addwf	dtoa@i^0,w,c
  7934  003FBA  6E13               	movwf	pad@buf^0,c
  7935  003FBC  0E02               	movlw	high _dbuf
  7936  003FBE  203F               	addwfc	(dtoa@i+1)^0,w,c
  7937  003FC0  6E14               	movwf	(pad@buf+1)^0,c
  7938  003FC2  C032  F015         	movff	dtoa@w,pad@p
  7939  003FC6  C033  F016         	movff	dtoa@w+1,pad@p+1
  7940  003FCA  ECFA  F02A         	call	_pad	;wreg free
  7941  003FCE  C011  F01C         	movff	?_pad,?_dtoa
  7942  003FD2  C012  F01D         	movff	?_pad+1,?_dtoa+1
  7943  003FD6  0012               	return		;funcret
  7944  003FD8                     __end_of_dtoa:
  7945                           	opt callstack 0
  7946                           
  7947 ;; *************** function _abs *****************
  7948 ;; Defined at:
  7949 ;;		line 1 in file "/opt/microchip/xc8/v2.10/pic/sources/c99/common/abs.c"
  7950 ;; Parameters:    Size  Location     Type
  7951 ;;  a               2   18[COMRAM] int 
  7952 ;; Auto vars:     Size  Location     Type
  7953 ;;		None
  7954 ;; Return value:  Size  Location     Type
  7955 ;;                  2   18[COMRAM] int 
  7956 ;; Registers used:
  7957 ;;		wreg, status,2, status,0
  7958 ;; Tracked objects:
  7959 ;;		On entry : 0/0
  7960 ;;		On exit  : 0/0
  7961 ;;		Unchanged: 0/0
  7962 ;; Data sizes:     COMRAM   BANK0   BANK1   BANK2   BANK3   BANK4   BANK5   BANK6   BANK7
  7963 ;;      Params:         2       0       0       0       0       0       0       0       0
  7964 ;;      Locals:         0       0       0       0       0       0       0       0       0
  7965 ;;      Temps:          2       0       0       0       0       0       0       0       0
  7966 ;;      Totals:         4       0       0       0       0       0       0       0       0
  7967 ;;Total ram usage:        4 bytes
  7968 ;; Hardware stack levels used:    1
  7969 ;; This function calls:
  7970 ;;		Nothing
  7971 ;; This function is called by:
  7972 ;;		_dtoa
  7973 ;; This function uses a non-reentrant model
  7974 ;;
  7975                           
  7976                           	psect	text24
  7977  006050                     __ptext24:
  7978                           	opt callstack 0
  7979  006050                     _abs:
  7980                           	opt callstack 26
  7981  006050  BE14               	btfsc	(abs@a+1)^0,7,c
  7982  006052  EF35  F030         	goto	u4890
  7983  006056  5014               	movf	(abs@a+1)^0,w,c
  7984  006058  E106               	bnz	u4891
  7985  00605A  0413               	decf	abs@a^0,w,c
  7986  00605C  B0D8               	btfsc	status,0,c
  7987  00605E  EF33  F030         	goto	u4891
  7988  006062  EF35  F030         	goto	u4890
  7989  006066                     u4891:
  7990  006066  EF43  F030         	goto	l1116
  7991  00606A                     u4890:
  7992  00606A  C013  F015         	movff	abs@a,??_abs
  7993  00606E  C014  F016         	movff	abs@a+1,??_abs+1
  7994  006072  1E15               	comf	??_abs^0,f,c
  7995  006074  1E16               	comf	(??_abs+1)^0,f,c
  7996  006076  4A15               	infsnz	??_abs^0,f,c
  7997  006078  2A16               	incf	(??_abs+1)^0,f,c
  7998  00607A  C015  F013         	movff	??_abs,?_abs
  7999  00607E  C016  F014         	movff	??_abs+1,?_abs+1
  8000  006082  EF47  F030         	goto	l1119
  8001  006086                     l1116:
  8002  006086  C013  F013         	movff	abs@a,?_abs
  8003  00608A  C014  F014         	movff	abs@a+1,?_abs+1
  8004  00608E                     l1119:
  8005  00608E  0012               	return		;funcret
  8006  006090                     __end_of_abs:
  8007                           	opt callstack 0
  8008                           
  8009 ;; *************** function ___aomod *****************
  8010 ;; Defined at:
  8011 ;;		line 9 in file "/opt/microchip/xc8/v2.10/pic/sources/c99/common/aomod.c"
  8012 ;; Parameters:    Size  Location     Type
  8013 ;;  dividend        8    0[COMRAM] long long 
  8014 ;;  divisor         8    8[COMRAM] long long 
  8015 ;; Auto vars:     Size  Location     Type
  8016 ;;  sign            1   17[COMRAM] unsigned char 
  8017 ;;  counter         1   16[COMRAM] unsigned char 
  8018 ;; Return value:  Size  Location     Type
  8019 ;;                  8    0[COMRAM] long long 
  8020 ;; Registers used:
  8021 ;;		wreg, status,2, status,0
  8022 ;; Tracked objects:
  8023 ;;		On entry : 0/0
  8024 ;;		On exit  : 0/0
  8025 ;;		Unchanged: 0/0
  8026 ;; Data sizes:     COMRAM   BANK0   BANK1   BANK2   BANK3   BANK4   BANK5   BANK6   BANK7
  8027 ;;      Params:        16       0       0       0       0       0       0       0       0
  8028 ;;      Locals:         2       0       0       0       0       0       0       0       0
  8029 ;;      Temps:          0       0       0       0       0       0       0       0       0
  8030 ;;      Totals:        18       0       0       0       0       0       0       0       0
  8031 ;;Total ram usage:       18 bytes
  8032 ;; Hardware stack levels used:    1
  8033 ;; This function calls:
  8034 ;;		Nothing
  8035 ;; This function is called by:
  8036 ;;		_dtoa
  8037 ;; This function uses a non-reentrant model
  8038 ;;
  8039                           
  8040                           	psect	text25
  8041  004CAA                     __ptext25:
  8042                           	opt callstack 0
  8043  004CAA                     ___aomod:
  8044                           	opt callstack 26
  8045  004CAA  0E00               	movlw	0
  8046  004CAC  6E12               	movwf	___aomod@sign^0,c
  8047  004CAE  BE08               	btfsc	(___aomod@dividend+7)^0,7,c
  8048  004CB0  EF5E  F026         	goto	u5210
  8049  004CB4  EF5C  F026         	goto	u5211
  8050  004CB8                     u5211:
  8051  004CB8  EF70  F026         	goto	l4401
  8052  004CBC                     u5210:
  8053  004CBC  1E08               	comf	(___aomod@dividend+7)^0,f,c
  8054  004CBE  1E07               	comf	(___aomod@dividend+6)^0,f,c
  8055  004CC0  1E06               	comf	(___aomod@dividend+5)^0,f,c
  8056  004CC2  1E05               	comf	(___aomod@dividend+4)^0,f,c
  8057  004CC4  1E04               	comf	(___aomod@dividend+3)^0,f,c
  8058  004CC6  1E03               	comf	(___aomod@dividend+2)^0,f,c
  8059  004CC8  1E02               	comf	(___aomod@dividend+1)^0,f,c
  8060  004CCA  6C01               	negf	___aomod@dividend^0,c
  8061  004CCC  0E00               	movlw	0
  8062  004CCE  2202               	addwfc	(___aomod@dividend+1)^0,f,c
  8063  004CD0  2203               	addwfc	(___aomod@dividend+2)^0,f,c
  8064  004CD2  2204               	addwfc	(___aomod@dividend+3)^0,f,c
  8065  004CD4  2205               	addwfc	(___aomod@dividend+4)^0,f,c
  8066  004CD6  2206               	addwfc	(___aomod@dividend+5)^0,f,c
  8067  004CD8  2207               	addwfc	(___aomod@dividend+6)^0,f,c
  8068  004CDA  2208               	addwfc	(___aomod@dividend+7)^0,f,c
  8069  004CDC  0E01               	movlw	1
  8070  004CDE  6E12               	movwf	___aomod@sign^0,c
  8071  004CE0                     l4401:
  8072  004CE0  BE10               	btfsc	(___aomod@divisor+7)^0,7,c
  8073  004CE2  EF77  F026         	goto	u5220
  8074  004CE6  EF75  F026         	goto	u5221
  8075  004CEA                     u5221:
  8076  004CEA  EF87  F026         	goto	l4405
  8077  004CEE                     u5220:
  8078  004CEE  1E10               	comf	(___aomod@divisor+7)^0,f,c
  8079  004CF0  1E0F               	comf	(___aomod@divisor+6)^0,f,c
  8080  004CF2  1E0E               	comf	(___aomod@divisor+5)^0,f,c
  8081  004CF4  1E0D               	comf	(___aomod@divisor+4)^0,f,c
  8082  004CF6  1E0C               	comf	(___aomod@divisor+3)^0,f,c
  8083  004CF8  1E0B               	comf	(___aomod@divisor+2)^0,f,c
  8084  004CFA  1E0A               	comf	(___aomod@divisor+1)^0,f,c
  8085  004CFC  6C09               	negf	___aomod@divisor^0,c
  8086  004CFE  0E00               	movlw	0
  8087  004D00  220A               	addwfc	(___aomod@divisor+1)^0,f,c
  8088  004D02  220B               	addwfc	(___aomod@divisor+2)^0,f,c
  8089  004D04  220C               	addwfc	(___aomod@divisor+3)^0,f,c
  8090  004D06  220D               	addwfc	(___aomod@divisor+4)^0,f,c
  8091  004D08  220E               	addwfc	(___aomod@divisor+5)^0,f,c
  8092  004D0A  220F               	addwfc	(___aomod@divisor+6)^0,f,c
  8093  004D0C  2210               	addwfc	(___aomod@divisor+7)^0,f,c
  8094  004D0E                     l4405:
  8095  004D0E  5009               	movf	___aomod@divisor^0,w,c
  8096  004D10  100A               	iorwf	(___aomod@divisor+1)^0,w,c
  8097  004D12  100B               	iorwf	(___aomod@divisor+2)^0,w,c
  8098  004D14  100C               	iorwf	(___aomod@divisor+3)^0,w,c
  8099  004D16  100D               	iorwf	(___aomod@divisor+4)^0,w,c
  8100  004D18  100E               	iorwf	(___aomod@divisor+5)^0,w,c
  8101  004D1A  100F               	iorwf	(___aomod@divisor+6)^0,w,c
  8102  004D1C  1010               	iorwf	(___aomod@divisor+7)^0,w,c
  8103  004D1E  B4D8               	btfsc	status,2,c
  8104  004D20  EF94  F026         	goto	u5231
  8105  004D24  EF96  F026         	goto	u5230
  8106  004D28                     u5231:
  8107  004D28  EFDE  F026         	goto	l4421
  8108  004D2C                     u5230:
  8109  004D2C  0E01               	movlw	1
  8110  004D2E  6E11               	movwf	___aomod@counter^0,c
  8111  004D30  EFA4  F026         	goto	l4411
  8112  004D34                     l4409:
  8113  004D34  90D8               	bcf	status,0,c
  8114  004D36  3609               	rlcf	___aomod@divisor^0,f,c
  8115  004D38  360A               	rlcf	(___aomod@divisor+1)^0,f,c
  8116  004D3A  360B               	rlcf	(___aomod@divisor+2)^0,f,c
  8117  004D3C  360C               	rlcf	(___aomod@divisor+3)^0,f,c
  8118  004D3E  360D               	rlcf	(___aomod@divisor+4)^0,f,c
  8119  004D40  360E               	rlcf	(___aomod@divisor+5)^0,f,c
  8120  004D42  360F               	rlcf	(___aomod@divisor+6)^0,f,c
  8121  004D44  3610               	rlcf	(___aomod@divisor+7)^0,f,c
  8122  004D46  2A11               	incf	___aomod@counter^0,f,c
  8123  004D48                     l4411:
  8124  004D48  AE10               	btfss	(___aomod@divisor+7)^0,7,c
  8125  004D4A  EFA9  F026         	goto	u5241
  8126  004D4E  EFAB  F026         	goto	u5240
  8127  004D52                     u5241:
  8128  004D52  EF9A  F026         	goto	l4409
  8129  004D56                     u5240:
  8130  004D56                     l4413:
  8131  004D56  5009               	movf	___aomod@divisor^0,w,c
  8132  004D58  5C01               	subwf	___aomod@dividend^0,w,c
  8133  004D5A  500A               	movf	(___aomod@divisor+1)^0,w,c
  8134  004D5C  5802               	subwfb	(___aomod@dividend+1)^0,w,c
  8135  004D5E  500B               	movf	(___aomod@divisor+2)^0,w,c
  8136  004D60  5803               	subwfb	(___aomod@dividend+2)^0,w,c
  8137  004D62  500C               	movf	(___aomod@divisor+3)^0,w,c
  8138  004D64  5804               	subwfb	(___aomod@dividend+3)^0,w,c
  8139  004D66  500D               	movf	(___aomod@divisor+4)^0,w,c
  8140  004D68  5805               	subwfb	(___aomod@dividend+4)^0,w,c
  8141  004D6A  500E               	movf	(___aomod@divisor+5)^0,w,c
  8142  004D6C  5806               	subwfb	(___aomod@dividend+5)^0,w,c
  8143  004D6E  500F               	movf	(___aomod@divisor+6)^0,w,c
  8144  004D70  5807               	subwfb	(___aomod@dividend+6)^0,w,c
  8145  004D72  5010               	movf	(___aomod@divisor+7)^0,w,c
  8146  004D74  5808               	subwfb	(___aomod@dividend+7)^0,w,c
  8147  004D76  A0D8               	btfss	status,0,c
  8148  004D78  EFC0  F026         	goto	u5251
  8149  004D7C  EFC2  F026         	goto	u5250
  8150  004D80                     u5251:
  8151  004D80  EFD2  F026         	goto	l4417
  8152  004D84                     u5250:
  8153  004D84  5009               	movf	___aomod@divisor^0,w,c
  8154  004D86  5E01               	subwf	___aomod@dividend^0,f,c
  8155  004D88  500A               	movf	(___aomod@divisor+1)^0,w,c
  8156  004D8A  5A02               	subwfb	(___aomod@dividend+1)^0,f,c
  8157  004D8C  500B               	movf	(___aomod@divisor+2)^0,w,c
  8158  004D8E  5A03               	subwfb	(___aomod@dividend+2)^0,f,c
  8159  004D90  500C               	movf	(___aomod@divisor+3)^0,w,c
  8160  004D92  5A04               	subwfb	(___aomod@dividend+3)^0,f,c
  8161  004D94  500D               	movf	(___aomod@divisor+4)^0,w,c
  8162  004D96  5A05               	subwfb	(___aomod@dividend+4)^0,f,c
  8163  004D98  500E               	movf	(___aomod@divisor+5)^0,w,c
  8164  004D9A  5A06               	subwfb	(___aomod@dividend+5)^0,f,c
  8165  004D9C  500F               	movf	(___aomod@divisor+6)^0,w,c
  8166  004D9E  5A07               	subwfb	(___aomod@dividend+6)^0,f,c
  8167  004DA0  5010               	movf	(___aomod@divisor+7)^0,w,c
  8168  004DA2  5A08               	subwfb	(___aomod@dividend+7)^0,f,c
  8169  004DA4                     l4417:
  8170  004DA4  90D8               	bcf	status,0,c
  8171  004DA6  3210               	rrcf	(___aomod@divisor+7)^0,f,c
  8172  004DA8  320F               	rrcf	(___aomod@divisor+6)^0,f,c
  8173  004DAA  320E               	rrcf	(___aomod@divisor+5)^0,f,c
  8174  004DAC  320D               	rrcf	(___aomod@divisor+4)^0,f,c
  8175  004DAE  320C               	rrcf	(___aomod@divisor+3)^0,f,c
  8176  004DB0  320B               	rrcf	(___aomod@divisor+2)^0,f,c
  8177  004DB2  320A               	rrcf	(___aomod@divisor+1)^0,f,c
  8178  004DB4  3209               	rrcf	___aomod@divisor^0,f,c
  8179  004DB6  2E11               	decfsz	___aomod@counter^0,f,c
  8180  004DB8  EFAB  F026         	goto	l4413
  8181  004DBC                     l4421:
  8182  004DBC  5012               	movf	___aomod@sign^0,w,c
  8183  004DBE  B4D8               	btfsc	status,2,c
  8184  004DC0  EFE4  F026         	goto	u5261
  8185  004DC4  EFE6  F026         	goto	u5260
  8186  004DC8                     u5261:
  8187  004DC8  EFF6  F026         	goto	l4425
  8188  004DCC                     u5260:
  8189  004DCC  1E08               	comf	(___aomod@dividend+7)^0,f,c
  8190  004DCE  1E07               	comf	(___aomod@dividend+6)^0,f,c
  8191  004DD0  1E06               	comf	(___aomod@dividend+5)^0,f,c
  8192  004DD2  1E05               	comf	(___aomod@dividend+4)^0,f,c
  8193  004DD4  1E04               	comf	(___aomod@dividend+3)^0,f,c
  8194  004DD6  1E03               	comf	(___aomod@dividend+2)^0,f,c
  8195  004DD8  1E02               	comf	(___aomod@dividend+1)^0,f,c
  8196  004DDA  6C01               	negf	___aomod@dividend^0,c
  8197  004DDC  0E00               	movlw	0
  8198  004DDE  2202               	addwfc	(___aomod@dividend+1)^0,f,c
  8199  004DE0  2203               	addwfc	(___aomod@dividend+2)^0,f,c
  8200  004DE2  2204               	addwfc	(___aomod@dividend+3)^0,f,c
  8201  004DE4  2205               	addwfc	(___aomod@dividend+4)^0,f,c
  8202  004DE6  2206               	addwfc	(___aomod@dividend+5)^0,f,c
  8203  004DE8  2207               	addwfc	(___aomod@dividend+6)^0,f,c
  8204  004DEA  2208               	addwfc	(___aomod@dividend+7)^0,f,c
  8205  004DEC                     l4425:
  8206  004DEC  C001  F001         	movff	___aomod@dividend,?___aomod
  8207  004DF0  C002  F002         	movff	___aomod@dividend+1,?___aomod+1
  8208  004DF4  C003  F003         	movff	___aomod@dividend+2,?___aomod+2
  8209  004DF8  C004  F004         	movff	___aomod@dividend+3,?___aomod+3
  8210  004DFC  C005  F005         	movff	___aomod@dividend+4,?___aomod+4
  8211  004E00  C006  F006         	movff	___aomod@dividend+5,?___aomod+5
  8212  004E04  C007  F007         	movff	___aomod@dividend+6,?___aomod+6
  8213  004E08  C008  F008         	movff	___aomod@dividend+7,?___aomod+7
  8214  004E0C  0012               	return		;funcret
  8215  004E0E                     __end_of___aomod:
  8216                           	opt callstack 0
  8217                           
  8218 ;; *************** function ___aodiv *****************
  8219 ;; Defined at:
  8220 ;;		line 9 in file "/opt/microchip/xc8/v2.10/pic/sources/c99/common/aodiv.c"
  8221 ;; Parameters:    Size  Location     Type
  8222 ;;  dividend        8    0[COMRAM] long long 
  8223 ;;  divisor         8    8[COMRAM] long long 
  8224 ;; Auto vars:     Size  Location     Type
  8225 ;;  quotient        8   18[COMRAM] long long 
  8226 ;;  sign            1   17[COMRAM] unsigned char 
  8227 ;;  counter         1   16[COMRAM] unsigned char 
  8228 ;; Return value:  Size  Location     Type
  8229 ;;                  8    0[COMRAM] long long 
  8230 ;; Registers used:
  8231 ;;		wreg, fsr2l, fsr2h, status,2, status,0
  8232 ;; Tracked objects:
  8233 ;;		On entry : 0/0
  8234 ;;		On exit  : 0/0
  8235 ;;		Unchanged: 0/0
  8236 ;; Data sizes:     COMRAM   BANK0   BANK1   BANK2   BANK3   BANK4   BANK5   BANK6   BANK7
  8237 ;;      Params:        16       0       0       0       0       0       0       0       0
  8238 ;;      Locals:        10       0       0       0       0       0       0       0       0
  8239 ;;      Temps:          0       0       0       0       0       0       0       0       0
  8240 ;;      Totals:        26       0       0       0       0       0       0       0       0
  8241 ;;Total ram usage:       26 bytes
  8242 ;; Hardware stack levels used:    1
  8243 ;; This function calls:
  8244 ;;		Nothing
  8245 ;; This function is called by:
  8246 ;;		_dtoa
  8247 ;; This function uses a non-reentrant model
  8248 ;;
  8249                           
  8250                           	psect	text26
  8251  00499C                     __ptext26:
  8252                           	opt callstack 0
  8253  00499C                     ___aodiv:
  8254                           	opt callstack 26
  8255  00499C  0E00               	movlw	0
  8256  00499E  6E12               	movwf	___aodiv@sign^0,c
  8257  0049A0  BE10               	btfsc	(___aodiv@divisor+7)^0,7,c
  8258  0049A2  EFD7  F024         	goto	u5140
  8259  0049A6  EFD5  F024         	goto	u5141
  8260  0049AA                     u5141:
  8261  0049AA  EFE9  F024         	goto	l4357
  8262  0049AE                     u5140:
  8263  0049AE  1E10               	comf	(___aodiv@divisor+7)^0,f,c
  8264  0049B0  1E0F               	comf	(___aodiv@divisor+6)^0,f,c
  8265  0049B2  1E0E               	comf	(___aodiv@divisor+5)^0,f,c
  8266  0049B4  1E0D               	comf	(___aodiv@divisor+4)^0,f,c
  8267  0049B6  1E0C               	comf	(___aodiv@divisor+3)^0,f,c
  8268  0049B8  1E0B               	comf	(___aodiv@divisor+2)^0,f,c
  8269  0049BA  1E0A               	comf	(___aodiv@divisor+1)^0,f,c
  8270  0049BC  6C09               	negf	___aodiv@divisor^0,c
  8271  0049BE  0E00               	movlw	0
  8272  0049C0  220A               	addwfc	(___aodiv@divisor+1)^0,f,c
  8273  0049C2  220B               	addwfc	(___aodiv@divisor+2)^0,f,c
  8274  0049C4  220C               	addwfc	(___aodiv@divisor+3)^0,f,c
  8275  0049C6  220D               	addwfc	(___aodiv@divisor+4)^0,f,c
  8276  0049C8  220E               	addwfc	(___aodiv@divisor+5)^0,f,c
  8277  0049CA  220F               	addwfc	(___aodiv@divisor+6)^0,f,c
  8278  0049CC  2210               	addwfc	(___aodiv@divisor+7)^0,f,c
  8279  0049CE  0E01               	movlw	1
  8280  0049D0  6E12               	movwf	___aodiv@sign^0,c
  8281  0049D2                     l4357:
  8282  0049D2  BE08               	btfsc	(___aodiv@dividend+7)^0,7,c
  8283  0049D4  EFF0  F024         	goto	u5150
  8284  0049D8  EFEE  F024         	goto	u5151
  8285  0049DC                     u5151:
  8286  0049DC  EF02  F025         	goto	l4363
  8287  0049E0                     u5150:
  8288  0049E0  1E08               	comf	(___aodiv@dividend+7)^0,f,c
  8289  0049E2  1E07               	comf	(___aodiv@dividend+6)^0,f,c
  8290  0049E4  1E06               	comf	(___aodiv@dividend+5)^0,f,c
  8291  0049E6  1E05               	comf	(___aodiv@dividend+4)^0,f,c
  8292  0049E8  1E04               	comf	(___aodiv@dividend+3)^0,f,c
  8293  0049EA  1E03               	comf	(___aodiv@dividend+2)^0,f,c
  8294  0049EC  1E02               	comf	(___aodiv@dividend+1)^0,f,c
  8295  0049EE  6C01               	negf	___aodiv@dividend^0,c
  8296  0049F0  0E00               	movlw	0
  8297  0049F2  2202               	addwfc	(___aodiv@dividend+1)^0,f,c
  8298  0049F4  2203               	addwfc	(___aodiv@dividend+2)^0,f,c
  8299  0049F6  2204               	addwfc	(___aodiv@dividend+3)^0,f,c
  8300  0049F8  2205               	addwfc	(___aodiv@dividend+4)^0,f,c
  8301  0049FA  2206               	addwfc	(___aodiv@dividend+5)^0,f,c
  8302  0049FC  2207               	addwfc	(___aodiv@dividend+6)^0,f,c
  8303  0049FE  2208               	addwfc	(___aodiv@dividend+7)^0,f,c
  8304  004A00  0E01               	movlw	1
  8305  004A02  1A12               	xorwf	___aodiv@sign^0,f,c
  8306  004A04                     l4363:
  8307  004A04  EE20  F013         	lfsr	2,___aodiv@quotient
  8308  004A08  0E07               	movlw	7
  8309  004A0A                     u5161:
  8310  004A0A  6ADE               	clrf	postinc2,c
  8311  004A0C  06E8               	decf	wreg,f,c
  8312  004A0E  E2FD               	bc	u5161
  8313  004A10  5009               	movf	___aodiv@divisor^0,w,c
  8314  004A12  100A               	iorwf	(___aodiv@divisor+1)^0,w,c
  8315  004A14  100B               	iorwf	(___aodiv@divisor+2)^0,w,c
  8316  004A16  100C               	iorwf	(___aodiv@divisor+3)^0,w,c
  8317  004A18  100D               	iorwf	(___aodiv@divisor+4)^0,w,c
  8318  004A1A  100E               	iorwf	(___aodiv@divisor+5)^0,w,c
  8319  004A1C  100F               	iorwf	(___aodiv@divisor+6)^0,w,c
  8320  004A1E  1010               	iorwf	(___aodiv@divisor+7)^0,w,c
  8321  004A20  B4D8               	btfsc	status,2,c
  8322  004A22  EF15  F025         	goto	u5171
  8323  004A26  EF17  F025         	goto	u5170
  8324  004A2A                     u5171:
  8325  004A2A  EF69  F025         	goto	l4385
  8326  004A2E                     u5170:
  8327  004A2E  0E01               	movlw	1
  8328  004A30  6E11               	movwf	___aodiv@counter^0,c
  8329  004A32  EF25  F025         	goto	l4371
  8330  004A36                     l4369:
  8331  004A36  90D8               	bcf	status,0,c
  8332  004A38  3609               	rlcf	___aodiv@divisor^0,f,c
  8333  004A3A  360A               	rlcf	(___aodiv@divisor+1)^0,f,c
  8334  004A3C  360B               	rlcf	(___aodiv@divisor+2)^0,f,c
  8335  004A3E  360C               	rlcf	(___aodiv@divisor+3)^0,f,c
  8336  004A40  360D               	rlcf	(___aodiv@divisor+4)^0,f,c
  8337  004A42  360E               	rlcf	(___aodiv@divisor+5)^0,f,c
  8338  004A44  360F               	rlcf	(___aodiv@divisor+6)^0,f,c
  8339  004A46  3610               	rlcf	(___aodiv@divisor+7)^0,f,c
  8340  004A48  2A11               	incf	___aodiv@counter^0,f,c
  8341  004A4A                     l4371:
  8342  004A4A  AE10               	btfss	(___aodiv@divisor+7)^0,7,c
  8343  004A4C  EF2A  F025         	goto	u5181
  8344  004A50  EF2C  F025         	goto	u5180
  8345  004A54                     u5181:
  8346  004A54  EF1B  F025         	goto	l4369
  8347  004A58                     u5180:
  8348  004A58                     l4373:
  8349  004A58  90D8               	bcf	status,0,c
  8350  004A5A  3613               	rlcf	___aodiv@quotient^0,f,c
  8351  004A5C  3614               	rlcf	(___aodiv@quotient+1)^0,f,c
  8352  004A5E  3615               	rlcf	(___aodiv@quotient+2)^0,f,c
  8353  004A60  3616               	rlcf	(___aodiv@quotient+3)^0,f,c
  8354  004A62  3617               	rlcf	(___aodiv@quotient+4)^0,f,c
  8355  004A64  3618               	rlcf	(___aodiv@quotient+5)^0,f,c
  8356  004A66  3619               	rlcf	(___aodiv@quotient+6)^0,f,c
  8357  004A68  361A               	rlcf	(___aodiv@quotient+7)^0,f,c
  8358  004A6A  5009               	movf	___aodiv@divisor^0,w,c
  8359  004A6C  5C01               	subwf	___aodiv@dividend^0,w,c
  8360  004A6E  500A               	movf	(___aodiv@divisor+1)^0,w,c
  8361  004A70  5802               	subwfb	(___aodiv@dividend+1)^0,w,c
  8362  004A72  500B               	movf	(___aodiv@divisor+2)^0,w,c
  8363  004A74  5803               	subwfb	(___aodiv@dividend+2)^0,w,c
  8364  004A76  500C               	movf	(___aodiv@divisor+3)^0,w,c
  8365  004A78  5804               	subwfb	(___aodiv@dividend+3)^0,w,c
  8366  004A7A  500D               	movf	(___aodiv@divisor+4)^0,w,c
  8367  004A7C  5805               	subwfb	(___aodiv@dividend+4)^0,w,c
  8368  004A7E  500E               	movf	(___aodiv@divisor+5)^0,w,c
  8369  004A80  5806               	subwfb	(___aodiv@dividend+5)^0,w,c
  8370  004A82  500F               	movf	(___aodiv@divisor+6)^0,w,c
  8371  004A84  5807               	subwfb	(___aodiv@dividend+6)^0,w,c
  8372  004A86  5010               	movf	(___aodiv@divisor+7)^0,w,c
  8373  004A88  5808               	subwfb	(___aodiv@dividend+7)^0,w,c
  8374  004A8A  A0D8               	btfss	status,0,c
  8375  004A8C  EF4A  F025         	goto	u5191
  8376  004A90  EF4C  F025         	goto	u5190
  8377  004A94                     u5191:
  8378  004A94  EF5D  F025         	goto	l4381
  8379  004A98                     u5190:
  8380  004A98  5009               	movf	___aodiv@divisor^0,w,c
  8381  004A9A  5E01               	subwf	___aodiv@dividend^0,f,c
  8382  004A9C  500A               	movf	(___aodiv@divisor+1)^0,w,c
  8383  004A9E  5A02               	subwfb	(___aodiv@dividend+1)^0,f,c
  8384  004AA0  500B               	movf	(___aodiv@divisor+2)^0,w,c
  8385  004AA2  5A03               	subwfb	(___aodiv@dividend+2)^0,f,c
  8386  004AA4  500C               	movf	(___aodiv@divisor+3)^0,w,c
  8387  004AA6  5A04               	subwfb	(___aodiv@dividend+3)^0,f,c
  8388  004AA8  500D               	movf	(___aodiv@divisor+4)^0,w,c
  8389  004AAA  5A05               	subwfb	(___aodiv@dividend+4)^0,f,c
  8390  004AAC  500E               	movf	(___aodiv@divisor+5)^0,w,c
  8391  004AAE  5A06               	subwfb	(___aodiv@dividend+5)^0,f,c
  8392  004AB0  500F               	movf	(___aodiv@divisor+6)^0,w,c
  8393  004AB2  5A07               	subwfb	(___aodiv@dividend+6)^0,f,c
  8394  004AB4  5010               	movf	(___aodiv@divisor+7)^0,w,c
  8395  004AB6  5A08               	subwfb	(___aodiv@dividend+7)^0,f,c
  8396  004AB8  8013               	bsf	___aodiv@quotient^0,0,c
  8397  004ABA                     l4381:
  8398  004ABA  90D8               	bcf	status,0,c
  8399  004ABC  3210               	rrcf	(___aodiv@divisor+7)^0,f,c
  8400  004ABE  320F               	rrcf	(___aodiv@divisor+6)^0,f,c
  8401  004AC0  320E               	rrcf	(___aodiv@divisor+5)^0,f,c
  8402  004AC2  320D               	rrcf	(___aodiv@divisor+4)^0,f,c
  8403  004AC4  320C               	rrcf	(___aodiv@divisor+3)^0,f,c
  8404  004AC6  320B               	rrcf	(___aodiv@divisor+2)^0,f,c
  8405  004AC8  320A               	rrcf	(___aodiv@divisor+1)^0,f,c
  8406  004ACA  3209               	rrcf	___aodiv@divisor^0,f,c
  8407  004ACC  2E11               	decfsz	___aodiv@counter^0,f,c
  8408  004ACE  EF2C  F025         	goto	l4373
  8409  004AD2                     l4385:
  8410  004AD2  5012               	movf	___aodiv@sign^0,w,c
  8411  004AD4  B4D8               	btfsc	status,2,c
  8412  004AD6  EF6F  F025         	goto	u5201
  8413  004ADA  EF71  F025         	goto	u5200
  8414  004ADE                     u5201:
  8415  004ADE  EF81  F025         	goto	l4389
  8416  004AE2                     u5200:
  8417  004AE2  1E1A               	comf	(___aodiv@quotient+7)^0,f,c
  8418  004AE4  1E19               	comf	(___aodiv@quotient+6)^0,f,c
  8419  004AE6  1E18               	comf	(___aodiv@quotient+5)^0,f,c
  8420  004AE8  1E17               	comf	(___aodiv@quotient+4)^0,f,c
  8421  004AEA  1E16               	comf	(___aodiv@quotient+3)^0,f,c
  8422  004AEC  1E15               	comf	(___aodiv@quotient+2)^0,f,c
  8423  004AEE  1E14               	comf	(___aodiv@quotient+1)^0,f,c
  8424  004AF0  6C13               	negf	___aodiv@quotient^0,c
  8425  004AF2  0E00               	movlw	0
  8426  004AF4  2214               	addwfc	(___aodiv@quotient+1)^0,f,c
  8427  004AF6  2215               	addwfc	(___aodiv@quotient+2)^0,f,c
  8428  004AF8  2216               	addwfc	(___aodiv@quotient+3)^0,f,c
  8429  004AFA  2217               	addwfc	(___aodiv@quotient+4)^0,f,c
  8430  004AFC  2218               	addwfc	(___aodiv@quotient+5)^0,f,c
  8431  004AFE  2219               	addwfc	(___aodiv@quotient+6)^0,f,c
  8432  004B00  221A               	addwfc	(___aodiv@quotient+7)^0,f,c
  8433  004B02                     l4389:
  8434  004B02  C013  F001         	movff	___aodiv@quotient,?___aodiv
  8435  004B06  C014  F002         	movff	___aodiv@quotient+1,?___aodiv+1
  8436  004B0A  C015  F003         	movff	___aodiv@quotient+2,?___aodiv+2
  8437  004B0E  C016  F004         	movff	___aodiv@quotient+3,?___aodiv+3
  8438  004B12  C017  F005         	movff	___aodiv@quotient+4,?___aodiv+4
  8439  004B16  C018  F006         	movff	___aodiv@quotient+5,?___aodiv+5
  8440  004B1A  C019  F007         	movff	___aodiv@quotient+6,?___aodiv+6
  8441  004B1E  C01A  F008         	movff	___aodiv@quotient+7,?___aodiv+7
  8442  004B22  0012               	return		;funcret
  8443  004B24                     __end_of___aodiv:
  8444                           	opt callstack 0
  8445                           
  8446 ;; *************** function _ctoa *****************
  8447 ;; Defined at:
  8448 ;;		line 259 in file "/opt/microchip/xc8/v2.10/pic/sources/c99/common/doprnt.c"
  8449 ;; Parameters:    Size  Location     Type
  8450 ;;  fp              2   27[COMRAM] PTR struct _IO_FILE
  8451 ;;		 -> sprintf@f(6), 
  8452 ;;  c               1   29[COMRAM] unsigned char 
  8453 ;; Auto vars:     Size  Location     Type
  8454 ;;  w               2   30[COMRAM] int 
  8455 ;;  l               2    0        int 
  8456 ;; Return value:  Size  Location     Type
  8457 ;;                  2   27[COMRAM] int 
  8458 ;; Registers used:
  8459 ;;		wreg, fsr1l, fsr1h, fsr2l, fsr2h, status,2, status,0, cstack
  8460 ;; Tracked objects:
  8461 ;;		On entry : 0/0
  8462 ;;		On exit  : 0/0
  8463 ;;		Unchanged: 0/0
  8464 ;; Data sizes:     COMRAM   BANK0   BANK1   BANK2   BANK3   BANK4   BANK5   BANK6   BANK7
  8465 ;;      Params:         3       0       0       0       0       0       0       0       0
  8466 ;;      Locals:         2       0       0       0       0       0       0       0       0
  8467 ;;      Temps:          0       0       0       0       0       0       0       0       0
  8468 ;;      Totals:         5       0       0       0       0       0       0       0       0
  8469 ;;Total ram usage:        5 bytes
  8470 ;; Hardware stack levels used:    1
  8471 ;; Hardware stack levels required when called:    4
  8472 ;; This function calls:
  8473 ;;		_pad
  8474 ;; This function is called by:
  8475 ;;		_vfpfcnvrt
  8476 ;; This function uses a non-reentrant model
  8477 ;;
  8478                           
  8479                           	psect	text27
  8480  005E1C                     __ptext27:
  8481                           	opt callstack 0
  8482  005E1C                     _ctoa:
  8483                           	opt callstack 23
  8484  005E1C                     
  8485                           ;/opt/microchip/xc8/v2.10/pic/sources/c99/common/doprnt.c: 259: static int ctoa(FILE *fp
      +                          , char c);/opt/microchip/xc8/v2.10/pic/sources/c99/common/doprnt.c: 260: {;/opt/microchi
      +                          p/xc8/v2.10/pic/sources/c99/common/doprnt.c: 261:     int l, w;;/opt/microchip/xc8/v2.10
      +                          /pic/sources/c99/common/doprnt.c: 264:     w = width ? width - 1 : width;
  8486  005E1C  0100               	movlb	0	; () banked
  8487  005E1E  51F8               	movf	_width& (0+255),w,b
  8488  005E20  11F9               	iorwf	(_width+1)& (0+255),w,b
  8489  005E22  A4D8               	btfss	status,2,c
  8490  005E24  EF16  F02F         	goto	u5991
  8491  005E28  EF18  F02F         	goto	u5990
  8492  005E2C                     u5991:
  8493  005E2C  EF1E  F02F         	goto	l4889
  8494  005E30                     u5990:
  8495  005E30                     
  8496                           ; BSR set to: 0
  8497  005E30  C0F8  F01F         	movff	_width,ctoa@w
  8498  005E34  C0F9  F020         	movff	_width+1,ctoa@w+1
  8499  005E38  EF24  F02F         	goto	l4891
  8500  005E3C                     l4889:
  8501                           
  8502                           ; BSR set to: 0
  8503  005E3C  0EFF               	movlw	255
  8504  005E3E  25F8               	addwf	_width& (0+255),w,b
  8505  005E40  6E1F               	movwf	ctoa@w^0,c
  8506  005E42  0EFF               	movlw	255
  8507  005E44  21F9               	addwfc	(_width+1)& (0+255),w,b
  8508  005E46  6E20               	movwf	(ctoa@w+1)^0,c
  8509  005E48                     l4891:
  8510                           
  8511                           ; BSR set to: 0
  8512                           ;/opt/microchip/xc8/v2.10/pic/sources/c99/common/doprnt.c: 267:     dbuf[0] = c;
  8513  005E48  C01E  F200         	movff	ctoa@c,_dbuf
  8514  005E4C                     
  8515                           ; BSR set to: 0
  8516                           ;/opt/microchip/xc8/v2.10/pic/sources/c99/common/doprnt.c: 268:     dbuf[1] = '\0';
  8517  005E4C  0E00               	movlw	0
  8518  005E4E  0102               	movlb	2	; () banked
  8519  005E50  6F01               	movwf	(_dbuf+1)& (0+255),b
  8520  005E52                     
  8521                           ; BSR set to: 2
  8522                           ;/opt/microchip/xc8/v2.10/pic/sources/c99/common/doprnt.c: 269:     return pad(fp, &dbuf
      +                          [0], w);
  8523  005E52  C01C  F011         	movff	ctoa@fp,pad@fp
  8524  005E56  C01D  F012         	movff	ctoa@fp+1,pad@fp+1
  8525  005E5A  0E00               	movlw	low _dbuf
  8526  005E5C  6E13               	movwf	pad@buf^0,c
  8527  005E5E  0E02               	movlw	high _dbuf
  8528  005E60  6E14               	movwf	(pad@buf+1)^0,c
  8529  005E62  C01F  F015         	movff	ctoa@w,pad@p
  8530  005E66  C020  F016         	movff	ctoa@w+1,pad@p+1
  8531  005E6A  ECFA  F02A         	call	_pad	;wreg free
  8532  005E6E  C011  F01C         	movff	?_pad,?_ctoa
  8533  005E72  C012  F01D         	movff	?_pad+1,?_ctoa+1
  8534  005E76  0012               	return		;funcret
  8535  005E78                     __end_of_ctoa:
  8536                           	opt callstack 0
  8537                           
  8538 ;; *************** function _pad *****************
  8539 ;; Defined at:
  8540 ;;		line 72 in file "/opt/microchip/xc8/v2.10/pic/sources/c99/common/doprnt.c"
  8541 ;; Parameters:    Size  Location     Type
  8542 ;;  fp              2   16[COMRAM] PTR struct _IO_FILE
  8543 ;;		 -> sprintf@f(6), 
  8544 ;;  buf             2   18[COMRAM] PTR unsigned char 
  8545 ;;		 -> dbuf(80), 
  8546 ;;  p               2   20[COMRAM] int 
  8547 ;; Auto vars:     Size  Location     Type
  8548 ;;  w               2   25[COMRAM] int 
  8549 ;;  i               2   23[COMRAM] int 
  8550 ;; Return value:  Size  Location     Type
  8551 ;;                  2   16[COMRAM] int 
  8552 ;; Registers used:
  8553 ;;		wreg, fsr1l, fsr1h, fsr2l, fsr2h, status,2, status,0, cstack
  8554 ;; Tracked objects:
  8555 ;;		On entry : 0/0
  8556 ;;		On exit  : 0/0
  8557 ;;		Unchanged: 0/0
  8558 ;; Data sizes:     COMRAM   BANK0   BANK1   BANK2   BANK3   BANK4   BANK5   BANK6   BANK7
  8559 ;;      Params:         6       0       0       0       0       0       0       0       0
  8560 ;;      Locals:         4       0       0       0       0       0       0       0       0
  8561 ;;      Temps:          1       0       0       0       0       0       0       0       0
  8562 ;;      Totals:        11       0       0       0       0       0       0       0       0
  8563 ;;Total ram usage:       11 bytes
  8564 ;; Hardware stack levels used:    1
  8565 ;; Hardware stack levels required when called:    3
  8566 ;; This function calls:
  8567 ;;		_fputc
  8568 ;;		_fputs
  8569 ;;		_strlen
  8570 ;; This function is called by:
  8571 ;;		_ctoa
  8572 ;;		_dtoa
  8573 ;;		_efgtoa
  8574 ;; This function uses a non-reentrant model
  8575 ;;
  8576                           
  8577                           	psect	text28
  8578  0055F4                     __ptext28:
  8579                           	opt callstack 0
  8580  0055F4                     _pad:
  8581                           	opt callstack 23
  8582  0055F4                     
  8583                           ;/opt/microchip/xc8/v2.10/pic/sources/c99/common/doprnt.c: 72: static int pad(FILE *fp, 
      +                          char *buf, int p);/opt/microchip/xc8/v2.10/pic/sources/c99/common/doprnt.c: 73: {;/opt/m
      +                          icrochip/xc8/v2.10/pic/sources/c99/common/doprnt.c: 74:     int i, w;;/opt/microchip/xc8
      +                          /v2.10/pic/sources/c99/common/doprnt.c: 77:     if (flags & (1 << 0)) {
  8584  0055F4  0100               	movlb	0	; () banked
  8585  0055F6  A1FC               	btfss	_flags& (0+255),0,b
  8586  0055F8  EF00  F02B         	goto	u4851
  8587  0055FC  EF02  F02B         	goto	u4850
  8588  005600                     u4851:
  8589  005600  EF0C  F02B         	goto	l4253
  8590  005604                     u4850:
  8591  005604                     
  8592                           ; BSR set to: 0
  8593                           ;/opt/microchip/xc8/v2.10/pic/sources/c99/common/doprnt.c: 78:         fputs((const char
      +                           *)buf, fp);
  8594  005604  C013  F00A         	movff	pad@buf,fputs@s
  8595  005608  C014  F00B         	movff	pad@buf+1,fputs@s+1
  8596  00560C  C011  F00C         	movff	pad@fp,fputs@fp
  8597  005610  C012  F00D         	movff	pad@fp+1,fputs@fp+1
  8598  005614  EC06  F030         	call	_fputs	;wreg free
  8599  005618                     l4253:
  8600                           
  8601                           ;/opt/microchip/xc8/v2.10/pic/sources/c99/common/doprnt.c: 82:     w = (p < 0) ? 0 : p;
  8602  005618  BE16               	btfsc	(pad@p+1)^0,7,c
  8603  00561A  EF11  F02B         	goto	u4861
  8604  00561E  EF13  F02B         	goto	u4860
  8605  005622                     u4861:
  8606  005622  EF19  F02B         	goto	l4257
  8607  005626                     u4860:
  8608  005626  C015  F01A         	movff	pad@p,pad@w
  8609  00562A  C016  F01B         	movff	pad@p+1,pad@w+1
  8610  00562E  EF1D  F02B         	goto	l239
  8611  005632                     l4257:
  8612  005632  0E00               	movlw	0
  8613  005634  6E1B               	movwf	(pad@w+1)^0,c
  8614  005636  0E00               	movlw	0
  8615  005638  6E1A               	movwf	pad@w^0,c
  8616  00563A                     l239:
  8617                           
  8618                           ;/opt/microchip/xc8/v2.10/pic/sources/c99/common/doprnt.c: 83:     i = 0;
  8619  00563A  0E00               	movlw	0
  8620  00563C  6E19               	movwf	(pad@i+1)^0,c
  8621  00563E  0E00               	movlw	0
  8622  005640  6E18               	movwf	pad@i^0,c
  8623                           
  8624                           ;/opt/microchip/xc8/v2.10/pic/sources/c99/common/doprnt.c: 84:     while (i < w) {
  8625  005642  EF2F  F02B         	goto	l4263
  8626  005646                     l4259:
  8627                           
  8628                           ;/opt/microchip/xc8/v2.10/pic/sources/c99/common/doprnt.c: 85:         fputc(' ', fp);
  8629  005646  0E00               	movlw	0
  8630  005648  6E02               	movwf	(fputc@c+1)^0,c
  8631  00564A  0E20               	movlw	32
  8632  00564C  6E01               	movwf	fputc@c^0,c
  8633  00564E  C011  F003         	movff	pad@fp,fputc@fp
  8634  005652  C012  F004         	movff	pad@fp+1,fputc@fp+1
  8635  005656  EC95  F02A         	call	_fputc	;wreg free
  8636  00565A                     
  8637                           ;/opt/microchip/xc8/v2.10/pic/sources/c99/common/doprnt.c: 86:         ++i;
  8638  00565A  4A18               	infsnz	pad@i^0,f,c
  8639  00565C  2A19               	incf	(pad@i+1)^0,f,c
  8640  00565E                     l4263:
  8641                           
  8642                           ;/opt/microchip/xc8/v2.10/pic/sources/c99/common/doprnt.c: 84:     while (i < w) {
  8643  00565E  501A               	movf	pad@w^0,w,c
  8644  005660  5C18               	subwf	pad@i^0,w,c
  8645  005662  5019               	movf	(pad@i+1)^0,w,c
  8646  005664  0A80               	xorlw	128
  8647  005666  6E17               	movwf	??_pad^0,c
  8648  005668  501B               	movf	(pad@w+1)^0,w,c
  8649  00566A  0A80               	xorlw	128
  8650  00566C  5817               	subwfb	??_pad^0,w,c
  8651  00566E  A0D8               	btfss	status,0,c
  8652  005670  EF3C  F02B         	goto	u4871
  8653  005674  EF3E  F02B         	goto	u4870
  8654  005678                     u4871:
  8655  005678  EF23  F02B         	goto	l4259
  8656  00567C                     u4870:
  8657  00567C                     
  8658                           ;/opt/microchip/xc8/v2.10/pic/sources/c99/common/doprnt.c: 90:     if (!(flags & (1 << 0
      +                          ))) {
  8659  00567C  0100               	movlb	0	; () banked
  8660  00567E  B1FC               	btfsc	_flags& (0+255),0,b
  8661  005680  EF44  F02B         	goto	u4881
  8662  005684  EF46  F02B         	goto	u4880
  8663  005688                     u4881:
  8664  005688  EF50  F02B         	goto	l4267
  8665  00568C                     u4880:
  8666  00568C                     
  8667                           ; BSR set to: 0
  8668                           ;/opt/microchip/xc8/v2.10/pic/sources/c99/common/doprnt.c: 91:         fputs((const char
      +                           *)buf, fp);
  8669  00568C  C013  F00A         	movff	pad@buf,fputs@s
  8670  005690  C014  F00B         	movff	pad@buf+1,fputs@s+1
  8671  005694  C011  F00C         	movff	pad@fp,fputs@fp
  8672  005698  C012  F00D         	movff	pad@fp+1,fputs@fp+1
  8673  00569C  EC06  F030         	call	_fputs	;wreg free
  8674  0056A0                     l4267:
  8675                           
  8676                           ;/opt/microchip/xc8/v2.10/pic/sources/c99/common/doprnt.c: 94:     return strlen(buf) + 
      +                          w;
  8677  0056A0  C013  F001         	movff	pad@buf,strlen@s
  8678  0056A4  C014  F002         	movff	pad@buf+1,strlen@s+1
  8679  0056A8  ECD4  F030         	call	_strlen	;wreg free
  8680  0056AC  501A               	movf	pad@w^0,w,c
  8681  0056AE  2401               	addwf	?_strlen^0,w,c
  8682  0056B0  6E11               	movwf	?_pad^0,c
  8683  0056B2  501B               	movf	(pad@w+1)^0,w,c
  8684  0056B4  2002               	addwfc	(?_strlen+1)^0,w,c
  8685  0056B6  6E12               	movwf	(?_pad+1)^0,c
  8686  0056B8  0012               	return		;funcret
  8687  0056BA                     __end_of_pad:
  8688                           	opt callstack 0
  8689                           
  8690 ;; *************** function _strlen *****************
  8691 ;; Defined at:
  8692 ;;		line 5 in file "/opt/microchip/xc8/v2.10/pic/sources/c99/common/strlen.c"
  8693 ;; Parameters:    Size  Location     Type
  8694 ;;  s               2    0[COMRAM] PTR const unsigned char 
  8695 ;;		 -> ?_sprintf(2), stoa@nuls(7), dbuf(80), main@bufferFecha(20), 
  8696 ;;		 -> main@longitudMostrar(4), main@horaCompleta(9), 
  8697 ;; Auto vars:     Size  Location     Type
  8698 ;;  a               2    2[COMRAM] PTR const unsigned char 
  8699 ;;		 -> ?_sprintf(2), stoa@nuls(7), dbuf(80), main@bufferFecha(20), 
  8700 ;;		 -> main@longitudMostrar(4), main@horaCompleta(9), 
  8701 ;; Return value:  Size  Location     Type
  8702 ;;                  2    0[COMRAM] unsigned int 
  8703 ;; Registers used:
  8704 ;;		wreg, fsr2l, fsr2h, status,2, status,0
  8705 ;; Tracked objects:
  8706 ;;		On entry : 0/0
  8707 ;;		On exit  : 0/0
  8708 ;;		Unchanged: 0/0
  8709 ;; Data sizes:     COMRAM   BANK0   BANK1   BANK2   BANK3   BANK4   BANK5   BANK6   BANK7
  8710 ;;      Params:         2       0       0       0       0       0       0       0       0
  8711 ;;      Locals:         2       0       0       0       0       0       0       0       0
  8712 ;;      Temps:          0       0       0       0       0       0       0       0       0
  8713 ;;      Totals:         4       0       0       0       0       0       0       0       0
  8714 ;;Total ram usage:        4 bytes
  8715 ;; Hardware stack levels used:    1
  8716 ;; This function calls:
  8717 ;;		Nothing
  8718 ;; This function is called by:
  8719 ;;		_pad
  8720 ;;		_stoa
  8721 ;; This function uses a non-reentrant model
  8722 ;;
  8723                           
  8724                           	psect	text29
  8725  0061A8                     __ptext29:
  8726                           	opt callstack 0
  8727  0061A8                     _strlen:
  8728                           	opt callstack 26
  8729  0061A8  C001  F003         	movff	strlen@s,strlen@a
  8730  0061AC  C002  F004         	movff	strlen@s+1,strlen@a+1
  8731  0061B0  EFDC  F030         	goto	l4037
  8732  0061B4                     l4035:
  8733  0061B4  4A01               	infsnz	strlen@s^0,f,c
  8734  0061B6  2A02               	incf	(strlen@s+1)^0,f,c
  8735  0061B8                     l4037:
  8736  0061B8  C001  FFD9         	movff	strlen@s,fsr2l
  8737  0061BC  C002  FFDA         	movff	strlen@s+1,fsr2h
  8738  0061C0  50DF               	movf	indf2,w,c
  8739  0061C2  A4D8               	btfss	status,2,c
  8740  0061C4  EFE6  F030         	goto	u4431
  8741  0061C8  EFE8  F030         	goto	u4430
  8742  0061CC                     u4431:
  8743  0061CC  EFDA  F030         	goto	l4035
  8744  0061D0                     u4430:
  8745  0061D0  5003               	movf	strlen@a^0,w,c
  8746  0061D2  5C01               	subwf	strlen@s^0,w,c
  8747  0061D4  6E01               	movwf	?_strlen^0,c
  8748  0061D6  5004               	movf	(strlen@a+1)^0,w,c
  8749  0061D8  5802               	subwfb	(strlen@s+1)^0,w,c
  8750  0061DA  6E02               	movwf	(?_strlen+1)^0,c
  8751  0061DC  0012               	return		;funcret
  8752  0061DE                     __end_of_strlen:
  8753                           	opt callstack 0
  8754                           
  8755 ;; *************** function _fputs *****************
  8756 ;; Defined at:
  8757 ;;		line 8 in file "/opt/microchip/xc8/v2.10/pic/sources/c99/common/nf_fputs.c"
  8758 ;; Parameters:    Size  Location     Type
  8759 ;;  s               2    9[COMRAM] PTR const unsigned char 
  8760 ;;		 -> dbuf(80), 
  8761 ;;  fp              2   11[COMRAM] PTR struct _IO_FILE
  8762 ;;		 -> sprintf@f(6), 
  8763 ;; Auto vars:     Size  Location     Type
  8764 ;;  i               2   14[COMRAM] int 
  8765 ;;  c               1   13[COMRAM] unsigned char 
  8766 ;; Return value:  Size  Location     Type
  8767 ;;                  2    9[COMRAM] int 
  8768 ;; Registers used:
  8769 ;;		wreg, fsr1l, fsr1h, fsr2l, fsr2h, status,2, status,0, cstack
  8770 ;; Tracked objects:
  8771 ;;		On entry : 0/0
  8772 ;;		On exit  : 0/0
  8773 ;;		Unchanged: 0/0
  8774 ;; Data sizes:     COMRAM   BANK0   BANK1   BANK2   BANK3   BANK4   BANK5   BANK6   BANK7
  8775 ;;      Params:         4       0       0       0       0       0       0       0       0
  8776 ;;      Locals:         3       0       0       0       0       0       0       0       0
  8777 ;;      Temps:          0       0       0       0       0       0       0       0       0
  8778 ;;      Totals:         7       0       0       0       0       0       0       0       0
  8779 ;;Total ram usage:        7 bytes
  8780 ;; Hardware stack levels used:    1
  8781 ;; Hardware stack levels required when called:    2
  8782 ;; This function calls:
  8783 ;;		_fputc
  8784 ;; This function is called by:
  8785 ;;		_pad
  8786 ;; This function uses a non-reentrant model
  8787 ;;
  8788                           
  8789                           	psect	text30
  8790  00600C                     __ptext30:
  8791                           	opt callstack 0
  8792  00600C                     _fputs:
  8793                           	opt callstack 23
  8794  00600C  0E00               	movlw	0
  8795  00600E  6E10               	movwf	(fputs@i+1)^0,c
  8796  006010  0E00               	movlw	0
  8797  006012  6E0F               	movwf	fputs@i^0,c
  8798  006014  EF17  F030         	goto	l4031
  8799  006018                     l4027:
  8800  006018  C00E  F001         	movff	fputs@c,fputc@c
  8801  00601C  6A02               	clrf	(fputc@c+1)^0,c
  8802  00601E  C00C  F003         	movff	fputs@fp,fputc@fp
  8803  006022  C00D  F004         	movff	fputs@fp+1,fputc@fp+1
  8804  006026  EC95  F02A         	call	_fputc	;wreg free
  8805  00602A  4A0F               	infsnz	fputs@i^0,f,c
  8806  00602C  2A10               	incf	(fputs@i+1)^0,f,c
  8807  00602E                     l4031:
  8808  00602E  500F               	movf	fputs@i^0,w,c
  8809  006030  240A               	addwf	fputs@s^0,w,c
  8810  006032  6ED9               	movwf	fsr2l,c
  8811  006034  5010               	movf	(fputs@i+1)^0,w,c
  8812  006036  200B               	addwfc	(fputs@s+1)^0,w,c
  8813  006038  6EDA               	movwf	fsr2h,c
  8814  00603A  50DF               	movf	indf2,w,c
  8815  00603C  6E0E               	movwf	fputs@c^0,c
  8816  00603E  500E               	movf	fputs@c^0,w,c
  8817  006040  A4D8               	btfss	status,2,c
  8818  006042  EF25  F030         	goto	u4421
  8819  006046  EF27  F030         	goto	u4420
  8820  00604A                     u4421:
  8821  00604A  EF0C  F030         	goto	l4027
  8822  00604E                     u4420:
  8823  00604E  0012               	return		;funcret
  8824  006050                     __end_of_fputs:
  8825                           	opt callstack 0
  8826                           
  8827 ;; *************** function _fputc *****************
  8828 ;; Defined at:
  8829 ;;		line 8 in file "/opt/microchip/xc8/v2.10/pic/sources/c99/common/nf_fputc.c"
  8830 ;; Parameters:    Size  Location     Type
  8831 ;;  c               2    0[COMRAM] int 
  8832 ;;  fp              2    2[COMRAM] PTR struct _IO_FILE
  8833 ;;		 -> sprintf@f(6), 
  8834 ;; Auto vars:     Size  Location     Type
  8835 ;;		None
  8836 ;; Return value:  Size  Location     Type
  8837 ;;                  2    0[COMRAM] int 
  8838 ;; Registers used:
  8839 ;;		wreg, fsr1l, fsr1h, fsr2l, fsr2h, status,2, status,0, cstack
  8840 ;; Tracked objects:
  8841 ;;		On entry : 0/0
  8842 ;;		On exit  : 0/0
  8843 ;;		Unchanged: 0/0
  8844 ;; Data sizes:     COMRAM   BANK0   BANK1   BANK2   BANK3   BANK4   BANK5   BANK6   BANK7
  8845 ;;      Params:         4       0       0       0       0       0       0       0       0
  8846 ;;      Locals:         0       0       0       0       0       0       0       0       0
  8847 ;;      Temps:          5       0       0       0       0       0       0       0       0
  8848 ;;      Totals:         9       0       0       0       0       0       0       0       0
  8849 ;;Total ram usage:        9 bytes
  8850 ;; Hardware stack levels used:    1
  8851 ;; Hardware stack levels required when called:    1
  8852 ;; This function calls:
  8853 ;;		_putch
  8854 ;; This function is called by:
  8855 ;;		_pad
  8856 ;;		_stoa
  8857 ;;		_vfpfcnvrt
  8858 ;;		_fputs
  8859 ;; This function uses a non-reentrant model
  8860 ;;
  8861                           
  8862                           	psect	text31
  8863  00552A                     __ptext31:
  8864                           	opt callstack 0
  8865  00552A                     _fputc:
  8866                           	opt callstack 25
  8867  00552A  5003               	movf	fputc@fp^0,w,c
  8868  00552C  1004               	iorwf	(fputc@fp+1)^0,w,c
  8869  00552E  B4D8               	btfsc	status,2,c
  8870  005530  EF9C  F02A         	goto	u4381
  8871  005534  EF9E  F02A         	goto	u4380
  8872  005538                     u4381:
  8873  005538  EFA7  F02A         	goto	l4015
  8874  00553C                     u4380:
  8875  00553C  5003               	movf	fputc@fp^0,w,c
  8876  00553E  1004               	iorwf	(fputc@fp+1)^0,w,c
  8877  005540  A4D8               	btfss	status,2,c
  8878  005542  EFA5  F02A         	goto	u4391
  8879  005546  EFA7  F02A         	goto	u4390
  8880  00554A                     u4391:
  8881  00554A  EFAC  F02A         	goto	l4017
  8882  00554E                     u4390:
  8883  00554E                     l4015:
  8884  00554E  5001               	movf	fputc@c^0,w,c
  8885  005550  EC7F  F031         	call	_putch
  8886  005554  EFF9  F02A         	goto	l1195
  8887  005558                     l4017:
  8888  005558  EE20 F004          	lfsr	2,4
  8889  00555C  5003               	movf	fputc@fp^0,w,c
  8890  00555E  26D9               	addwf	fsr2l,f,c
  8891  005560  5004               	movf	(fputc@fp+1)^0,w,c
  8892  005562  22DA               	addwfc	fsr2h,f,c
  8893  005564  50DE               	movf	postinc2,w,c
  8894  005566  10DE               	iorwf	postinc2,w,c
  8895  005568  B4D8               	btfsc	status,2,c
  8896  00556A  EFB9  F02A         	goto	u4401
  8897  00556E  EFBB  F02A         	goto	u4400
  8898  005572                     u4401:
  8899  005572  EFD6  F02A         	goto	l4021
  8900  005576                     u4400:
  8901  005576  EE20 F004          	lfsr	2,4
  8902  00557A  5003               	movf	fputc@fp^0,w,c
  8903  00557C  26D9               	addwf	fsr2l,f,c
  8904  00557E  5004               	movf	(fputc@fp+1)^0,w,c
  8905  005580  22DA               	addwfc	fsr2h,f,c
  8906  005582  EE10 F002          	lfsr	1,2
  8907  005586  5003               	movf	fputc@fp^0,w,c
  8908  005588  26E1               	addwf	fsr1l,f,c
  8909  00558A  5004               	movf	(fputc@fp+1)^0,w,c
  8910  00558C  22E2               	addwfc	fsr1h,f,c
  8911  00558E  50DE               	movf	postinc2,w,c
  8912  005590  5CE6               	subwf	postinc1,w,c
  8913  005592  50E6               	movf	postinc1,w,c
  8914  005594  0A80               	xorlw	128
  8915  005596  6E09               	movwf	(??_fputc+4)^0,c
  8916  005598  50DE               	movf	postinc2,w,c
  8917  00559A  0A80               	xorlw	128
  8918  00559C  5809               	subwfb	(??_fputc+4)^0,w,c
  8919  00559E  B0D8               	btfsc	status,0,c
  8920  0055A0  EFD4  F02A         	goto	u4411
  8921  0055A4  EFD6  F02A         	goto	u4410
  8922  0055A8                     u4411:
  8923  0055A8  EFF9  F02A         	goto	l1195
  8924  0055AC                     u4410:
  8925  0055AC                     l4021:
  8926  0055AC  EE20 F002          	lfsr	2,2
  8927  0055B0  5003               	movf	fputc@fp^0,w,c
  8928  0055B2  26D9               	addwf	fsr2l,f,c
  8929  0055B4  5004               	movf	(fputc@fp+1)^0,w,c
  8930  0055B6  22DA               	addwfc	fsr2h,f,c
  8931  0055B8  CFDE F005          	movff	postinc2,??_fputc
  8932  0055BC  CFDD F006          	movff	postdec2,??_fputc+1
  8933  0055C0  C003  FFD9         	movff	fputc@fp,fsr2l
  8934  0055C4  C004  FFDA         	movff	fputc@fp+1,fsr2h
  8935  0055C8  CFDE F007          	movff	postinc2,??_fputc+2
  8936  0055CC  CFDD F008          	movff	postdec2,??_fputc+3
  8937  0055D0  5005               	movf	??_fputc^0,w,c
  8938  0055D2  2407               	addwf	(??_fputc+2)^0,w,c
  8939  0055D4  6ED9               	movwf	fsr2l,c
  8940  0055D6  5006               	movf	(??_fputc+1)^0,w,c
  8941  0055D8  2008               	addwfc	(??_fputc+3)^0,w,c
  8942  0055DA  6EDA               	movwf	fsr2h,c
  8943  0055DC  C001  FFDF         	movff	fputc@c,indf2
  8944  0055E0  EE20 F002          	lfsr	2,2
  8945  0055E4  5003               	movf	fputc@fp^0,w,c
  8946  0055E6  26D9               	addwf	fsr2l,f,c
  8947  0055E8  5004               	movf	(fputc@fp+1)^0,w,c
  8948  0055EA  22DA               	addwfc	fsr2h,f,c
  8949  0055EC  2ADE               	incf	postinc2,f,c
  8950  0055EE  0E00               	movlw	0
  8951  0055F0  22DD               	addwfc	postdec2,f,c
  8952  0055F2                     l1195:
  8953  0055F2  0012               	return		;funcret
  8954  0055F4                     __end_of_fputc:
  8955                           	opt callstack 0
  8956                           
  8957 ;; *************** function _putch *****************
  8958 ;; Defined at:
  8959 ;;		line 7 in file "/opt/microchip/xc8/v2.10/pic/sources/c99/common/putch.c"
  8960 ;; Parameters:    Size  Location     Type
  8961 ;;  c               1    wreg     unsigned char 
  8962 ;; Auto vars:     Size  Location     Type
  8963 ;;  c               1    0[COMRAM] unsigned char 
  8964 ;; Return value:  Size  Location     Type
  8965 ;;                  1    wreg      void 
  8966 ;; Registers used:
  8967 ;;		wreg
  8968 ;; Tracked objects:
  8969 ;;		On entry : 0/0
  8970 ;;		On exit  : 0/0
  8971 ;;		Unchanged: 0/0
  8972 ;; Data sizes:     COMRAM   BANK0   BANK1   BANK2   BANK3   BANK4   BANK5   BANK6   BANK7
  8973 ;;      Params:         0       0       0       0       0       0       0       0       0
  8974 ;;      Locals:         0       0       0       0       0       0       0       0       0
  8975 ;;      Temps:          0       0       0       0       0       0       0       0       0
  8976 ;;      Totals:         0       0       0       0       0       0       0       0       0
  8977 ;;Total ram usage:        0 bytes
  8978 ;; Hardware stack levels used:    1
  8979 ;; This function calls:
  8980 ;;		Nothing
  8981 ;; This function is called by:
  8982 ;;		_fputc
  8983 ;; This function uses a non-reentrant model
  8984 ;;
  8985                           
  8986                           	psect	text32
  8987  0062FE                     __ptext32:
  8988                           	opt callstack 0
  8989  0062FE                     _putch:
  8990                           	opt callstack 25
  8991  0062FE  0012               	return		;funcret
  8992  006300                     __end_of_putch:
  8993                           	opt callstack 0
  8994                           
  8995 ;; *************** function _atoi *****************
  8996 ;; Defined at:
  8997 ;;		line 4 in file "/opt/microchip/xc8/v2.10/pic/sources/c99/common/atoi.c"
  8998 ;; Parameters:    Size  Location     Type
  8999 ;;  s               2    7[COMRAM] PTR const unsigned char 
  9000 ;;		 -> STR_13(22), STR_12(11), STR_10(15), STR_9(13), 
  9001 ;;		 -> STR_8(11), STR_7(9), STR_6(11), STR_5(11), 
  9002 ;;		 -> STR_4(3), STR_3(3), STR_1(15), 
  9003 ;; Auto vars:     Size  Location     Type
  9004 ;;  n               2   20[COMRAM] int 
  9005 ;;  neg             2   13[COMRAM] int 
  9006 ;; Return value:  Size  Location     Type
  9007 ;;                  2    7[COMRAM] int 
  9008 ;; Registers used:
  9009 ;;		wreg, status,2, status,0, tblptrl, tblptrh, tblptru, prodl, prodh, cstack
  9010 ;; Tracked objects:
  9011 ;;		On entry : 0/0
  9012 ;;		On exit  : 0/0
  9013 ;;		Unchanged: 0/0
  9014 ;; Data sizes:     COMRAM   BANK0   BANK1   BANK2   BANK3   BANK4   BANK5   BANK6   BANK7
  9015 ;;      Params:         2       0       0       0       0       0       0       0       0
  9016 ;;      Locals:         9       0       0       0       0       0       0       0       0
  9017 ;;      Temps:          4       0       0       0       0       0       0       0       0
  9018 ;;      Totals:        15       0       0       0       0       0       0       0       0
  9019 ;;Total ram usage:       15 bytes
  9020 ;; Hardware stack levels used:    1
  9021 ;; Hardware stack levels required when called:    1
  9022 ;; This function calls:
  9023 ;;		___wmul
  9024 ;;		_isdigit
  9025 ;;		_isspace
  9026 ;; This function is called by:
  9027 ;;		_vfpfcnvrt
  9028 ;; This function uses a non-reentrant model
  9029 ;;
  9030                           
  9031                           	psect	text33
  9032  00467E                     __ptext33:
  9033                           	opt callstack 0
  9034  00467E                     _atoi:
  9035                           	opt callstack 26
  9036  00467E  0E00               	movlw	0
  9037  004680  6E16               	movwf	(atoi@n+1)^0,c
  9038  004682  0E00               	movlw	0
  9039  004684  6E15               	movwf	atoi@n^0,c
  9040  004686  0E00               	movlw	0
  9041  004688  6E0F               	movwf	(atoi@neg+1)^0,c
  9042  00468A  0E00               	movlw	0
  9043  00468C  6E0E               	movwf	atoi@neg^0,c
  9044  00468E  EF4B  F023         	goto	l5305
  9045  004692                     l5303:
  9046  004692  4A08               	infsnz	atoi@s^0,f,c
  9047  004694  2A09               	incf	(atoi@s+1)^0,f,c
  9048  004696                     l5305:
  9049  004696  0E01               	movlw	1
  9050  004698  6E14               	movwf	_atoi$1146^0,c
  9051  00469A  C008  FFF6         	movff	atoi@s,tblptrl
  9052  00469E  C009  FFF7         	movff	atoi@s+1,tblptrh
  9053  0046A2                     	if	0	;tblptru may be non-zero
  9054  0046A2                     	endif
  9055  0046A2                     	if	0	;tblptru may be non-zero
  9056  0046A2                     	endif
  9057  0046A2  0008               	tblrd		*
  9058  0046A4  50F5               	movf	tablat,w,c
  9059  0046A6  0A20               	xorlw	32
  9060  0046A8  B4D8               	btfsc	status,2,c
  9061  0046AA  EF59  F023         	goto	u6761
  9062  0046AE  EF5B  F023         	goto	u6760
  9063  0046B2                     u6761:
  9064  0046B2  EF78  F023         	goto	l5313
  9065  0046B6                     u6760:
  9066  0046B6  0EF7               	movlw	247
  9067  0046B8  6E0A               	movwf	??_atoi^0,c
  9068  0046BA  0EFF               	movlw	255
  9069  0046BC  6E0B               	movwf	(??_atoi+1)^0,c
  9070  0046BE  C008  FFF6         	movff	atoi@s,tblptrl
  9071  0046C2  C009  FFF7         	movff	atoi@s+1,tblptrh
  9072  0046C6                     	if	0	;tblptru may be non-zero
  9073  0046C6                     	endif
  9074  0046C6                     	if	0	;tblptru may be non-zero
  9075  0046C6                     	endif
  9076  0046C6  0008               	tblrd		*
  9077  0046C8  50F5               	movf	tablat,w,c
  9078  0046CA  6E0C               	movwf	(??_atoi+2)^0,c
  9079  0046CC  6A0D               	clrf	(??_atoi+3)^0,c
  9080  0046CE  500A               	movf	??_atoi^0,w,c
  9081  0046D0  260C               	addwf	(??_atoi+2)^0,f,c
  9082  0046D2  500B               	movf	(??_atoi+1)^0,w,c
  9083  0046D4  220D               	addwfc	(??_atoi+3)^0,f,c
  9084  0046D6  500D               	movf	(??_atoi+3)^0,w,c
  9085  0046D8  E109               	bnz	u6770
  9086  0046DA  0E05               	movlw	5
  9087  0046DC  5C0C               	subwf	(??_atoi+2)^0,w,c
  9088  0046DE  A0D8               	btfss	status,0,c
  9089  0046E0  EF74  F023         	goto	u6771
  9090  0046E4  EF76  F023         	goto	u6770
  9091  0046E8                     u6771:
  9092  0046E8  EF78  F023         	goto	l5313
  9093  0046EC                     u6770:
  9094  0046EC  0E00               	movlw	0
  9095  0046EE  6E14               	movwf	_atoi$1146^0,c
  9096  0046F0                     l5313:
  9097  0046F0  C014  F010         	movff	_atoi$1146,_atoi$1145
  9098  0046F4  6A11               	clrf	(_atoi$1145+1)^0,c
  9099  0046F6  5010               	movf	_atoi$1145^0,w,c
  9100  0046F8  1011               	iorwf	(_atoi$1145+1)^0,w,c
  9101  0046FA  A4D8               	btfss	status,2,c
  9102  0046FC  EF82  F023         	goto	u6781
  9103  004700  EF84  F023         	goto	u6780
  9104  004704                     u6781:
  9105  004704  EF49  F023         	goto	l5303
  9106  004708                     u6780:
  9107  004708  EF8E  F023         	goto	l5323
  9108  00470C                     l5319:
  9109  00470C  0E00               	movlw	0
  9110  00470E  6E0F               	movwf	(atoi@neg+1)^0,c
  9111  004710  0E01               	movlw	1
  9112  004712  6E0E               	movwf	atoi@neg^0,c
  9113  004714                     l5321:
  9114  004714  4A08               	infsnz	atoi@s^0,f,c
  9115  004716  2A09               	incf	(atoi@s+1)^0,f,c
  9116  004718  EFC3  F023         	goto	l5329
  9117  00471C                     l5323:
  9118  00471C  C008  FFF6         	movff	atoi@s,tblptrl
  9119  004720  C009  FFF7         	movff	atoi@s+1,tblptrh
  9120  004724                     	if	0	;tblptru may be non-zero
  9121  004724                     	endif
  9122  004724                     	if	0	;tblptru may be non-zero
  9123  004724                     	endif
  9124  004724  0008               	tblrd		*
  9125  004726  50F5               	movf	tablat,w,c
  9126  004728  6E0A               	movwf	??_atoi^0,c
  9127  00472A  6A0B               	clrf	(??_atoi+1)^0,c
  9128                           
  9129                           ; Switch on 2 bytes has been partitioned into a top level switch of size 1, and 1 sub-sw
      +                          itches
  9130                           ; Switch size 1, requested type "simple"
  9131                           ; Number of cases is 1, Range of values is 0 to 0
  9132                           ; switch strategies available:
  9133                           ; Name         Instructions Cycles
  9134                           ; simple_byte            4     3 (average)
  9135                           ;	Chosen strategy is simple_byte
  9136  00472C  500B               	movf	(??_atoi+1)^0,w,c
  9137  00472E  0A00               	xorlw	0	; case 0
  9138  004730  B4D8               	btfsc	status,2,c
  9139  004732  EF9D  F023         	goto	l6537
  9140  004736  EFC3  F023         	goto	l5329
  9141  00473A                     l6537:
  9142                           
  9143                           ; Switch size 1, requested type "simple"
  9144                           ; Number of cases is 2, Range of values is 43 to 45
  9145                           ; switch strategies available:
  9146                           ; Name         Instructions Cycles
  9147                           ; simple_byte            7     4 (average)
  9148                           ;	Chosen strategy is simple_byte
  9149  00473A  500A               	movf	??_atoi^0,w,c
  9150  00473C  0A2B               	xorlw	43	; case 43
  9151  00473E  B4D8               	btfsc	status,2,c
  9152  004740  EF8A  F023         	goto	l5321
  9153  004744  0A06               	xorlw	6	; case 45
  9154  004746  B4D8               	btfsc	status,2,c
  9155  004748  EF86  F023         	goto	l5319
  9156  00474C  EFC3  F023         	goto	l5329
  9157  004750                     l5325:
  9158  004750  C015  F001         	movff	atoi@n,___wmul@multiplier
  9159  004754  C016  F002         	movff	atoi@n+1,___wmul@multiplier+1
  9160  004758  0E00               	movlw	0
  9161  00475A  6E04               	movwf	(___wmul@multiplicand+1)^0,c
  9162  00475C  0E0A               	movlw	10
  9163  00475E  6E03               	movwf	___wmul@multiplicand^0,c
  9164  004760  EC1A  F031         	call	___wmul	;wreg free
  9165  004764  C008  FFF6         	movff	atoi@s,tblptrl
  9166  004768  C009  FFF7         	movff	atoi@s+1,tblptrh
  9167  00476C                     	if	0	;tblptru may be non-zero
  9168  00476C                     	endif
  9169  00476C                     	if	0	;tblptru may be non-zero
  9170  00476C                     	endif
  9171  00476C  0008               	tblrd		*
  9172  00476E  50F5               	movf	tablat,w,c
  9173  004770  5E01               	subwf	?___wmul^0,f,c
  9174  004772  0E00               	movlw	0
  9175  004774  5A02               	subwfb	(?___wmul+1)^0,f,c
  9176  004776  0E30               	movlw	48
  9177  004778  2401               	addwf	?___wmul^0,w,c
  9178  00477A  6E15               	movwf	atoi@n^0,c
  9179  00477C  0E00               	movlw	0
  9180  00477E  2002               	addwfc	(?___wmul+1)^0,w,c
  9181  004780  6E16               	movwf	(atoi@n+1)^0,c
  9182  004782  EF8A  F023         	goto	l5321
  9183  004786                     l5329:
  9184  004786  0ED0               	movlw	208
  9185  004788  6E0A               	movwf	??_atoi^0,c
  9186  00478A  0EFF               	movlw	255
  9187  00478C  6E0B               	movwf	(??_atoi+1)^0,c
  9188  00478E  C008  FFF6         	movff	atoi@s,tblptrl
  9189  004792  C009  FFF7         	movff	atoi@s+1,tblptrh
  9190  004796                     	if	0	;tblptru may be non-zero
  9191  004796                     	endif
  9192  004796                     	if	0	;tblptru may be non-zero
  9193  004796                     	endif
  9194  004796  0008               	tblrd		*
  9195  004798  50F5               	movf	tablat,w,c
  9196  00479A  6E0C               	movwf	(??_atoi+2)^0,c
  9197  00479C  6A0D               	clrf	(??_atoi+3)^0,c
  9198  00479E  500A               	movf	??_atoi^0,w,c
  9199  0047A0  260C               	addwf	(??_atoi+2)^0,f,c
  9200  0047A2  500B               	movf	(??_atoi+1)^0,w,c
  9201  0047A4  220D               	addwfc	(??_atoi+3)^0,f,c
  9202  0047A6  500D               	movf	(??_atoi+3)^0,w,c
  9203  0047A8  E10A               	bnz	u6790
  9204  0047AA  0E0A               	movlw	10
  9205  0047AC  5C0C               	subwf	(??_atoi+2)^0,w,c
  9206  0047AE  A0D8               	btfss	status,0,c
  9207  0047B0  EFDC  F023         	goto	u6791
  9208  0047B4  EFDF  F023         	goto	u6790
  9209  0047B8                     u6791:
  9210  0047B8  0E01               	movlw	1
  9211  0047BA  EFE0  F023         	goto	u6800
  9212  0047BE                     u6790:
  9213  0047BE  0E00               	movlw	0
  9214  0047C0                     u6800:
  9215  0047C0  6E12               	movwf	_atoi$1147^0,c
  9216  0047C2  6A13               	clrf	(_atoi$1147+1)^0,c
  9217  0047C4  5012               	movf	_atoi$1147^0,w,c
  9218  0047C6  1013               	iorwf	(_atoi$1147+1)^0,w,c
  9219  0047C8  A4D8               	btfss	status,2,c
  9220  0047CA  EFE9  F023         	goto	u6811
  9221  0047CE  EFEB  F023         	goto	u6810
  9222  0047D2                     u6811:
  9223  0047D2  EFA8  F023         	goto	l5325
  9224  0047D6                     u6810:
  9225  0047D6  500E               	movf	atoi@neg^0,w,c
  9226  0047D8  100F               	iorwf	(atoi@neg+1)^0,w,c
  9227  0047DA  A4D8               	btfss	status,2,c
  9228  0047DC  EFF2  F023         	goto	u6821
  9229  0047E0  EFF4  F023         	goto	u6820
  9230  0047E4                     u6821:
  9231  0047E4  EF02  F024         	goto	l1147
  9232  0047E8                     u6820:
  9233  0047E8  C015  F00A         	movff	atoi@n,??_atoi
  9234  0047EC  C016  F00B         	movff	atoi@n+1,??_atoi+1
  9235  0047F0  1E0A               	comf	??_atoi^0,f,c
  9236  0047F2  1E0B               	comf	(??_atoi+1)^0,f,c
  9237  0047F4  4A0A               	infsnz	??_atoi^0,f,c
  9238  0047F6  2A0B               	incf	(??_atoi+1)^0,f,c
  9239  0047F8  C00A  F008         	movff	??_atoi,?_atoi
  9240  0047FC  C00B  F009         	movff	??_atoi+1,?_atoi+1
  9241  004800  EF06  F024         	goto	l1150
  9242  004804                     l1147:
  9243  004804  C015  F008         	movff	atoi@n,?_atoi
  9244  004808  C016  F009         	movff	atoi@n+1,?_atoi+1
  9245  00480C                     l1150:
  9246  00480C  0012               	return		;funcret
  9247  00480E                     __end_of_atoi:
  9248                           	opt callstack 0
  9249                           
  9250 ;; *************** function _dameGrados *****************
  9251 ;; Defined at:
  9252 ;;		line 186 in file "main.c"
  9253 ;; Parameters:    Size  Location     Type
  9254 ;;  cadenaFragme    2    0[BANK0 ] PTR unsigned char 
  9255 ;;		 -> main@longitud(13), main@latitud(13), 
  9256 ;; Auto vars:     Size  Location     Type
  9257 ;;  grados          4   10[BANK0 ] float 
  9258 ;;  gradosDecima    2    8[BANK0 ] short 
  9259 ;; Return value:  Size  Location     Type
  9260 ;;                  4    0[BANK0 ] float 
  9261 ;; Registers used:
  9262 ;;		wreg, fsr2l, fsr2h, status,2, status,0, tblptrl, tblptrh, tblptru, prodl, prodh, cstack
  9263 ;; Tracked objects:
  9264 ;;		On entry : 0/0
  9265 ;;		On exit  : 0/0
  9266 ;;		Unchanged: 0/0
  9267 ;; Data sizes:     COMRAM   BANK0   BANK1   BANK2   BANK3   BANK4   BANK5   BANK6   BANK7
  9268 ;;      Params:         0       4       0       0       0       0       0       0       0
  9269 ;;      Locals:         0      10       0       0       0       0       0       0       0
  9270 ;;      Temps:          0       0       0       0       0       0       0       0       0
  9271 ;;      Totals:         0      14       0       0       0       0       0       0       0
  9272 ;;Total ram usage:       14 bytes
  9273 ;; Hardware stack levels used:    1
  9274 ;; Hardware stack levels required when called:    4
  9275 ;; This function calls:
  9276 ;;		___fladd
  9277 ;;		___fldiv
  9278 ;;		___flmul
  9279 ;;		___flsub
  9280 ;;		___fltol
  9281 ;;		___xxtofl
  9282 ;;		_atof
  9283 ;; This function is called by:
  9284 ;;		_main
  9285 ;; This function uses a non-reentrant model
  9286 ;;
  9287                           
  9288                           	psect	text34
  9289  004E0E                     __ptext34:
  9290                           	opt callstack 0
  9291  004E0E                     _dameGrados:
  9292                           	opt callstack 26
  9293  004E0E                     
  9294                           ;main.c: 187:     float grados = atof(cadenaFragmentada) / 100;
  9295  004E0E  C060  F059         	movff	dameGrados@cadenaFragmentada,atof@s
  9296  004E12  C061  F05A         	movff	dameGrados@cadenaFragmentada+1,atof@s+1
  9297  004E16  EC07  F031         	call	_atof	;wreg free
  9298  004E1A  C059  F064         	movff	?_atof,_dameGrados$1621
  9299  004E1E  C05A  F065         	movff	?_atof+1,_dameGrados$1621+1
  9300  004E22  C05B  F066         	movff	?_atof+2,_dameGrados$1621+2
  9301  004E26  C05C  F067         	movff	?_atof+3,_dameGrados$1621+3
  9302  004E2A                     
  9303                           ;main.c: 187:     float grados = atof(cadenaFragmentada) / 100;
  9304  004E2A  C064  F01A         	movff	_dameGrados$1621,___fldiv@b
  9305  004E2E  C065  F01B         	movff	_dameGrados$1621+1,___fldiv@b+1
  9306  004E32  C066  F01C         	movff	_dameGrados$1621+2,___fldiv@b+2
  9307  004E36  C067  F01D         	movff	_dameGrados$1621+3,___fldiv@b+3
  9308  004E3A  0E00               	movlw	0
  9309  004E3C  6E1E               	movwf	___fldiv@a^0,c
  9310  004E3E  0E00               	movlw	0
  9311  004E40  6E1F               	movwf	(___fldiv@a+1)^0,c
  9312  004E42  0EC8               	movlw	200
  9313  004E44  6E20               	movwf	(___fldiv@a+2)^0,c
  9314  004E46  0E42               	movlw	66
  9315  004E48  6E21               	movwf	(___fldiv@a+3)^0,c
  9316  004E4A  ECAD  F01C         	call	___fldiv	;wreg free
  9317  004E4E  C01A  F06A         	movff	?___fldiv,dameGrados@grados
  9318  004E52  C01B  F06B         	movff	?___fldiv+1,dameGrados@grados+1
  9319  004E56  C01C  F06C         	movff	?___fldiv+2,dameGrados@grados+2
  9320  004E5A  C01D  F06D         	movff	?___fldiv+3,dameGrados@grados+3
  9321  004E5E                     
  9322                           ;main.c: 188:     int16_t gradosDecimal = grados;
  9323  004E5E  C06A  F001         	movff	dameGrados@grados,___fltol@f1
  9324  004E62  C06B  F002         	movff	dameGrados@grados+1,___fltol@f1+1
  9325  004E66  C06C  F003         	movff	dameGrados@grados+2,___fltol@f1+2
  9326  004E6A  C06D  F004         	movff	dameGrados@grados+3,___fltol@f1+3
  9327  004E6E  EC3C  F028         	call	___fltol	;wreg free
  9328  004E72  C001  F068         	movff	?___fltol,dameGrados@gradosDecimal
  9329  004E76  C002  F069         	movff	?___fltol+1,dameGrados@gradosDecimal+1
  9330  004E7A                     
  9331                           ;main.c: 189:     grados -= gradosDecimal;
  9332  004E7A  C06A  F043         	movff	dameGrados@grados,___flsub@b
  9333  004E7E  C06B  F044         	movff	dameGrados@grados+1,___flsub@b+1
  9334  004E82  C06C  F045         	movff	dameGrados@grados+2,___flsub@b+2
  9335  004E86  C06D  F046         	movff	dameGrados@grados+3,___flsub@b+3
  9336  004E8A  C068  F001         	movff	dameGrados@gradosDecimal,___xxtofl@val
  9337  004E8E  C069  F002         	movff	dameGrados@gradosDecimal+1,___xxtofl@val+1
  9338  004E92  0E00               	movlw	0
  9339  004E94  BE02               	btfsc	(___xxtofl@val+1)^0,7,c
  9340  004E96  0EFF               	movlw	-1
  9341  004E98  6E03               	movwf	(___xxtofl@val+2)^0,c
  9342  004E9A  6E04               	movwf	(___xxtofl@val+3)^0,c
  9343  004E9C  0E01               	movlw	1
  9344  004E9E  EC65  F022         	call	___xxtofl
  9345  004EA2  C001  F047         	movff	?___xxtofl,___flsub@a
  9346  004EA6  C002  F048         	movff	?___xxtofl+1,___flsub@a+1
  9347  004EAA  C003  F049         	movff	?___xxtofl+2,___flsub@a+2
  9348  004EAE  C004  F04A         	movff	?___xxtofl+3,___flsub@a+3
  9349  004EB2  ECE3  F02F         	call	___flsub	;wreg free
  9350  004EB6  C043  F06A         	movff	?___flsub,dameGrados@grados
  9351  004EBA  C044  F06B         	movff	?___flsub+1,dameGrados@grados+1
  9352  004EBE  C045  F06C         	movff	?___flsub+2,dameGrados@grados+2
  9353  004EC2  C046  F06D         	movff	?___flsub+3,dameGrados@grados+3
  9354  004EC6                     
  9355                           ;main.c: 190:     grados = grados * 5 / 3 + gradosDecimal;
  9356  004EC6  0E00               	movlw	0
  9357  004EC8  6E1E               	movwf	___fldiv@a^0,c
  9358  004ECA  0E00               	movlw	0
  9359  004ECC  6E1F               	movwf	(___fldiv@a+1)^0,c
  9360  004ECE  0E40               	movlw	64
  9361  004ED0  6E20               	movwf	(___fldiv@a+2)^0,c
  9362  004ED2  0E40               	movlw	64
  9363  004ED4  6E21               	movwf	(___fldiv@a+3)^0,c
  9364  004ED6  0E00               	movlw	0
  9365  004ED8  6E05               	movwf	___flmul@a^0,c
  9366  004EDA  0E00               	movlw	0
  9367  004EDC  6E06               	movwf	(___flmul@a+1)^0,c
  9368  004EDE  0EA0               	movlw	160
  9369  004EE0  6E07               	movwf	(___flmul@a+2)^0,c
  9370  004EE2  0E40               	movlw	64
  9371  004EE4  6E08               	movwf	(___flmul@a+3)^0,c
  9372  004EE6  C06A  F001         	movff	dameGrados@grados,___flmul@b
  9373  004EEA  C06B  F002         	movff	dameGrados@grados+1,___flmul@b+1
  9374  004EEE  C06C  F003         	movff	dameGrados@grados+2,___flmul@b+2
  9375  004EF2  C06D  F004         	movff	dameGrados@grados+3,___flmul@b+3
  9376  004EF6  EC98  F01A         	call	___flmul	;wreg free
  9377  004EFA  C001  F01A         	movff	?___flmul,___fldiv@b
  9378  004EFE  C002  F01B         	movff	?___flmul+1,___fldiv@b+1
  9379  004F02  C003  F01C         	movff	?___flmul+2,___fldiv@b+2
  9380  004F06  C004  F01D         	movff	?___flmul+3,___fldiv@b+3
  9381  004F0A  ECAD  F01C         	call	___fldiv	;wreg free
  9382  004F0E  C01A  F033         	movff	?___fldiv,___fladd@b
  9383  004F12  C01B  F034         	movff	?___fldiv+1,___fladd@b+1
  9384  004F16  C01C  F035         	movff	?___fldiv+2,___fladd@b+2
  9385  004F1A  C01D  F036         	movff	?___fldiv+3,___fladd@b+3
  9386  004F1E  C068  F001         	movff	dameGrados@gradosDecimal,___xxtofl@val
  9387  004F22  C069  F002         	movff	dameGrados@gradosDecimal+1,___xxtofl@val+1
  9388  004F26  0E00               	movlw	0
  9389  004F28  BE02               	btfsc	(___xxtofl@val+1)^0,7,c
  9390  004F2A  0EFF               	movlw	-1
  9391  004F2C  6E03               	movwf	(___xxtofl@val+2)^0,c
  9392  004F2E  6E04               	movwf	(___xxtofl@val+3)^0,c
  9393  004F30  0E01               	movlw	1
  9394  004F32  EC65  F022         	call	___xxtofl
  9395  004F36  C001  F037         	movff	?___xxtofl,___fladd@a
  9396  004F3A  C002  F038         	movff	?___xxtofl+1,___fladd@a+1
  9397  004F3E  C003  F039         	movff	?___xxtofl+2,___fladd@a+2
  9398  004F42  C004  F03A         	movff	?___xxtofl+3,___fladd@a+3
  9399  004F46  ECEA  F015         	call	___fladd	;wreg free
  9400  004F4A  C033  F06A         	movff	?___fladd,dameGrados@grados
  9401  004F4E  C034  F06B         	movff	?___fladd+1,dameGrados@grados+1
  9402  004F52  C035  F06C         	movff	?___fladd+2,dameGrados@grados+2
  9403  004F56  C036  F06D         	movff	?___fladd+3,dameGrados@grados+3
  9404  004F5A                     
  9405                           ;main.c: 191:     return grados;
  9406  004F5A  C06A  F060         	movff	dameGrados@grados,?_dameGrados
  9407  004F5E  C06B  F061         	movff	dameGrados@grados+1,?_dameGrados+1
  9408  004F62  C06C  F062         	movff	dameGrados@grados+2,?_dameGrados+2
  9409  004F66  C06D  F063         	movff	dameGrados@grados+3,?_dameGrados+3
  9410  004F6A  0012               	return		;funcret
  9411  004F6C                     __end_of_dameGrados:
  9412                           	opt callstack 0
  9413                           
  9414 ;; *************** function _atof *****************
  9415 ;; Defined at:
  9416 ;;		line 423 in file "/opt/microchip/xc8/v2.10/pic/sources/c99/common/strtof.c"
  9417 ;; Parameters:    Size  Location     Type
  9418 ;;  s               2   88[COMRAM] PTR const unsigned char 
  9419 ;;		 -> main@longitud(13), main@latitud(13), 
  9420 ;; Auto vars:     Size  Location     Type
  9421 ;;		None
  9422 ;; Return value:  Size  Location     Type
  9423 ;;                  4   88[COMRAM] PTR const unsigned char 
  9424 ;; Registers used:
  9425 ;;		wreg, fsr2l, fsr2h, status,2, status,0, tblptrl, tblptrh, tblptru, prodl, prodh, cstack
  9426 ;; Tracked objects:
  9427 ;;		On entry : 0/0
  9428 ;;		On exit  : 0/0
  9429 ;;		Unchanged: 0/0
  9430 ;; Data sizes:     COMRAM   BANK0   BANK1   BANK2   BANK3   BANK4   BANK5   BANK6   BANK7
  9431 ;;      Params:         4       0       0       0       0       0       0       0       0
  9432 ;;      Locals:         0       0       0       0       0       0       0       0       0
  9433 ;;      Temps:          0       0       0       0       0       0       0       0       0
  9434 ;;      Totals:         4       0       0       0       0       0       0       0       0
  9435 ;;Total ram usage:        4 bytes
  9436 ;; Hardware stack levels used:    1
  9437 ;; Hardware stack levels required when called:    3
  9438 ;; This function calls:
  9439 ;;		_strtof
  9440 ;; This function is called by:
  9441 ;;		_dameGrados
  9442 ;; This function uses a non-reentrant model
  9443 ;;
  9444                           
  9445                           	psect	text35
  9446  00620E                     __ptext35:
  9447                           	opt callstack 0
  9448  00620E                     _atof:
  9449                           	opt callstack 26
  9450  00620E  C059  F033         	movff	atof@s,strtof@s
  9451  006212  C05A  F034         	movff	atof@s+1,strtof@s+1
  9452  006216  0E00               	movlw	0
  9453  006218  6E35               	movwf	strtof@res^0,c
  9454  00621A  0E00               	movlw	0
  9455  00621C  6E36               	movwf	(strtof@res+1)^0,c
  9456  00621E  EC58  F004         	call	_strtof	;wreg free
  9457  006222  C033  F059         	movff	?_strtof,?_atof
  9458  006226  C034  F05A         	movff	?_strtof+1,?_atof+1
  9459  00622A  C035  F05B         	movff	?_strtof+2,?_atof+2
  9460  00622E  C036  F05C         	movff	?_strtof+3,?_atof+3
  9461  006232  0012               	return		;funcret
  9462  006234                     __end_of_atof:
  9463                           	opt callstack 0
  9464                           
  9465 ;; *************** function _strtof *****************
  9466 ;; Defined at:
  9467 ;;		line 95 in file "/opt/microchip/xc8/v2.10/pic/sources/c99/common/strtof.c"
  9468 ;; Parameters:    Size  Location     Type
  9469 ;;  s               2   50[COMRAM] PTR const unsigned char 
  9470 ;;		 -> main@longitud(13), main@latitud(13), 
  9471 ;;  res             2   52[COMRAM] PTR PTR unsigned char 
  9472 ;;		 -> NULL(0), 
  9473 ;; Auto vars:     Size  Location     Type
  9474 ;;  _u              4   83[COMRAM] struct .
  9475 ;;  eexp            2   81[COMRAM] int 
  9476 ;;  expon           2   79[COMRAM] int 
  9477 ;;  i               1   87[COMRAM] unsigned char 
  9478 ;;  flags           1   78[COMRAM] unsigned char 
  9479 ;;  digit           1   77[COMRAM] unsigned char 
  9480 ;; Return value:  Size  Location     Type
  9481 ;;                  4   50[COMRAM] float 
  9482 ;; Registers used:
  9483 ;;		wreg, fsr2l, fsr2h, status,2, status,0, tblptrl, tblptrh, tblptru, prodl, prodh, cstack
  9484 ;; Tracked objects:
  9485 ;;		On entry : 0/0
  9486 ;;		On exit  : 0/0
  9487 ;;		Unchanged: 0/0
  9488 ;; Data sizes:     COMRAM   BANK0   BANK1   BANK2   BANK3   BANK4   BANK5   BANK6   BANK7
  9489 ;;      Params:         4       0       0       0       0       0       0       0       0
  9490 ;;      Locals:        28       0       0       0       0       0       0       0       0
  9491 ;;      Temps:          6       0       0       0       0       0       0       0       0
  9492 ;;      Totals:        38       0       0       0       0       0       0       0       0
  9493 ;;Total ram usage:       38 bytes
  9494 ;; Hardware stack levels used:    1
  9495 ;; Hardware stack levels required when called:    2
  9496 ;; This function calls:
  9497 ;;		___fldiv
  9498 ;;		___fleq
  9499 ;;		___flge
  9500 ;;		___flmul
  9501 ;;		___flneg
  9502 ;;		___lmul
  9503 ;;		___wmul
  9504 ;;		___xxtofl
  9505 ;;		_isdigit
  9506 ;;		_isspace
  9507 ;;		_isxdigit
  9508 ;;		_nanf
  9509 ;;		_toupper
  9510 ;; This function is called by:
  9511 ;;		_atof
  9512 ;; This function uses a non-reentrant model
  9513 ;;
  9514                           
  9515                           	psect	text36
  9516  0008B0                     __ptext36:
  9517                           	opt callstack 0
  9518  0008B0                     _strtof:
  9519                           	opt callstack 26
  9520  0008B0  5035               	movf	strtof@res^0,w,c
  9521  0008B2  1036               	iorwf	(strtof@res+1)^0,w,c
  9522  0008B4  B4D8               	btfsc	status,2,c
  9523  0008B6  EF5F  F004         	goto	u7301
  9524  0008BA  EF61  F004         	goto	u7300
  9525  0008BE                     u7301:
  9526  0008BE  EF6D  F004         	goto	l5627
  9527  0008C2                     u7300:
  9528  0008C2  C035  FFD9         	movff	strtof@res,fsr2l
  9529  0008C6  C036  FFDA         	movff	strtof@res+1,fsr2h
  9530  0008CA  C033  FFDE         	movff	strtof@s,postinc2
  9531  0008CE  C034  FFDD         	movff	strtof@s+1,postdec2
  9532  0008D2  EF6D  F004         	goto	l5627
  9533  0008D6                     l5625:
  9534  0008D6  4A33               	infsnz	strtof@s^0,f,c
  9535  0008D8  2A34               	incf	(strtof@s+1)^0,f,c
  9536  0008DA                     l5627:
  9537  0008DA  0E01               	movlw	1
  9538  0008DC  6E4D               	movwf	_strtof$1287^0,c
  9539  0008DE  C033  FFD9         	movff	strtof@s,fsr2l
  9540  0008E2  C034  FFDA         	movff	strtof@s+1,fsr2h
  9541  0008E6  0E20               	movlw	32
  9542  0008E8  18DE               	xorwf	postinc2,w,c
  9543  0008EA  B4D8               	btfsc	status,2,c
  9544  0008EC  EF7A  F004         	goto	u7311
  9545  0008F0  EF7D  F004         	goto	u7310
  9546  0008F4                     u7311:
  9547  0008F4  0E01               	movlw	1
  9548  0008F6  EF7E  F004         	goto	u7320
  9549  0008FA                     u7310:
  9550  0008FA  0E00               	movlw	0
  9551  0008FC                     u7320:
  9552  0008FC  6E52               	movwf	strtof@eexp^0,c
  9553  0008FE  6A53               	clrf	(strtof@eexp+1)^0,c
  9554  000900  5052               	movf	strtof@eexp^0,w,c
  9555  000902  1053               	iorwf	(strtof@eexp+1)^0,w,c
  9556  000904  A4D8               	btfss	status,2,c
  9557  000906  EF87  F004         	goto	u7331
  9558  00090A  EF89  F004         	goto	u7330
  9559  00090E                     u7331:
  9560  00090E  EFAB  F004         	goto	l5635
  9561  000912                     u7330:
  9562  000912  0EF7               	movlw	247
  9563  000914  6E37               	movwf	??_strtof^0,c
  9564  000916  0EFF               	movlw	255
  9565  000918  6E38               	movwf	(??_strtof+1)^0,c
  9566  00091A  C033  FFD9         	movff	strtof@s,fsr2l
  9567  00091E  C034  FFDA         	movff	strtof@s+1,fsr2h
  9568  000922  50DF               	movf	indf2,w,c
  9569  000924  6E39               	movwf	(??_strtof+2)^0,c
  9570  000926  5039               	movf	(??_strtof+2)^0,w,c
  9571  000928  6E52               	movwf	strtof@eexp^0,c
  9572  00092A  6A53               	clrf	(strtof@eexp+1)^0,c
  9573  00092C  C052  F03A         	movff	strtof@eexp,??_strtof+3
  9574  000930  C053  F03B         	movff	strtof@eexp+1,??_strtof+4
  9575  000934  5037               	movf	??_strtof^0,w,c
  9576  000936  263A               	addwf	(??_strtof+3)^0,f,c
  9577  000938  5038               	movf	(??_strtof+1)^0,w,c
  9578  00093A  223B               	addwfc	(??_strtof+4)^0,f,c
  9579  00093C  503B               	movf	(??_strtof+4)^0,w,c
  9580  00093E  E109               	bnz	u7340
  9581  000940  0E05               	movlw	5
  9582  000942  5C3A               	subwf	(??_strtof+3)^0,w,c
  9583  000944  A0D8               	btfss	status,0,c
  9584  000946  EFA7  F004         	goto	u7341
  9585  00094A  EFA9  F004         	goto	u7340
  9586  00094E                     u7341:
  9587  00094E  EFAB  F004         	goto	l5635
  9588  000952                     u7340:
  9589  000952  0E00               	movlw	0
  9590  000954  6E4D               	movwf	_strtof$1287^0,c
  9591  000956                     l5635:
  9592  000956  C04D  F03D         	movff	_strtof$1287,_strtof$1286
  9593  00095A  6A3E               	clrf	(_strtof$1286+1)^0,c
  9594  00095C  503D               	movf	_strtof$1286^0,w,c
  9595  00095E  103E               	iorwf	(_strtof$1286+1)^0,w,c
  9596  000960  A4D8               	btfss	status,2,c
  9597  000962  EFB5  F004         	goto	u7351
  9598  000966  EFB7  F004         	goto	u7350
  9599  00096A                     u7351:
  9600  00096A  EF6B  F004         	goto	l5625
  9601  00096E                     u7350:
  9602  00096E  0E00               	movlw	0
  9603  000970  6E4F               	movwf	strtof@flags^0,c
  9604  000972  0E2D               	movlw	45
  9605  000974  1852               	xorwf	strtof@eexp^0,w,c
  9606  000976  1053               	iorwf	(strtof@eexp+1)^0,w,c
  9607  000978  A4D8               	btfss	status,2,c
  9608  00097A  EFC1  F004         	goto	u7361
  9609  00097E  EFC3  F004         	goto	u7360
  9610  000982                     u7361:
  9611  000982  EFC9  F004         	goto	l5649
  9612  000986                     u7360:
  9613  000986  0E01               	movlw	1
  9614  000988  6E4F               	movwf	strtof@flags^0,c
  9615  00098A                     l5647:
  9616  00098A  4A33               	infsnz	strtof@s^0,f,c
  9617  00098C  2A34               	incf	(strtof@s+1)^0,f,c
  9618  00098E  EFD5  F004         	goto	l5653
  9619  000992                     l5649:
  9620  000992  0E2B               	movlw	43
  9621  000994  1852               	xorwf	strtof@eexp^0,w,c
  9622  000996  1053               	iorwf	(strtof@eexp+1)^0,w,c
  9623  000998  A4D8               	btfss	status,2,c
  9624  00099A  EFD1  F004         	goto	u7371
  9625  00099E  EFD3  F004         	goto	u7370
  9626  0009A2                     u7371:
  9627  0009A2  EFD5  F004         	goto	l5653
  9628  0009A6                     u7370:
  9629  0009A6  EFC5  F004         	goto	l5647
  9630  0009AA                     l5653:
  9631  0009AA  0E00               	movlw	0
  9632  0009AC  6E58               	movwf	strtof@i^0,c
  9633  0009AE  EFDA  F004         	goto	l5657
  9634  0009B2                     l5655:
  9635  0009B2  2A58               	incf	strtof@i^0,f,c
  9636  0009B4                     l5657:
  9637  0009B4  5058               	movf	strtof@i^0,w,c
  9638  0009B6  2433               	addwf	strtof@s^0,w,c
  9639  0009B8  6ED9               	movwf	fsr2l,c
  9640  0009BA  0E00               	movlw	0
  9641  0009BC  2034               	addwfc	(strtof@s+1)^0,w,c
  9642  0009BE  6EDA               	movwf	fsr2h,c
  9643  0009C0  50DF               	movf	indf2,w,c
  9644  0009C2  B4D8               	btfsc	status,2,c
  9645  0009C4  EFE6  F004         	goto	u7381
  9646  0009C8  EFE8  F004         	goto	u7380
  9647  0009CC                     u7381:
  9648  0009CC  EF18  F005         	goto	l5663
  9649  0009D0                     u7380:
  9650  0009D0  5058               	movf	strtof@i^0,w,c
  9651  0009D2  2433               	addwf	strtof@s^0,w,c
  9652  0009D4  6ED9               	movwf	fsr2l,c
  9653  0009D6  0E00               	movlw	0
  9654  0009D8  2034               	addwfc	(strtof@s+1)^0,w,c
  9655  0009DA  6EDA               	movwf	fsr2h,c
  9656  0009DC  50DF               	movf	indf2,w,c
  9657  0009DE  6E37               	movwf	??_strtof^0,c
  9658  0009E0  0E7E               	movlw	low STR_27
  9659  0009E2  2458               	addwf	strtof@i^0,w,c
  9660  0009E4  6EF6               	movwf	tblptrl,c
  9661  0009E6  6AF7               	clrf	tblptrh,c
  9662  0009E8  0E08               	movlw	high STR_27
  9663  0009EA  22F7               	addwfc	tblptrh,f,c
  9664  0009EC                     	if	0	;There are less than 3 active tblptr bytes
  9665  0009EC                     	endif
  9666  0009EC  0008               	tblrd		*
  9667  0009EE  50F5               	movf	tablat,w,c
  9668  0009F0  1837               	xorwf	??_strtof^0,w,c
  9669  0009F2  B4D8               	btfsc	status,2,c
  9670  0009F4  EFFE  F004         	goto	u7391
  9671  0009F8  EF00  F005         	goto	u7390
  9672  0009FC                     u7391:
  9673  0009FC  EFD9  F004         	goto	l5655
  9674  000A00                     u7390:
  9675  000A00  5058               	movf	strtof@i^0,w,c
  9676  000A02  2433               	addwf	strtof@s^0,w,c
  9677  000A04  6ED9               	movwf	fsr2l,c
  9678  000A06  0E00               	movlw	0
  9679  000A08  2034               	addwfc	(strtof@s+1)^0,w,c
  9680  000A0A  6EDA               	movwf	fsr2h,c
  9681  000A0C  50DF               	movf	indf2,w,c
  9682  000A0E  6E37               	movwf	??_strtof^0,c
  9683  000A10  0E75               	movlw	low STR_28
  9684  000A12  2458               	addwf	strtof@i^0,w,c
  9685  000A14  6EF6               	movwf	tblptrl,c
  9686  000A16  6AF7               	clrf	tblptrh,c
  9687  000A18  0E08               	movlw	high STR_28
  9688  000A1A  22F7               	addwfc	tblptrh,f,c
  9689  000A1C                     	if	0	;There are less than 3 active tblptr bytes
  9690  000A1C                     	endif
  9691  000A1C  0008               	tblrd		*
  9692  000A1E  50F5               	movf	tablat,w,c
  9693  000A20  1837               	xorwf	??_strtof^0,w,c
  9694  000A22  B4D8               	btfsc	status,2,c
  9695  000A24  EF16  F005         	goto	u7401
  9696  000A28  EF18  F005         	goto	u7400
  9697  000A2C                     u7401:
  9698  000A2C  EFD9  F004         	goto	l5655
  9699  000A30                     u7400:
  9700  000A30                     l5663:
  9701  000A30  0E02               	movlw	2
  9702  000A32  6458               	cpfsgt	strtof@i^0,c
  9703  000A34  EF1E  F005         	goto	u7411
  9704  000A38  EF20  F005         	goto	u7410
  9705  000A3C                     u7411:
  9706  000A3C  EF4C  F005         	goto	l5675
  9707  000A40                     u7410:
  9708  000A40  0E00               	movlw	0
  9709  000A42  6E54               	movwf	strtof@_u^0,c
  9710  000A44  0E00               	movlw	0
  9711  000A46  6E55               	movwf	(strtof@_u+1)^0,c
  9712  000A48  0E80               	movlw	128
  9713  000A4A  6E56               	movwf	(strtof@_u+2)^0,c
  9714  000A4C  0E7F               	movlw	127
  9715  000A4E  6E57               	movwf	(strtof@_u+3)^0,c
  9716  000A50  5035               	movf	strtof@res^0,w,c
  9717  000A52  1036               	iorwf	(strtof@res+1)^0,w,c
  9718  000A54  B4D8               	btfsc	status,2,c
  9719  000A56  EF2F  F005         	goto	u7421
  9720  000A5A  EF31  F005         	goto	u7420
  9721  000A5E                     u7421:
  9722  000A5E  EFE1  F00C         	goto	l1269
  9723  000A62                     u7420:
  9724  000A62  0E08               	movlw	8
  9725  000A64  1858               	xorwf	strtof@i^0,w,c
  9726  000A66  B4D8               	btfsc	status,2,c
  9727  000A68  EF38  F005         	goto	u7431
  9728  000A6C  EF3A  F005         	goto	u7430
  9729  000A70                     u7431:
  9730  000A70  EF3C  F005         	goto	l5673
  9731  000A74                     u7430:
  9732  000A74  0E03               	movlw	3
  9733  000A76  6E58               	movwf	strtof@i^0,c
  9734  000A78                     l5673:
  9735  000A78  5058               	movf	strtof@i^0,w,c
  9736  000A7A  2433               	addwf	strtof@s^0,w,c
  9737  000A7C  6E37               	movwf	??_strtof^0,c
  9738  000A7E  0E00               	movlw	0
  9739  000A80  2034               	addwfc	(strtof@s+1)^0,w,c
  9740  000A82  6E38               	movwf	(??_strtof+1)^0,c
  9741  000A84  C035  FFD9         	movff	strtof@res,fsr2l
  9742  000A88  C036  FFDA         	movff	strtof@res+1,fsr2h
  9743  000A8C  C037  FFDE         	movff	??_strtof,postinc2
  9744  000A90  C038  FFDD         	movff	??_strtof+1,postdec2
  9745  000A94  EFE1  F00C         	goto	l1269
  9746  000A98                     l5675:
  9747  000A98  0E00               	movlw	0
  9748  000A9A  6E58               	movwf	strtof@i^0,c
  9749  000A9C  EF51  F005         	goto	l5679
  9750  000AA0                     l5677:
  9751  000AA0  2A58               	incf	strtof@i^0,f,c
  9752  000AA2                     l5679:
  9753  000AA2  5058               	movf	strtof@i^0,w,c
  9754  000AA4  2433               	addwf	strtof@s^0,w,c
  9755  000AA6  6ED9               	movwf	fsr2l,c
  9756  000AA8  0E00               	movlw	0
  9757  000AAA  2034               	addwfc	(strtof@s+1)^0,w,c
  9758  000AAC  6EDA               	movwf	fsr2h,c
  9759  000AAE  50DF               	movf	indf2,w,c
  9760  000AB0  B4D8               	btfsc	status,2,c
  9761  000AB2  EF5D  F005         	goto	u7441
  9762  000AB6  EF5F  F005         	goto	u7440
  9763  000ABA                     u7441:
  9764  000ABA  EF8F  F005         	goto	l5685
  9765  000ABE                     u7440:
  9766  000ABE  5058               	movf	strtof@i^0,w,c
  9767  000AC0  2433               	addwf	strtof@s^0,w,c
  9768  000AC2  6ED9               	movwf	fsr2l,c
  9769  000AC4  0E00               	movlw	0
  9770  000AC6  2034               	addwfc	(strtof@s+1)^0,w,c
  9771  000AC8  6EDA               	movwf	fsr2h,c
  9772  000ACA  50DF               	movf	indf2,w,c
  9773  000ACC  6E37               	movwf	??_strtof^0,c
  9774  000ACE  0EA4               	movlw	low STR_19
  9775  000AD0  2458               	addwf	strtof@i^0,w,c
  9776  000AD2  6EF6               	movwf	tblptrl,c
  9777  000AD4  6AF7               	clrf	tblptrh,c
  9778  000AD6  0E08               	movlw	high STR_19
  9779  000AD8  22F7               	addwfc	tblptrh,f,c
  9780  000ADA                     	if	0	;There are less than 3 active tblptr bytes
  9781  000ADA                     	endif
  9782  000ADA  0008               	tblrd		*
  9783  000ADC  50F5               	movf	tablat,w,c
  9784  000ADE  1837               	xorwf	??_strtof^0,w,c
  9785  000AE0  B4D8               	btfsc	status,2,c
  9786  000AE2  EF75  F005         	goto	u7451
  9787  000AE6  EF77  F005         	goto	u7450
  9788  000AEA                     u7451:
  9789  000AEA  EF50  F005         	goto	l5677
  9790  000AEE                     u7450:
  9791  000AEE  5058               	movf	strtof@i^0,w,c
  9792  000AF0  2433               	addwf	strtof@s^0,w,c
  9793  000AF2  6ED9               	movwf	fsr2l,c
  9794  000AF4  0E00               	movlw	0
  9795  000AF6  2034               	addwfc	(strtof@s+1)^0,w,c
  9796  000AF8  6EDA               	movwf	fsr2h,c
  9797  000AFA  50DF               	movf	indf2,w,c
  9798  000AFC  6E37               	movwf	??_strtof^0,c
  9799  000AFE  0E9C               	movlw	low STR_18
  9800  000B00  2458               	addwf	strtof@i^0,w,c
  9801  000B02  6EF6               	movwf	tblptrl,c
  9802  000B04  6AF7               	clrf	tblptrh,c
  9803  000B06  0E08               	movlw	high STR_18
  9804  000B08  22F7               	addwfc	tblptrh,f,c
  9805  000B0A                     	if	0	;There are less than 3 active tblptr bytes
  9806  000B0A                     	endif
  9807  000B0A  0008               	tblrd		*
  9808  000B0C  50F5               	movf	tablat,w,c
  9809  000B0E  1837               	xorwf	??_strtof^0,w,c
  9810  000B10  B4D8               	btfsc	status,2,c
  9811  000B12  EF8D  F005         	goto	u7461
  9812  000B16  EF8F  F005         	goto	u7460
  9813  000B1A                     u7461:
  9814  000B1A  EF50  F005         	goto	l5677
  9815  000B1E                     u7460:
  9816  000B1E                     l5685:
  9817  000B1E  0E03               	movlw	3
  9818  000B20  1858               	xorwf	strtof@i^0,w,c
  9819  000B22  A4D8               	btfss	status,2,c
  9820  000B24  EF96  F005         	goto	u7471
  9821  000B28  EF98  F005         	goto	u7470
  9822  000B2C                     u7471:
  9823  000B2C  EF06  F006         	goto	l5709
  9824  000B30                     u7470:
  9825  000B30  0E16               	movlw	low (STR_13+21)
  9826  000B32  6E01               	movwf	nanf@s^0,c
  9827  000B34  0E08               	movlw	high (STR_13+21)
  9828  000B36  6E02               	movwf	(nanf@s+1)^0,c
  9829  000B38  EC2D  F031         	call	_nanf	;wreg free
  9830  000B3C  C001  F054         	movff	?_nanf,strtof@_u
  9831  000B40  C002  F055         	movff	?_nanf+1,strtof@_u+1
  9832  000B44  C003  F056         	movff	?_nanf+2,strtof@_u+2
  9833  000B48  C004  F057         	movff	?_nanf+3,strtof@_u+3
  9834  000B4C  5035               	movf	strtof@res^0,w,c
  9835  000B4E  1036               	iorwf	(strtof@res+1)^0,w,c
  9836  000B50  B4D8               	btfsc	status,2,c
  9837  000B52  EFAD  F005         	goto	u7481
  9838  000B56  EFAF  F005         	goto	u7480
  9839  000B5A                     u7481:
  9840  000B5A  EFE1  F00C         	goto	l1269
  9841  000B5E                     u7480:
  9842  000B5E  5058               	movf	strtof@i^0,w,c
  9843  000B60  2633               	addwf	strtof@s^0,f,c
  9844  000B62  0E00               	movlw	0
  9845  000B64  2234               	addwfc	(strtof@s+1)^0,f,c
  9846  000B66  C033  FFD9         	movff	strtof@s,fsr2l
  9847  000B6A  C034  FFDA         	movff	strtof@s+1,fsr2h
  9848  000B6E  0E28               	movlw	40
  9849  000B70  18DE               	xorwf	postinc2,w,c
  9850  000B72  A4D8               	btfss	status,2,c
  9851  000B74  EFBE  F005         	goto	u7491
  9852  000B78  EFC0  F005         	goto	u7490
  9853  000B7C                     u7491:
  9854  000B7C  EFFC  F005         	goto	l5707
  9855  000B80                     u7490:
  9856  000B80  0E00               	movlw	0
  9857  000B82  6E58               	movwf	strtof@i^0,c
  9858  000B84  EFC5  F005         	goto	l5699
  9859  000B88                     l5697:
  9860  000B88  2A58               	incf	strtof@i^0,f,c
  9861  000B8A                     l5699:
  9862  000B8A  5058               	movf	strtof@i^0,w,c
  9863  000B8C  2433               	addwf	strtof@s^0,w,c
  9864  000B8E  6ED9               	movwf	fsr2l,c
  9865  000B90  0E00               	movlw	0
  9866  000B92  2034               	addwfc	(strtof@s+1)^0,w,c
  9867  000B94  6EDA               	movwf	fsr2h,c
  9868  000B96  50DF               	movf	indf2,w,c
  9869  000B98  B4D8               	btfsc	status,2,c
  9870  000B9A  EFD1  F005         	goto	u7501
  9871  000B9E  EFD3  F005         	goto	u7500
  9872  000BA2                     u7501:
  9873  000BA2  EFE2  F005         	goto	l5703
  9874  000BA6                     u7500:
  9875  000BA6  5058               	movf	strtof@i^0,w,c
  9876  000BA8  2433               	addwf	strtof@s^0,w,c
  9877  000BAA  6ED9               	movwf	fsr2l,c
  9878  000BAC  0E00               	movlw	0
  9879  000BAE  2034               	addwfc	(strtof@s+1)^0,w,c
  9880  000BB0  6EDA               	movwf	fsr2h,c
  9881  000BB2  0E29               	movlw	41
  9882  000BB4  18DE               	xorwf	postinc2,w,c
  9883  000BB6  A4D8               	btfss	status,2,c
  9884  000BB8  EFE0  F005         	goto	u7511
  9885  000BBC  EFE2  F005         	goto	u7510
  9886  000BC0                     u7511:
  9887  000BC0  EFC4  F005         	goto	l5697
  9888  000BC4                     u7510:
  9889  000BC4                     l5703:
  9890  000BC4  5058               	movf	strtof@i^0,w,c
  9891  000BC6  2433               	addwf	strtof@s^0,w,c
  9892  000BC8  6ED9               	movwf	fsr2l,c
  9893  000BCA  0E00               	movlw	0
  9894  000BCC  2034               	addwfc	(strtof@s+1)^0,w,c
  9895  000BCE  6EDA               	movwf	fsr2h,c
  9896  000BD0  0E29               	movlw	41
  9897  000BD2  18DE               	xorwf	postinc2,w,c
  9898  000BD4  A4D8               	btfss	status,2,c
  9899  000BD6  EFEF  F005         	goto	u7521
  9900  000BDA  EFF1  F005         	goto	u7520
  9901  000BDE                     u7521:
  9902  000BDE  EFFC  F005         	goto	l5707
  9903  000BE2                     u7520:
  9904  000BE2  5058               	movf	strtof@i^0,w,c
  9905  000BE4  6E37               	movwf	??_strtof^0,c
  9906  000BE6  6A38               	clrf	(??_strtof+1)^0,c
  9907  000BE8  0E01               	movlw	1
  9908  000BEA  2637               	addwf	??_strtof^0,f,c
  9909  000BEC  0E00               	movlw	0
  9910  000BEE  2238               	addwfc	(??_strtof+1)^0,f,c
  9911  000BF0  5037               	movf	??_strtof^0,w,c
  9912  000BF2  2633               	addwf	strtof@s^0,f,c
  9913  000BF4  5038               	movf	(??_strtof+1)^0,w,c
  9914  000BF6  2234               	addwfc	(strtof@s+1)^0,f,c
  9915  000BF8                     l5707:
  9916  000BF8  C035  FFD9         	movff	strtof@res,fsr2l
  9917  000BFC  C036  FFDA         	movff	strtof@res+1,fsr2h
  9918  000C00  C033  FFDE         	movff	strtof@s,postinc2
  9919  000C04  C034  FFDD         	movff	strtof@s+1,postdec2
  9920  000C08  EFE1  F00C         	goto	l1269
  9921  000C0C                     l5709:
  9922  000C0C  0E00               	movlw	0
  9923  000C0E  6E53               	movwf	(strtof@eexp+1)^0,c
  9924  000C10  0E00               	movlw	0
  9925  000C12  6E52               	movwf	strtof@eexp^0,c
  9926  000C14  0E00               	movlw	0
  9927  000C16  6E54               	movwf	strtof@_u^0,c
  9928  000C18  0E00               	movlw	0
  9929  000C1A  6E55               	movwf	(strtof@_u+1)^0,c
  9930  000C1C  0E00               	movlw	0
  9931  000C1E  6E56               	movwf	(strtof@_u+2)^0,c
  9932  000C20  0E00               	movlw	0
  9933  000C22  6E57               	movwf	(strtof@_u+3)^0,c
  9934  000C24  0E00               	movlw	0
  9935  000C26  6E51               	movwf	(strtof@expon+1)^0,c
  9936  000C28  0E00               	movlw	0
  9937  000C2A  6E50               	movwf	strtof@expon^0,c
  9938  000C2C  0E00               	movlw	0
  9939  000C2E  6E58               	movwf	strtof@i^0,c
  9940  000C30  EF1B  F006         	goto	l5713
  9941  000C34                     l5711:
  9942  000C34  2A58               	incf	strtof@i^0,f,c
  9943  000C36                     l5713:
  9944  000C36  5058               	movf	strtof@i^0,w,c
  9945  000C38  2433               	addwf	strtof@s^0,w,c
  9946  000C3A  6ED9               	movwf	fsr2l,c
  9947  000C3C  0E00               	movlw	0
  9948  000C3E  2034               	addwfc	(strtof@s+1)^0,w,c
  9949  000C40  6EDA               	movwf	fsr2h,c
  9950  000C42  0E30               	movlw	48
  9951  000C44  18DE               	xorwf	postinc2,w,c
  9952  000C46  B4D8               	btfsc	status,2,c
  9953  000C48  EF28  F006         	goto	u7531
  9954  000C4C  EF2A  F006         	goto	u7530
  9955  000C50                     u7531:
  9956  000C50  EF1A  F006         	goto	l5711
  9957  000C54                     u7530:
  9958  000C54  5058               	movf	strtof@i^0,w,c
  9959  000C56  B4D8               	btfsc	status,2,c
  9960  000C58  EF30  F006         	goto	u7541
  9961  000C5C  EF32  F006         	goto	u7540
  9962  000C60                     u7541:
  9963  000C60  EFC9  F009         	goto	l1360
  9964  000C64                     u7540:
  9965  000C64  5058               	movf	strtof@i^0,w,c
  9966  000C66  2433               	addwf	strtof@s^0,w,c
  9967  000C68  6ED9               	movwf	fsr2l,c
  9968  000C6A  0E00               	movlw	0
  9969  000C6C  2034               	addwfc	(strtof@s+1)^0,w,c
  9970  000C6E  6EDA               	movwf	fsr2h,c
  9971  000C70  0E78               	movlw	120
  9972  000C72  18DE               	xorwf	postinc2,w,c
  9973  000C74  B4D8               	btfsc	status,2,c
  9974  000C76  EF3F  F006         	goto	u7551
  9975  000C7A  EF41  F006         	goto	u7550
  9976  000C7E                     u7551:
  9977  000C7E  EF50  F006         	goto	l5721
  9978  000C82                     u7550:
  9979  000C82  5058               	movf	strtof@i^0,w,c
  9980  000C84  2433               	addwf	strtof@s^0,w,c
  9981  000C86  6ED9               	movwf	fsr2l,c
  9982  000C88  0E00               	movlw	0
  9983  000C8A  2034               	addwfc	(strtof@s+1)^0,w,c
  9984  000C8C  6EDA               	movwf	fsr2h,c
  9985  000C8E  0E58               	movlw	88
  9986  000C90  18DE               	xorwf	postinc2,w,c
  9987  000C92  A4D8               	btfss	status,2,c
  9988  000C94  EF4E  F006         	goto	u7561
  9989  000C98  EF50  F006         	goto	u7560
  9990  000C9C                     u7561:
  9991  000C9C  EFC9  F009         	goto	l1360
  9992  000CA0                     u7560:
  9993  000CA0                     l5721:
  9994  000CA0  5058               	movf	strtof@i^0,w,c
  9995  000CA2  6E37               	movwf	??_strtof^0,c
  9996  000CA4  6A38               	clrf	(??_strtof+1)^0,c
  9997  000CA6  0E01               	movlw	1
  9998  000CA8  2637               	addwf	??_strtof^0,f,c
  9999  000CAA  0E00               	movlw	0
 10000  000CAC  2238               	addwfc	(??_strtof+1)^0,f,c
 10001  000CAE  5037               	movf	??_strtof^0,w,c
 10002  000CB0  2633               	addwf	strtof@s^0,f,c
 10003  000CB2  5038               	movf	(??_strtof+1)^0,w,c
 10004  000CB4  2234               	addwfc	(strtof@s+1)^0,f,c
 10005  000CB6  0E00               	movlw	0
 10006  000CB8  6E58               	movwf	strtof@i^0,c
 10007  000CBA  EF60  F006         	goto	l5727
 10008  000CBE                     l5725:
 10009  000CBE  2A58               	incf	strtof@i^0,f,c
 10010  000CC0                     l5727:
 10011  000CC0  5058               	movf	strtof@i^0,w,c
 10012  000CC2  2433               	addwf	strtof@s^0,w,c
 10013  000CC4  6ED9               	movwf	fsr2l,c
 10014  000CC6  0E00               	movlw	0
 10015  000CC8  2034               	addwfc	(strtof@s+1)^0,w,c
 10016  000CCA  6EDA               	movwf	fsr2h,c
 10017  000CCC  0E30               	movlw	48
 10018  000CCE  18DE               	xorwf	postinc2,w,c
 10019  000CD0  B4D8               	btfsc	status,2,c
 10020  000CD2  EF6D  F006         	goto	u7571
 10021  000CD6  EF6F  F006         	goto	u7570
 10022  000CDA                     u7571:
 10023  000CDA  EF5F  F006         	goto	l5725
 10024  000CDE                     u7570:
 10025  000CDE  0E00               	movlw	0
 10026  000CE0  6E58               	movwf	strtof@i^0,c
 10027  000CE2                     l5731:
 10028  000CE2  5058               	movf	strtof@i^0,w,c
 10029  000CE4  2433               	addwf	strtof@s^0,w,c
 10030  000CE6  6ED9               	movwf	fsr2l,c
 10031  000CE8  0E00               	movlw	0
 10032  000CEA  2034               	addwfc	(strtof@s+1)^0,w,c
 10033  000CEC  6EDA               	movwf	fsr2h,c
 10034  000CEE  0E70               	movlw	112
 10035  000CF0  18DE               	xorwf	postinc2,w,c
 10036  000CF2  B4D8               	btfsc	status,2,c
 10037  000CF4  EF7E  F006         	goto	u7581
 10038  000CF8  EF80  F006         	goto	u7580
 10039  000CFC                     u7581:
 10040  000CFC  EF0C  F008         	goto	l5805
 10041  000D00                     u7580:
 10042  000D00  5058               	movf	strtof@i^0,w,c
 10043  000D02  2433               	addwf	strtof@s^0,w,c
 10044  000D04  6ED9               	movwf	fsr2l,c
 10045  000D06  0E00               	movlw	0
 10046  000D08  2034               	addwfc	(strtof@s+1)^0,w,c
 10047  000D0A  6EDA               	movwf	fsr2h,c
 10048  000D0C  0E50               	movlw	80
 10049  000D0E  18DE               	xorwf	postinc2,w,c
 10050  000D10  A4D8               	btfss	status,2,c
 10051  000D12  EF8D  F006         	goto	u7591
 10052  000D16  EF8F  F006         	goto	u7590
 10053  000D1A                     u7591:
 10054  000D1A  EF91  F006         	goto	l5737
 10055  000D1E                     u7590:
 10056  000D1E  EF0C  F008         	goto	l5805
 10057  000D22                     l5737:
 10058  000D22  5058               	movf	strtof@i^0,w,c
 10059  000D24  2433               	addwf	strtof@s^0,w,c
 10060  000D26  6ED9               	movwf	fsr2l,c
 10061  000D28  0E00               	movlw	0
 10062  000D2A  2034               	addwfc	(strtof@s+1)^0,w,c
 10063  000D2C  6EDA               	movwf	fsr2h,c
 10064  000D2E  0E2E               	movlw	46
 10065  000D30  18DE               	xorwf	postinc2,w,c
 10066  000D32  A4D8               	btfss	status,2,c
 10067  000D34  EF9E  F006         	goto	u7601
 10068  000D38  EFA0  F006         	goto	u7600
 10069  000D3C                     u7601:
 10070  000D3C  EFA4  F006         	goto	l5743
 10071  000D40                     u7600:
 10072  000D40  884F               	bsf	strtof@flags^0,4,c
 10073  000D42  2A58               	incf	strtof@i^0,f,c
 10074  000D44  EF0C  F008         	goto	l5805
 10075  000D48                     l5743:
 10076  000D48  5058               	movf	strtof@i^0,w,c
 10077  000D4A  2433               	addwf	strtof@s^0,w,c
 10078  000D4C  6ED9               	movwf	fsr2l,c
 10079  000D4E  0E00               	movlw	0
 10080  000D50  2034               	addwfc	(strtof@s+1)^0,w,c
 10081  000D52  6EDA               	movwf	fsr2h,c
 10082  000D54  50DF               	movf	indf2,w,c
 10083  000D56  6E37               	movwf	??_strtof^0,c
 10084  000D58  5037               	movf	??_strtof^0,w,c
 10085  000D5A  6E01               	movwf	isxdigit@c^0,c
 10086  000D5C  6A02               	clrf	(isxdigit@c+1)^0,c
 10087  000D5E  EC78  F02D         	call	_isxdigit	;wreg free
 10088  000D62  5001               	movf	?_isxdigit^0,w,c
 10089  000D64  1002               	iorwf	(?_isxdigit+1)^0,w,c
 10090  000D66  B4D8               	btfsc	status,2,c
 10091  000D68  EFB8  F006         	goto	u7611
 10092  000D6C  EFBA  F006         	goto	u7610
 10093  000D70                     u7611:
 10094  000D70  EF35  F007         	goto	l5765
 10095  000D74                     u7610:
 10096  000D74  0E00               	movlw	0
 10097  000D76  6E4E               	movwf	strtof@digit^0,c
 10098  000D78  0ED0               	movlw	208
 10099  000D7A  6E37               	movwf	??_strtof^0,c
 10100  000D7C  0EFF               	movlw	255
 10101  000D7E  6E38               	movwf	(??_strtof+1)^0,c
 10102  000D80  5058               	movf	strtof@i^0,w,c
 10103  000D82  2433               	addwf	strtof@s^0,w,c
 10104  000D84  6ED9               	movwf	fsr2l,c
 10105  000D86  0E00               	movlw	0
 10106  000D88  2034               	addwfc	(strtof@s+1)^0,w,c
 10107  000D8A  6EDA               	movwf	fsr2h,c
 10108  000D8C  50DF               	movf	indf2,w,c
 10109  000D8E  6E39               	movwf	(??_strtof+2)^0,c
 10110  000D90  6A3A               	clrf	(??_strtof+3)^0,c
 10111  000D92  5037               	movf	??_strtof^0,w,c
 10112  000D94  2639               	addwf	(??_strtof+2)^0,f,c
 10113  000D96  5038               	movf	(??_strtof+1)^0,w,c
 10114  000D98  223A               	addwfc	(??_strtof+3)^0,f,c
 10115  000D9A  503A               	movf	(??_strtof+3)^0,w,c
 10116  000D9C  E10A               	bnz	u7620
 10117  000D9E  0E0A               	movlw	10
 10118  000DA0  5C39               	subwf	(??_strtof+2)^0,w,c
 10119  000DA2  A0D8               	btfss	status,0,c
 10120  000DA4  EFD6  F006         	goto	u7621
 10121  000DA8  EFD9  F006         	goto	u7620
 10122  000DAC                     u7621:
 10123  000DAC  0E01               	movlw	1
 10124  000DAE  EFDA  F006         	goto	u7630
 10125  000DB2                     u7620:
 10126  000DB2  0E00               	movlw	0
 10127  000DB4                     u7630:
 10128  000DB4  6E3F               	movwf	_strtof$1297^0,c
 10129  000DB6  6A40               	clrf	(_strtof$1297+1)^0,c
 10130  000DB8  503F               	movf	_strtof$1297^0,w,c
 10131  000DBA  1040               	iorwf	(_strtof$1297+1)^0,w,c
 10132  000DBC  B4D8               	btfsc	status,2,c
 10133  000DBE  EFE3  F006         	goto	u7641
 10134  000DC2  EFE5  F006         	goto	u7640
 10135  000DC6                     u7641:
 10136  000DC6  EFF0  F006         	goto	l5755
 10137  000DCA                     u7640:
 10138  000DCA  5058               	movf	strtof@i^0,w,c
 10139  000DCC  2433               	addwf	strtof@s^0,w,c
 10140  000DCE  6ED9               	movwf	fsr2l,c
 10141  000DD0  0E00               	movlw	0
 10142  000DD2  2034               	addwfc	(strtof@s+1)^0,w,c
 10143  000DD4  6EDA               	movwf	fsr2h,c
 10144  000DD6  50DF               	movf	indf2,w,c
 10145  000DD8  0FD0               	addlw	208
 10146  000DDA  6E4E               	movwf	strtof@digit^0,c
 10147  000DDC  EF00  F007         	goto	l5757
 10148  000DE0                     l5755:
 10149  000DE0  5058               	movf	strtof@i^0,w,c
 10150  000DE2  2433               	addwf	strtof@s^0,w,c
 10151  000DE4  6ED9               	movwf	fsr2l,c
 10152  000DE6  0E00               	movlw	0
 10153  000DE8  2034               	addwfc	(strtof@s+1)^0,w,c
 10154  000DEA  6EDA               	movwf	fsr2h,c
 10155  000DEC  50DF               	movf	indf2,w,c
 10156  000DEE  6E37               	movwf	??_strtof^0,c
 10157  000DF0  5037               	movf	??_strtof^0,w,c
 10158  000DF2  6E07               	movwf	toupper@c^0,c
 10159  000DF4  6A08               	clrf	(toupper@c+1)^0,c
 10160  000DF6  ECB1  F02E         	call	_toupper	;wreg free
 10161  000DFA  5007               	movf	?_toupper^0,w,c
 10162  000DFC  0FC9               	addlw	201
 10163  000DFE  6E4E               	movwf	strtof@digit^0,c
 10164  000E00                     l5757:
 10165  000E00  BE53               	btfsc	(strtof@eexp+1)^0,7,c
 10166  000E02  EF0E  F007         	goto	u7650
 10167  000E06  5053               	movf	(strtof@eexp+1)^0,w,c
 10168  000E08  E107               	bnz	u7651
 10169  000E0A  0E08               	movlw	8
 10170  000E0C  5C52               	subwf	strtof@eexp^0,w,c
 10171  000E0E  B0D8               	btfsc	status,0,c
 10172  000E10  EF0C  F007         	goto	u7651
 10173  000E14  EF0E  F007         	goto	u7650
 10174  000E18                     u7651:
 10175  000E18  EF2D  F007         	goto	l5761
 10176  000E1C                     u7650:
 10177  000E1C  5052               	movf	strtof@eexp^0,w,c
 10178  000E1E  0807               	sublw	7
 10179  000E20  6E37               	movwf	??_strtof^0,c
 10180  000E22  90D8               	bcf	status,0,c
 10181  000E24  3637               	rlcf	??_strtof^0,f,c
 10182  000E26  90D8               	bcf	status,0,c
 10183  000E28  3637               	rlcf	??_strtof^0,f,c
 10184  000E2A  C04E  F038         	movff	strtof@digit,??_strtof+1
 10185  000E2E  6A39               	clrf	(??_strtof+2)^0,c
 10186  000E30  6A3A               	clrf	(??_strtof+3)^0,c
 10187  000E32  6A3B               	clrf	(??_strtof+4)^0,c
 10188  000E34  2A37               	incf	??_strtof^0,f,c
 10189  000E36  EF22  F007         	goto	u7660
 10190  000E3A                     u7665:
 10191  000E3A  90D8               	bcf	status,0,c
 10192  000E3C  3638               	rlcf	(??_strtof+1)^0,f,c
 10193  000E3E  3639               	rlcf	(??_strtof+2)^0,f,c
 10194  000E40  363A               	rlcf	(??_strtof+3)^0,f,c
 10195  000E42  363B               	rlcf	(??_strtof+4)^0,f,c
 10196  000E44                     u7660:
 10197  000E44  2E37               	decfsz	??_strtof^0,f,c
 10198  000E46  EF1D  F007         	goto	u7665
 10199  000E4A  5038               	movf	(??_strtof+1)^0,w,c
 10200  000E4C  1254               	iorwf	strtof@_u^0,f,c
 10201  000E4E  5039               	movf	(??_strtof+2)^0,w,c
 10202  000E50  1255               	iorwf	(strtof@_u+1)^0,f,c
 10203  000E52  503A               	movf	(??_strtof+3)^0,w,c
 10204  000E54  1256               	iorwf	(strtof@_u+2)^0,f,c
 10205  000E56  503B               	movf	(??_strtof+4)^0,w,c
 10206  000E58  1257               	iorwf	(strtof@_u+3)^0,f,c
 10207  000E5A                     l5761:
 10208  000E5A  4A52               	infsnz	strtof@eexp^0,f,c
 10209  000E5C  2A53               	incf	(strtof@eexp+1)^0,f,c
 10210  000E5E  0E04               	movlw	4
 10211  000E60  2650               	addwf	strtof@expon^0,f,c
 10212  000E62  0E00               	movlw	0
 10213  000E64  2251               	addwfc	(strtof@expon+1)^0,f,c
 10214  000E66  EF3F  F007         	goto	l5769
 10215  000E6A                     l5765:
 10216  000E6A  0E00               	movlw	0
 10217  000E6C  6E33               	movwf	?_strtof^0,c
 10218  000E6E  0E00               	movlw	0
 10219  000E70  6E34               	movwf	(?_strtof+1)^0,c
 10220  000E72  0E00               	movlw	0
 10221  000E74  6E35               	movwf	(?_strtof+2)^0,c
 10222  000E76  0E00               	movlw	0
 10223  000E78  6E36               	movwf	(?_strtof+3)^0,c
 10224  000E7A  EF02  F00D         	goto	l1315
 10225  000E7E                     l5769:
 10226  000E7E  2A58               	incf	strtof@i^0,f,c
 10227  000E80  EF71  F006         	goto	l5731
 10228  000E84                     l5771:
 10229  000E84  5058               	movf	strtof@i^0,w,c
 10230  000E86  2433               	addwf	strtof@s^0,w,c
 10231  000E88  6ED9               	movwf	fsr2l,c
 10232  000E8A  0E00               	movlw	0
 10233  000E8C  2034               	addwfc	(strtof@s+1)^0,w,c
 10234  000E8E  6EDA               	movwf	fsr2h,c
 10235  000E90  0E70               	movlw	112
 10236  000E92  18DE               	xorwf	postinc2,w,c
 10237  000E94  B4D8               	btfsc	status,2,c
 10238  000E96  EF4F  F007         	goto	u7671
 10239  000E9A  EF51  F007         	goto	u7670
 10240  000E9E                     u7671:
 10241  000E9E  EF13  F008         	goto	l5807
 10242  000EA2                     u7670:
 10243  000EA2  5058               	movf	strtof@i^0,w,c
 10244  000EA4  2433               	addwf	strtof@s^0,w,c
 10245  000EA6  6ED9               	movwf	fsr2l,c
 10246  000EA8  0E00               	movlw	0
 10247  000EAA  2034               	addwfc	(strtof@s+1)^0,w,c
 10248  000EAC  6EDA               	movwf	fsr2h,c
 10249  000EAE  0E50               	movlw	80
 10250  000EB0  18DE               	xorwf	postinc2,w,c
 10251  000EB2  A4D8               	btfss	status,2,c
 10252  000EB4  EF5E  F007         	goto	u7681
 10253  000EB8  EF60  F007         	goto	u7680
 10254  000EBC                     u7681:
 10255  000EBC  EF62  F007         	goto	l5777
 10256  000EC0                     u7680:
 10257  000EC0  EF13  F008         	goto	l5807
 10258  000EC4                     l5777:
 10259  000EC4  5058               	movf	strtof@i^0,w,c
 10260  000EC6  2433               	addwf	strtof@s^0,w,c
 10261  000EC8  6ED9               	movwf	fsr2l,c
 10262  000ECA  0E00               	movlw	0
 10263  000ECC  2034               	addwfc	(strtof@s+1)^0,w,c
 10264  000ECE  6EDA               	movwf	fsr2h,c
 10265  000ED0  0E30               	movlw	48
 10266  000ED2  18DE               	xorwf	postinc2,w,c
 10267  000ED4  A4D8               	btfss	status,2,c
 10268  000ED6  EF6F  F007         	goto	u7691
 10269  000EDA  EF71  F007         	goto	u7690
 10270  000EDE                     u7691:
 10271  000EDE  EF80  F007         	goto	l5783
 10272  000EE2                     u7690:
 10273  000EE2  5052               	movf	strtof@eexp^0,w,c
 10274  000EE4  1053               	iorwf	(strtof@eexp+1)^0,w,c
 10275  000EE6  A4D8               	btfss	status,2,c
 10276  000EE8  EF78  F007         	goto	u7701
 10277  000EEC  EF7A  F007         	goto	u7700
 10278  000EF0                     u7701:
 10279  000EF0  EF80  F007         	goto	l5783
 10280  000EF4                     u7700:
 10281  000EF4  0EFC               	movlw	252
 10282  000EF6  2650               	addwf	strtof@expon^0,f,c
 10283  000EF8  0EFF               	movlw	255
 10284  000EFA  2251               	addwfc	(strtof@expon+1)^0,f,c
 10285  000EFC  EF0B  F008         	goto	l5803
 10286  000F00                     l5783:
 10287  000F00  5058               	movf	strtof@i^0,w,c
 10288  000F02  2433               	addwf	strtof@s^0,w,c
 10289  000F04  6ED9               	movwf	fsr2l,c
 10290  000F06  0E00               	movlw	0
 10291  000F08  2034               	addwfc	(strtof@s+1)^0,w,c
 10292  000F0A  6EDA               	movwf	fsr2h,c
 10293  000F0C  50DF               	movf	indf2,w,c
 10294  000F0E  6E37               	movwf	??_strtof^0,c
 10295  000F10  5037               	movf	??_strtof^0,w,c
 10296  000F12  6E01               	movwf	isxdigit@c^0,c
 10297  000F14  6A02               	clrf	(isxdigit@c+1)^0,c
 10298  000F16  EC78  F02D         	call	_isxdigit	;wreg free
 10299  000F1A  5001               	movf	?_isxdigit^0,w,c
 10300  000F1C  1002               	iorwf	(?_isxdigit+1)^0,w,c
 10301  000F1E  B4D8               	btfsc	status,2,c
 10302  000F20  EF94  F007         	goto	u7711
 10303  000F24  EF96  F007         	goto	u7710
 10304  000F28                     u7711:
 10305  000F28  EF0B  F008         	goto	l5803
 10306  000F2C                     u7710:
 10307  000F2C  0E00               	movlw	0
 10308  000F2E  6E4E               	movwf	strtof@digit^0,c
 10309  000F30  0ED0               	movlw	208
 10310  000F32  6E37               	movwf	??_strtof^0,c
 10311  000F34  0EFF               	movlw	255
 10312  000F36  6E38               	movwf	(??_strtof+1)^0,c
 10313  000F38  5058               	movf	strtof@i^0,w,c
 10314  000F3A  2433               	addwf	strtof@s^0,w,c
 10315  000F3C  6ED9               	movwf	fsr2l,c
 10316  000F3E  0E00               	movlw	0
 10317  000F40  2034               	addwfc	(strtof@s+1)^0,w,c
 10318  000F42  6EDA               	movwf	fsr2h,c
 10319  000F44  50DF               	movf	indf2,w,c
 10320  000F46  6E39               	movwf	(??_strtof+2)^0,c
 10321  000F48  6A3A               	clrf	(??_strtof+3)^0,c
 10322  000F4A  5037               	movf	??_strtof^0,w,c
 10323  000F4C  2639               	addwf	(??_strtof+2)^0,f,c
 10324  000F4E  5038               	movf	(??_strtof+1)^0,w,c
 10325  000F50  223A               	addwfc	(??_strtof+3)^0,f,c
 10326  000F52  503A               	movf	(??_strtof+3)^0,w,c
 10327  000F54  E10A               	bnz	u7720
 10328  000F56  0E0A               	movlw	10
 10329  000F58  5C39               	subwf	(??_strtof+2)^0,w,c
 10330  000F5A  A0D8               	btfss	status,0,c
 10331  000F5C  EFB2  F007         	goto	u7721
 10332  000F60  EFB5  F007         	goto	u7720
 10333  000F64                     u7721:
 10334  000F64  0E01               	movlw	1
 10335  000F66  EFB6  F007         	goto	u7730
 10336  000F6A                     u7720:
 10337  000F6A  0E00               	movlw	0
 10338  000F6C                     u7730:
 10339  000F6C  6E41               	movwf	_strtof$1298^0,c
 10340  000F6E  6A42               	clrf	(_strtof$1298+1)^0,c
 10341  000F70  5041               	movf	_strtof$1298^0,w,c
 10342  000F72  1042               	iorwf	(_strtof$1298+1)^0,w,c
 10343  000F74  B4D8               	btfsc	status,2,c
 10344  000F76  EFBF  F007         	goto	u7741
 10345  000F7A  EFC1  F007         	goto	u7740
 10346  000F7E                     u7741:
 10347  000F7E  EFCC  F007         	goto	l5795
 10348  000F82                     u7740:
 10349  000F82  5058               	movf	strtof@i^0,w,c
 10350  000F84  2433               	addwf	strtof@s^0,w,c
 10351  000F86  6ED9               	movwf	fsr2l,c
 10352  000F88  0E00               	movlw	0
 10353  000F8A  2034               	addwfc	(strtof@s+1)^0,w,c
 10354  000F8C  6EDA               	movwf	fsr2h,c
 10355  000F8E  50DF               	movf	indf2,w,c
 10356  000F90  0FD0               	addlw	208
 10357  000F92  6E4E               	movwf	strtof@digit^0,c
 10358  000F94  EFDC  F007         	goto	l5797
 10359  000F98                     l5795:
 10360  000F98  5058               	movf	strtof@i^0,w,c
 10361  000F9A  2433               	addwf	strtof@s^0,w,c
 10362  000F9C  6ED9               	movwf	fsr2l,c
 10363  000F9E  0E00               	movlw	0
 10364  000FA0  2034               	addwfc	(strtof@s+1)^0,w,c
 10365  000FA2  6EDA               	movwf	fsr2h,c
 10366  000FA4  50DF               	movf	indf2,w,c
 10367  000FA6  6E37               	movwf	??_strtof^0,c
 10368  000FA8  5037               	movf	??_strtof^0,w,c
 10369  000FAA  6E07               	movwf	toupper@c^0,c
 10370  000FAC  6A08               	clrf	(toupper@c+1)^0,c
 10371  000FAE  ECB1  F02E         	call	_toupper	;wreg free
 10372  000FB2  5007               	movf	?_toupper^0,w,c
 10373  000FB4  0FC9               	addlw	201
 10374  000FB6  6E4E               	movwf	strtof@digit^0,c
 10375  000FB8                     l5797:
 10376  000FB8  BE53               	btfsc	(strtof@eexp+1)^0,7,c
 10377  000FBA  EFEA  F007         	goto	u7750
 10378  000FBE  5053               	movf	(strtof@eexp+1)^0,w,c
 10379  000FC0  E107               	bnz	u7751
 10380  000FC2  0E08               	movlw	8
 10381  000FC4  5C52               	subwf	strtof@eexp^0,w,c
 10382  000FC6  B0D8               	btfsc	status,0,c
 10383  000FC8  EFE8  F007         	goto	u7751
 10384  000FCC  EFEA  F007         	goto	u7750
 10385  000FD0                     u7751:
 10386  000FD0  EF09  F008         	goto	l5801
 10387  000FD4                     u7750:
 10388  000FD4  5052               	movf	strtof@eexp^0,w,c
 10389  000FD6  0807               	sublw	7
 10390  000FD8  6E37               	movwf	??_strtof^0,c
 10391  000FDA  90D8               	bcf	status,0,c
 10392  000FDC  3637               	rlcf	??_strtof^0,f,c
 10393  000FDE  90D8               	bcf	status,0,c
 10394  000FE0  3637               	rlcf	??_strtof^0,f,c
 10395  000FE2  C04E  F038         	movff	strtof@digit,??_strtof+1
 10396  000FE6  6A39               	clrf	(??_strtof+2)^0,c
 10397  000FE8  6A3A               	clrf	(??_strtof+3)^0,c
 10398  000FEA  6A3B               	clrf	(??_strtof+4)^0,c
 10399  000FEC  2A37               	incf	??_strtof^0,f,c
 10400  000FEE  EFFE  F007         	goto	u7760
 10401  000FF2                     u7765:
 10402  000FF2  90D8               	bcf	status,0,c
 10403  000FF4  3638               	rlcf	(??_strtof+1)^0,f,c
 10404  000FF6  3639               	rlcf	(??_strtof+2)^0,f,c
 10405  000FF8  363A               	rlcf	(??_strtof+3)^0,f,c
 10406  000FFA  363B               	rlcf	(??_strtof+4)^0,f,c
 10407  000FFC                     u7760:
 10408  000FFC  2E37               	decfsz	??_strtof^0,f,c
 10409  000FFE  EFF9  F007         	goto	u7765
 10410  001002  5038               	movf	(??_strtof+1)^0,w,c
 10411  001004  1254               	iorwf	strtof@_u^0,f,c
 10412  001006  5039               	movf	(??_strtof+2)^0,w,c
 10413  001008  1255               	iorwf	(strtof@_u+1)^0,f,c
 10414  00100A  503A               	movf	(??_strtof+3)^0,w,c
 10415  00100C  1256               	iorwf	(strtof@_u+2)^0,f,c
 10416  00100E  503B               	movf	(??_strtof+4)^0,w,c
 10417  001010  1257               	iorwf	(strtof@_u+3)^0,f,c
 10418  001012                     l5801:
 10419  001012  4A52               	infsnz	strtof@eexp^0,f,c
 10420  001014  2A53               	incf	(strtof@eexp+1)^0,f,c
 10421  001016                     l5803:
 10422  001016  2A58               	incf	strtof@i^0,f,c
 10423  001018                     l5805:
 10424  001018  B84F               	btfsc	strtof@flags^0,4,c
 10425  00101A  EF11  F008         	goto	u7771
 10426  00101E  EF13  F008         	goto	u7770
 10427  001022                     u7771:
 10428  001022  EF42  F007         	goto	l5771
 10429  001026                     u7770:
 10430  001026                     l5807:
 10431  001026  5058               	movf	strtof@i^0,w,c
 10432  001028  2433               	addwf	strtof@s^0,w,c
 10433  00102A  6ED9               	movwf	fsr2l,c
 10434  00102C  0E00               	movlw	0
 10435  00102E  2034               	addwfc	(strtof@s+1)^0,w,c
 10436  001030  6EDA               	movwf	fsr2h,c
 10437  001032  0E70               	movlw	112
 10438  001034  18DE               	xorwf	postinc2,w,c
 10439  001036  B4D8               	btfsc	status,2,c
 10440  001038  EF20  F008         	goto	u7781
 10441  00103C  EF22  F008         	goto	u7780
 10442  001040                     u7781:
 10443  001040  EF3B  F008         	goto	l5815
 10444  001044                     u7780:
 10445  001044  5058               	movf	strtof@i^0,w,c
 10446  001046  2433               	addwf	strtof@s^0,w,c
 10447  001048  6ED9               	movwf	fsr2l,c
 10448  00104A  0E00               	movlw	0
 10449  00104C  2034               	addwfc	(strtof@s+1)^0,w,c
 10450  00104E  6EDA               	movwf	fsr2h,c
 10451  001050  0E50               	movlw	80
 10452  001052  18DE               	xorwf	postinc2,w,c
 10453  001054  B4D8               	btfsc	status,2,c
 10454  001056  EF2F  F008         	goto	u7791
 10455  00105A  EF31  F008         	goto	u7790
 10456  00105E                     u7791:
 10457  00105E  EF3B  F008         	goto	l5815
 10458  001062                     u7790:
 10459  001062  0E00               	movlw	0
 10460  001064  6E33               	movwf	?_strtof^0,c
 10461  001066  0E00               	movlw	0
 10462  001068  6E34               	movwf	(?_strtof+1)^0,c
 10463  00106A  0E00               	movlw	0
 10464  00106C  6E35               	movwf	(?_strtof+2)^0,c
 10465  00106E  0E00               	movlw	0
 10466  001070  6E36               	movwf	(?_strtof+3)^0,c
 10467  001072  EF02  F00D         	goto	l1315
 10468  001076                     l5815:
 10469  001076  2A58               	incf	strtof@i^0,f,c
 10470  001078  5058               	movf	strtof@i^0,w,c
 10471  00107A  2433               	addwf	strtof@s^0,w,c
 10472  00107C  6ED9               	movwf	fsr2l,c
 10473  00107E  0E00               	movlw	0
 10474  001080  2034               	addwfc	(strtof@s+1)^0,w,c
 10475  001082  6EDA               	movwf	fsr2h,c
 10476  001084  0E2B               	movlw	43
 10477  001086  18DE               	xorwf	postinc2,w,c
 10478  001088  A4D8               	btfss	status,2,c
 10479  00108A  EF49  F008         	goto	u7801
 10480  00108E  EF4B  F008         	goto	u7800
 10481  001092                     u7801:
 10482  001092  EF4E  F008         	goto	l5821
 10483  001096                     u7800:
 10484  001096  2A58               	incf	strtof@i^0,f,c
 10485  001098  EF5F  F008         	goto	l5825
 10486  00109C                     l5821:
 10487  00109C  5058               	movf	strtof@i^0,w,c
 10488  00109E  2433               	addwf	strtof@s^0,w,c
 10489  0010A0  6ED9               	movwf	fsr2l,c
 10490  0010A2  0E00               	movlw	0
 10491  0010A4  2034               	addwfc	(strtof@s+1)^0,w,c
 10492  0010A6  6EDA               	movwf	fsr2h,c
 10493  0010A8  0E2D               	movlw	45
 10494  0010AA  18DE               	xorwf	postinc2,w,c
 10495  0010AC  A4D8               	btfss	status,2,c
 10496  0010AE  EF5B  F008         	goto	u7811
 10497  0010B2  EF5D  F008         	goto	u7810
 10498  0010B6                     u7811:
 10499  0010B6  EF5F  F008         	goto	l5825
 10500  0010BA                     u7810:
 10501  0010BA  864F               	bsf	strtof@flags^0,3,c
 10502  0010BC  2A58               	incf	strtof@i^0,f,c
 10503  0010BE                     l5825:
 10504  0010BE  5058               	movf	strtof@i^0,w,c
 10505  0010C0  2633               	addwf	strtof@s^0,f,c
 10506  0010C2  0E00               	movlw	0
 10507  0010C4  2234               	addwfc	(strtof@s+1)^0,f,c
 10508  0010C6  0E00               	movlw	0
 10509  0010C8  6E58               	movwf	strtof@i^0,c
 10510  0010CA  EF68  F008         	goto	l5831
 10511  0010CE                     l5829:
 10512  0010CE  2A58               	incf	strtof@i^0,f,c
 10513  0010D0                     l5831:
 10514  0010D0  5058               	movf	strtof@i^0,w,c
 10515  0010D2  2433               	addwf	strtof@s^0,w,c
 10516  0010D4  6ED9               	movwf	fsr2l,c
 10517  0010D6  0E00               	movlw	0
 10518  0010D8  2034               	addwfc	(strtof@s+1)^0,w,c
 10519  0010DA  6EDA               	movwf	fsr2h,c
 10520  0010DC  0E30               	movlw	48
 10521  0010DE  18DE               	xorwf	postinc2,w,c
 10522  0010E0  B4D8               	btfsc	status,2,c
 10523  0010E2  EF75  F008         	goto	u7821
 10524  0010E6  EF77  F008         	goto	u7820
 10525  0010EA                     u7821:
 10526  0010EA  EF67  F008         	goto	l5829
 10527  0010EE                     u7820:
 10528  0010EE  0E00               	movlw	0
 10529  0010F0  6E53               	movwf	(strtof@eexp+1)^0,c
 10530  0010F2  0E00               	movlw	0
 10531  0010F4  6E52               	movwf	strtof@eexp^0,c
 10532  0010F6  EFA9  F008         	goto	l5843
 10533  0010FA                     l5835:
 10534  0010FA  5058               	movf	strtof@i^0,w,c
 10535  0010FC  B4D8               	btfsc	status,2,c
 10536  0010FE  EF83  F008         	goto	u7831
 10537  001102  EF85  F008         	goto	u7830
 10538  001106                     u7831:
 10539  001106  EF93  F008         	goto	l5839
 10540  00110A                     u7830:
 10541  00110A  C052  F001         	movff	strtof@eexp,___wmul@multiplier
 10542  00110E  C053  F002         	movff	strtof@eexp+1,___wmul@multiplier+1
 10543  001112  0E00               	movlw	0
 10544  001114  6E04               	movwf	(___wmul@multiplicand+1)^0,c
 10545  001116  0E0A               	movlw	10
 10546  001118  6E03               	movwf	___wmul@multiplicand^0,c
 10547  00111A  EC1A  F031         	call	___wmul	;wreg free
 10548  00111E  C001  F052         	movff	?___wmul,strtof@eexp
 10549  001122  C002  F053         	movff	?___wmul+1,strtof@eexp+1
 10550  001126                     l5839:
 10551  001126  0ED0               	movlw	208
 10552  001128  6E37               	movwf	??_strtof^0,c
 10553  00112A  0EFF               	movlw	255
 10554  00112C  6E38               	movwf	(??_strtof+1)^0,c
 10555  00112E  5058               	movf	strtof@i^0,w,c
 10556  001130  2433               	addwf	strtof@s^0,w,c
 10557  001132  6ED9               	movwf	fsr2l,c
 10558  001134  0E00               	movlw	0
 10559  001136  2034               	addwfc	(strtof@s+1)^0,w,c
 10560  001138  6EDA               	movwf	fsr2h,c
 10561  00113A  50DF               	movf	indf2,w,c
 10562  00113C  6E39               	movwf	(??_strtof+2)^0,c
 10563  00113E  6A3A               	clrf	(??_strtof+3)^0,c
 10564  001140  5037               	movf	??_strtof^0,w,c
 10565  001142  2639               	addwf	(??_strtof+2)^0,f,c
 10566  001144  5038               	movf	(??_strtof+1)^0,w,c
 10567  001146  223A               	addwfc	(??_strtof+3)^0,f,c
 10568  001148  5039               	movf	(??_strtof+2)^0,w,c
 10569  00114A  2652               	addwf	strtof@eexp^0,f,c
 10570  00114C  503A               	movf	(??_strtof+3)^0,w,c
 10571  00114E  2253               	addwfc	(strtof@eexp+1)^0,f,c
 10572  001150  2A58               	incf	strtof@i^0,f,c
 10573  001152                     l5843:
 10574  001152  0ED0               	movlw	208
 10575  001154  6E37               	movwf	??_strtof^0,c
 10576  001156  0EFF               	movlw	255
 10577  001158  6E38               	movwf	(??_strtof+1)^0,c
 10578  00115A  5058               	movf	strtof@i^0,w,c
 10579  00115C  2433               	addwf	strtof@s^0,w,c
 10580  00115E  6ED9               	movwf	fsr2l,c
 10581  001160  0E00               	movlw	0
 10582  001162  2034               	addwfc	(strtof@s+1)^0,w,c
 10583  001164  6EDA               	movwf	fsr2h,c
 10584  001166  50DF               	movf	indf2,w,c
 10585  001168  6E39               	movwf	(??_strtof+2)^0,c
 10586  00116A  6A3A               	clrf	(??_strtof+3)^0,c
 10587  00116C  5037               	movf	??_strtof^0,w,c
 10588  00116E  2639               	addwf	(??_strtof+2)^0,f,c
 10589  001170  5038               	movf	(??_strtof+1)^0,w,c
 10590  001172  223A               	addwfc	(??_strtof+3)^0,f,c
 10591  001174  503A               	movf	(??_strtof+3)^0,w,c
 10592  001176  E10A               	bnz	u7840
 10593  001178  0E0A               	movlw	10
 10594  00117A  5C39               	subwf	(??_strtof+2)^0,w,c
 10595  00117C  A0D8               	btfss	status,0,c
 10596  00117E  EFC3  F008         	goto	u7841
 10597  001182  EFC6  F008         	goto	u7840
 10598  001186                     u7841:
 10599  001186  0E01               	movlw	1
 10600  001188  EFC7  F008         	goto	u7850
 10601  00118C                     u7840:
 10602  00118C  0E00               	movlw	0
 10603  00118E                     u7850:
 10604  00118E  6E43               	movwf	_strtof$1299^0,c
 10605  001190  6A44               	clrf	(_strtof$1299+1)^0,c
 10606  001192  5043               	movf	_strtof$1299^0,w,c
 10607  001194  1044               	iorwf	(_strtof$1299+1)^0,w,c
 10608  001196  A4D8               	btfss	status,2,c
 10609  001198  EFD0  F008         	goto	u7861
 10610  00119C  EFD2  F008         	goto	u7860
 10611  0011A0                     u7861:
 10612  0011A0  EF7D  F008         	goto	l5835
 10613  0011A4                     u7860:
 10614  0011A4  5058               	movf	strtof@i^0,w,c
 10615  0011A6  A4D8               	btfss	status,2,c
 10616  0011A8  EFD8  F008         	goto	u7871
 10617  0011AC  EFDA  F008         	goto	u7870
 10618  0011B0                     u7871:
 10619  0011B0  EFE4  F008         	goto	l1349
 10620  0011B4                     u7870:
 10621  0011B4  0E00               	movlw	0
 10622  0011B6  6E33               	movwf	?_strtof^0,c
 10623  0011B8  0E00               	movlw	0
 10624  0011BA  6E34               	movwf	(?_strtof+1)^0,c
 10625  0011BC  0E00               	movlw	0
 10626  0011BE  6E35               	movwf	(?_strtof+2)^0,c
 10627  0011C0  0E00               	movlw	0
 10628  0011C2  6E36               	movwf	(?_strtof+3)^0,c
 10629  0011C4  EF02  F00D         	goto	l1315
 10630  0011C8                     l1349:
 10631  0011C8  A64F               	btfss	strtof@flags^0,3,c
 10632  0011CA  EFE9  F008         	goto	u7881
 10633  0011CE  EFEB  F008         	goto	u7880
 10634  0011D2                     u7881:
 10635  0011D2  EFEF  F008         	goto	l5857
 10636  0011D6                     u7880:
 10637  0011D6  6C52               	negf	strtof@eexp^0,c
 10638  0011D8  1E53               	comf	(strtof@eexp+1)^0,f,c
 10639  0011DA  B0D8               	btfsc	status,0,c
 10640  0011DC  2A53               	incf	(strtof@eexp+1)^0,f,c
 10641  0011DE                     l5857:
 10642  0011DE  5052               	movf	strtof@eexp^0,w,c
 10643  0011E0  2650               	addwf	strtof@expon^0,f,c
 10644  0011E2  5053               	movf	(strtof@eexp+1)^0,w,c
 10645  0011E4  2251               	addwfc	(strtof@expon+1)^0,f,c
 10646  0011E6  5035               	movf	strtof@res^0,w,c
 10647  0011E8  1036               	iorwf	(strtof@res+1)^0,w,c
 10648  0011EA  B4D8               	btfsc	status,2,c
 10649  0011EC  EFFA  F008         	goto	u7891
 10650  0011F0  EFFC  F008         	goto	u7890
 10651  0011F4                     u7891:
 10652  0011F4  EF0A  F009         	goto	l5863
 10653  0011F8                     u7890:
 10654  0011F8  5058               	movf	strtof@i^0,w,c
 10655  0011FA  2433               	addwf	strtof@s^0,w,c
 10656  0011FC  6E37               	movwf	??_strtof^0,c
 10657  0011FE  0E00               	movlw	0
 10658  001200  2034               	addwfc	(strtof@s+1)^0,w,c
 10659  001202  6E38               	movwf	(??_strtof+1)^0,c
 10660  001204  C035  FFD9         	movff	strtof@res,fsr2l
 10661  001208  C036  FFDA         	movff	strtof@res+1,fsr2h
 10662  00120C  C037  FFDE         	movff	??_strtof,postinc2
 10663  001210  C038  FFDD         	movff	??_strtof+1,postdec2
 10664  001214                     l5863:
 10665  001214  5054               	movf	strtof@_u^0,w,c
 10666  001216  1055               	iorwf	(strtof@_u+1)^0,w,c
 10667  001218  1056               	iorwf	(strtof@_u+2)^0,w,c
 10668  00121A  1057               	iorwf	(strtof@_u+3)^0,w,c
 10669  00121C  A4D8               	btfss	status,2,c
 10670  00121E  EF13  F009         	goto	u7901
 10671  001222  EF15  F009         	goto	u7900
 10672  001226                     u7901:
 10673  001226  EF1F  F009         	goto	l5869
 10674  00122A                     u7900:
 10675  00122A  0E00               	movlw	0
 10676  00122C  6E33               	movwf	?_strtof^0,c
 10677  00122E  0E00               	movlw	0
 10678  001230  6E34               	movwf	(?_strtof+1)^0,c
 10679  001232  0E00               	movlw	0
 10680  001234  6E35               	movwf	(?_strtof+2)^0,c
 10681  001236  0E00               	movlw	0
 10682  001238  6E36               	movwf	(?_strtof+3)^0,c
 10683  00123A  EF02  F00D         	goto	l1315
 10684  00123E                     l5869:
 10685  00123E  0EFF               	movlw	255
 10686  001240  1454               	andwf	strtof@_u^0,w,c
 10687  001242  6E37               	movwf	??_strtof^0,c
 10688  001244  0E00               	movlw	0
 10689  001246  1455               	andwf	(strtof@_u+1)^0,w,c
 10690  001248  6E38               	movwf	(??_strtof+1)^0,c
 10691  00124A  0E00               	movlw	0
 10692  00124C  1456               	andwf	(strtof@_u+2)^0,w,c
 10693  00124E  6E39               	movwf	(??_strtof+2)^0,c
 10694  001250  0E00               	movlw	0
 10695  001252  1457               	andwf	(strtof@_u+3)^0,w,c
 10696  001254  6E3A               	movwf	(??_strtof+3)^0,c
 10697  001256  503A               	movf	(??_strtof+3)^0,w,c
 10698  001258  1039               	iorwf	(??_strtof+2)^0,w,c
 10699  00125A  1038               	iorwf	(??_strtof+1)^0,w,c
 10700  00125C  E109               	bnz	u7910
 10701  00125E  0E81               	movlw	129
 10702  001260  5C37               	subwf	??_strtof^0,w,c
 10703  001262  A0D8               	btfss	status,0,c
 10704  001264  EF36  F009         	goto	u7911
 10705  001268  EF38  F009         	goto	u7910
 10706  00126C                     u7911:
 10707  00126C  EF4A  F009         	goto	l5875
 10708  001270                     u7910:
 10709  001270  0E00               	movlw	0
 10710  001272  2654               	addwf	strtof@_u^0,f,c
 10711  001274  0E01               	movlw	1
 10712  001276  2255               	addwfc	(strtof@_u+1)^0,f,c
 10713  001278  0E00               	movlw	0
 10714  00127A  2256               	addwfc	(strtof@_u+2)^0,f,c
 10715  00127C  0E00               	movlw	0
 10716  00127E  2257               	addwfc	(strtof@_u+3)^0,f,c
 10717  001280  EF4A  F009         	goto	l5875
 10718  001284                     l5873:
 10719  001284  90D8               	bcf	status,0,c
 10720  001286  3654               	rlcf	strtof@_u^0,f,c
 10721  001288  3655               	rlcf	(strtof@_u+1)^0,f,c
 10722  00128A  3656               	rlcf	(strtof@_u+2)^0,f,c
 10723  00128C  3657               	rlcf	(strtof@_u+3)^0,f,c
 10724  00128E  0650               	decf	strtof@expon^0,f,c
 10725  001290  A0D8               	btfss	status,0,c
 10726  001292  0651               	decf	(strtof@expon+1)^0,f,c
 10727  001294                     l5875:
 10728  001294  AE57               	btfss	(strtof@_u+3)^0,7,c
 10729  001296  EF4F  F009         	goto	u7921
 10730  00129A  EF51  F009         	goto	u7920
 10731  00129E                     u7921:
 10732  00129E  EF42  F009         	goto	l5873
 10733  0012A2                     u7920:
 10734  0012A2  AE51               	btfss	(strtof@expon+1)^0,7,c
 10735  0012A4  EF5D  F009         	goto	u7931
 10736  0012A8  0E83               	movlw	131
 10737  0012AA  5C50               	subwf	strtof@expon^0,w,c
 10738  0012AC  0EFF               	movlw	255
 10739  0012AE  5851               	subwfb	(strtof@expon+1)^0,w,c
 10740  0012B0  B0D8               	btfsc	status,0,c
 10741  0012B2  EF5D  F009         	goto	u7931
 10742  0012B6  EF5F  F009         	goto	u7930
 10743  0012BA                     u7931:
 10744  0012BA  EF6B  F009         	goto	l5881
 10745  0012BE                     u7930:
 10746  0012BE  0EFF               	movlw	255
 10747  0012C0  6E51               	movwf	(strtof@expon+1)^0,c
 10748  0012C2  0E81               	movlw	129
 10749  0012C4  6E50               	movwf	strtof@expon^0,c
 10750  0012C6  0E00               	movlw	0
 10751  0012C8  6E54               	movwf	strtof@_u^0,c
 10752  0012CA  0E00               	movlw	0
 10753  0012CC  6E55               	movwf	(strtof@_u+1)^0,c
 10754  0012CE  0E00               	movlw	0
 10755  0012D0  6E56               	movwf	(strtof@_u+2)^0,c
 10756  0012D2  0E00               	movlw	0
 10757  0012D4  6E57               	movwf	(strtof@_u+3)^0,c
 10758  0012D6                     l5881:
 10759  0012D6  0E81               	movlw	129
 10760  0012D8  1850               	xorwf	strtof@expon^0,w,c
 10761  0012DA  E108               	bnz	u7940
 10762  0012DC  2851               	incf	(strtof@expon+1)^0,w,c
 10763  0012DE  B4D8               	btfsc	status,2,c
 10764  0012E0  EF74  F009         	goto	u7941
 10765  0012E4  EF76  F009         	goto	u7940
 10766  0012E8                     u7941:
 10767  0012E8  EF7E  F009         	goto	l5885
 10768  0012EC                     u7940:
 10769  0012EC  90D8               	bcf	status,0,c
 10770  0012EE  3654               	rlcf	strtof@_u^0,f,c
 10771  0012F0  3655               	rlcf	(strtof@_u+1)^0,f,c
 10772  0012F2  3656               	rlcf	(strtof@_u+2)^0,f,c
 10773  0012F4  3657               	rlcf	(strtof@_u+3)^0,f,c
 10774  0012F6  0650               	decf	strtof@expon^0,f,c
 10775  0012F8  A0D8               	btfss	status,0,c
 10776  0012FA  0651               	decf	(strtof@expon+1)^0,f,c
 10777  0012FC                     l5885:
 10778  0012FC  BE51               	btfsc	(strtof@expon+1)^0,7,c
 10779  0012FE  EF8A  F009         	goto	u7951
 10780  001302  5051               	movf	(strtof@expon+1)^0,w,c
 10781  001304  E109               	bnz	u7950
 10782  001306  0E80               	movlw	128
 10783  001308  5C50               	subwf	strtof@expon^0,w,c
 10784  00130A  A0D8               	btfss	status,0,c
 10785  00130C  EF8A  F009         	goto	u7951
 10786  001310  EF8C  F009         	goto	u7950
 10787  001314                     u7951:
 10788  001314  EF98  F009         	goto	l5889
 10789  001318                     u7950:
 10790  001318  0E00               	movlw	0
 10791  00131A  6E54               	movwf	strtof@_u^0,c
 10792  00131C  0E00               	movlw	0
 10793  00131E  6E55               	movwf	(strtof@_u+1)^0,c
 10794  001320  0E00               	movlw	0
 10795  001322  6E56               	movwf	(strtof@_u+2)^0,c
 10796  001324  0E00               	movlw	0
 10797  001326  6E57               	movwf	(strtof@_u+3)^0,c
 10798  001328  0E00               	movlw	0
 10799  00132A  6E51               	movwf	(strtof@expon+1)^0,c
 10800  00132C  0E80               	movlw	128
 10801  00132E  6E50               	movwf	strtof@expon^0,c
 10802  001330                     l5889:
 10803  001330  0E09               	movlw	9
 10804  001332  6E37               	movwf	??_strtof^0,c
 10805  001334                     u7965:
 10806  001334  90D8               	bcf	status,0,c
 10807  001336  3257               	rrcf	(strtof@_u+3)^0,f,c
 10808  001338  3256               	rrcf	(strtof@_u+2)^0,f,c
 10809  00133A  3255               	rrcf	(strtof@_u+1)^0,f,c
 10810  00133C  3254               	rrcf	strtof@_u^0,f,c
 10811  00133E  2E37               	decfsz	??_strtof^0,f,c
 10812  001340  EF9A  F009         	goto	u7965
 10813  001344  0EFF               	movlw	255
 10814  001346  1654               	andwf	strtof@_u^0,f,c
 10815  001348  0EFF               	movlw	255
 10816  00134A  1655               	andwf	(strtof@_u+1)^0,f,c
 10817  00134C  0E7F               	movlw	127
 10818  00134E  1656               	andwf	(strtof@_u+2)^0,f,c
 10819  001350  0E00               	movlw	0
 10820  001352  1657               	andwf	(strtof@_u+3)^0,f,c
 10821  001354  0E7F               	movlw	127
 10822  001356  2450               	addwf	strtof@expon^0,w,c
 10823  001358  6E37               	movwf	??_strtof^0,c
 10824  00135A  0E00               	movlw	0
 10825  00135C  2051               	addwfc	(strtof@expon+1)^0,w,c
 10826  00135E  6E38               	movwf	(??_strtof+1)^0,c
 10827  001360  0EFF               	movlw	255
 10828  001362  1437               	andwf	??_strtof^0,w,c
 10829  001364  6E39               	movwf	(??_strtof+2)^0,c
 10830  001366  6A3A               	clrf	(??_strtof+3)^0,c
 10831  001368  6A3B               	clrf	(??_strtof+4)^0,c
 10832  00136A  6A3C               	clrf	(??_strtof+5)^0,c
 10833  00136C  0E17               	movlw	23
 10834  00136E                     u7975:
 10835  00136E  90D8               	bcf	status,0,c
 10836  001370  3639               	rlcf	(??_strtof+2)^0,f,c
 10837  001372  363A               	rlcf	(??_strtof+3)^0,f,c
 10838  001374  363B               	rlcf	(??_strtof+4)^0,f,c
 10839  001376  363C               	rlcf	(??_strtof+5)^0,f,c
 10840  001378  2EE8               	decfsz	wreg,f,c
 10841  00137A  EFB7  F009         	goto	u7975
 10842  00137E  5039               	movf	(??_strtof+2)^0,w,c
 10843  001380  1254               	iorwf	strtof@_u^0,f,c
 10844  001382  503A               	movf	(??_strtof+3)^0,w,c
 10845  001384  1255               	iorwf	(strtof@_u+1)^0,f,c
 10846  001386  503B               	movf	(??_strtof+4)^0,w,c
 10847  001388  1256               	iorwf	(strtof@_u+2)^0,f,c
 10848  00138A  503C               	movf	(??_strtof+5)^0,w,c
 10849  00138C  1257               	iorwf	(strtof@_u+3)^0,f,c
 10850  00138E  EFE1  F00C         	goto	l1269
 10851  001392                     l1360:
 10852  001392  B84F               	btfsc	strtof@flags^0,4,c
 10853  001394  EFCE  F009         	goto	u7981
 10854  001398  EFD0  F009         	goto	u7980
 10855  00139C                     u7981:
 10856  00139C  EFE2  F009         	goto	l5899
 10857  0013A0                     u7980:
 10858  0013A0  C033  FFD9         	movff	strtof@s,fsr2l
 10859  0013A4  C034  FFDA         	movff	strtof@s+1,fsr2h
 10860  0013A8  0E2E               	movlw	46
 10861  0013AA  18DE               	xorwf	postinc2,w,c
 10862  0013AC  A4D8               	btfss	status,2,c
 10863  0013AE  EFDB  F009         	goto	u7991
 10864  0013B2  EFDD  F009         	goto	u7990
 10865  0013B6                     u7991:
 10866  0013B6  EFE2  F009         	goto	l5899
 10867  0013BA                     u7990:
 10868  0013BA  884F               	bsf	strtof@flags^0,4,c
 10869  0013BC  4A33               	infsnz	strtof@s^0,f,c
 10870  0013BE  2A34               	incf	(strtof@s+1)^0,f,c
 10871  0013C0  EFC9  F009         	goto	l1360
 10872  0013C4                     l5899:
 10873  0013C4  0ED0               	movlw	208
 10874  0013C6  6E37               	movwf	??_strtof^0,c
 10875  0013C8  0EFF               	movlw	255
 10876  0013CA  6E38               	movwf	(??_strtof+1)^0,c
 10877  0013CC  C033  FFD9         	movff	strtof@s,fsr2l
 10878  0013D0  C034  FFDA         	movff	strtof@s+1,fsr2h
 10879  0013D4  50DF               	movf	indf2,w,c
 10880  0013D6  6E39               	movwf	(??_strtof+2)^0,c
 10881  0013D8  6A3A               	clrf	(??_strtof+3)^0,c
 10882  0013DA  5037               	movf	??_strtof^0,w,c
 10883  0013DC  2639               	addwf	(??_strtof+2)^0,f,c
 10884  0013DE  5038               	movf	(??_strtof+1)^0,w,c
 10885  0013E0  223A               	addwfc	(??_strtof+3)^0,f,c
 10886  0013E2  503A               	movf	(??_strtof+3)^0,w,c
 10887  0013E4  E10A               	bnz	u8000
 10888  0013E6  0E0A               	movlw	10
 10889  0013E8  5C39               	subwf	(??_strtof+2)^0,w,c
 10890  0013EA  A0D8               	btfss	status,0,c
 10891  0013EC  EFFA  F009         	goto	u8001
 10892  0013F0  EFFD  F009         	goto	u8000
 10893  0013F4                     u8001:
 10894  0013F4  0E01               	movlw	1
 10895  0013F6  EFFE  F009         	goto	u8010
 10896  0013FA                     u8000:
 10897  0013FA  0E00               	movlw	0
 10898  0013FC                     u8010:
 10899  0013FC  6E45               	movwf	_strtof$1300^0,c
 10900  0013FE  6A46               	clrf	(_strtof$1300+1)^0,c
 10901  001400  5045               	movf	_strtof$1300^0,w,c
 10902  001402  1046               	iorwf	(_strtof$1300+1)^0,w,c
 10903  001404  A4D8               	btfss	status,2,c
 10904  001406  EF07  F00A         	goto	u8021
 10905  00140A  EF09  F00A         	goto	u8020
 10906  00140E                     u8021:
 10907  00140E  EF0B  F00A         	goto	l5907
 10908  001412                     u8020:
 10909  001412  EF59  F00A         	goto	l5921
 10910  001416                     l5907:
 10911  001416  824F               	bsf	strtof@flags^0,1,c
 10912  001418  0E09               	movlw	9
 10913  00141A  1852               	xorwf	strtof@eexp^0,w,c
 10914  00141C  1053               	iorwf	(strtof@eexp+1)^0,w,c
 10915  00141E  B4D8               	btfsc	status,2,c
 10916  001420  EF14  F00A         	goto	u8031
 10917  001424  EF16  F00A         	goto	u8030
 10918  001428                     u8031:
 10919  001428  EF4C  F00A         	goto	l1369
 10920  00142C                     u8030:
 10921  00142C  A84F               	btfss	strtof@flags^0,4,c
 10922  00142E  EF1B  F00A         	goto	u8041
 10923  001432  EF1D  F00A         	goto	u8040
 10924  001436                     u8041:
 10925  001436  EF20  F00A         	goto	l1370
 10926  00143A                     u8040:
 10927  00143A  0650               	decf	strtof@expon^0,f,c
 10928  00143C  A0D8               	btfss	status,0,c
 10929  00143E  0651               	decf	(strtof@expon+1)^0,f,c
 10930  001440                     l1370:
 10931  001440  4A52               	infsnz	strtof@eexp^0,f,c
 10932  001442  2A53               	incf	(strtof@eexp+1)^0,f,c
 10933  001444  C054  F001         	movff	strtof@_u,___lmul@multiplier
 10934  001448  C055  F002         	movff	strtof@_u+1,___lmul@multiplier+1
 10935  00144C  C056  F003         	movff	strtof@_u+2,___lmul@multiplier+2
 10936  001450  C057  F004         	movff	strtof@_u+3,___lmul@multiplier+3
 10937  001454  0E0A               	movlw	10
 10938  001456  6E05               	movwf	___lmul@multiplicand^0,c
 10939  001458  0E00               	movlw	0
 10940  00145A  6E06               	movwf	(___lmul@multiplicand+1)^0,c
 10941  00145C  0E00               	movlw	0
 10942  00145E  6E07               	movwf	(___lmul@multiplicand+2)^0,c
 10943  001460  0E00               	movlw	0
 10944  001462  6E08               	movwf	(___lmul@multiplicand+3)^0,c
 10945  001464  ECE8  F02D         	call	___lmul	;wreg free
 10946  001468  C001  F054         	movff	?___lmul,strtof@_u
 10947  00146C  C002  F055         	movff	?___lmul+1,strtof@_u+1
 10948  001470  C003  F056         	movff	?___lmul+2,strtof@_u+2
 10949  001474  C004  F057         	movff	?___lmul+3,strtof@_u+3
 10950  001478  C033  FFD9         	movff	strtof@s,fsr2l
 10951  00147C  C034  FFDA         	movff	strtof@s+1,fsr2h
 10952  001480  50DF               	movf	indf2,w,c
 10953  001482  6E37               	movwf	??_strtof^0,c
 10954  001484  0ED0               	movlw	208
 10955  001486  2637               	addwf	??_strtof^0,f,c
 10956  001488  5037               	movf	??_strtof^0,w,c
 10957  00148A  2654               	addwf	strtof@_u^0,f,c
 10958  00148C  0E00               	movlw	0
 10959  00148E  2255               	addwfc	(strtof@_u+1)^0,f,c
 10960  001490  2256               	addwfc	(strtof@_u+2)^0,f,c
 10961  001492  2257               	addwfc	(strtof@_u+3)^0,f,c
 10962  001494  EF55  F00A         	goto	l1371
 10963  001498                     l1369:
 10964  001498  B84F               	btfsc	strtof@flags^0,4,c
 10965  00149A  EF51  F00A         	goto	u8051
 10966  00149E  EF53  F00A         	goto	u8050
 10967  0014A2                     u8051:
 10968  0014A2  EF55  F00A         	goto	l1371
 10969  0014A6                     u8050:
 10970  0014A6  4A50               	infsnz	strtof@expon^0,f,c
 10971  0014A8  2A51               	incf	(strtof@expon+1)^0,f,c
 10972  0014AA                     l1371:
 10973  0014AA  4A33               	infsnz	strtof@s^0,f,c
 10974  0014AC  2A34               	incf	(strtof@s+1)^0,f,c
 10975  0014AE  EFC9  F009         	goto	l1360
 10976  0014B2                     l5921:
 10977  0014B2  0E00               	movlw	0
 10978  0014B4  6E53               	movwf	(strtof@eexp+1)^0,c
 10979  0014B6  0E00               	movlw	0
 10980  0014B8  6E52               	movwf	strtof@eexp^0,c
 10981  0014BA  C033  FFD9         	movff	strtof@s,fsr2l
 10982  0014BE  C034  FFDA         	movff	strtof@s+1,fsr2h
 10983  0014C2  0E65               	movlw	101
 10984  0014C4  18DE               	xorwf	postinc2,w,c
 10985  0014C6  B4D8               	btfsc	status,2,c
 10986  0014C8  EF68  F00A         	goto	u8061
 10987  0014CC  EF6A  F00A         	goto	u8060
 10988  0014D0                     u8061:
 10989  0014D0  EF77  F00A         	goto	l5927
 10990  0014D4                     u8060:
 10991  0014D4  C033  FFD9         	movff	strtof@s,fsr2l
 10992  0014D8  C034  FFDA         	movff	strtof@s+1,fsr2h
 10993  0014DC  0E45               	movlw	69
 10994  0014DE  18DE               	xorwf	postinc2,w,c
 10995  0014E0  A4D8               	btfss	status,2,c
 10996  0014E2  EF75  F00A         	goto	u8071
 10997  0014E6  EF77  F00A         	goto	u8070
 10998  0014EA                     u8071:
 10999  0014EA  EF66  F00B         	goto	l5971
 11000  0014EE                     u8070:
 11001  0014EE                     l5927:
 11002  0014EE  4A33               	infsnz	strtof@s^0,f,c
 11003  0014F0  2A34               	incf	(strtof@s+1)^0,f,c
 11004  0014F2  C033  FFD9         	movff	strtof@s,fsr2l
 11005  0014F6  C034  FFDA         	movff	strtof@s+1,fsr2h
 11006  0014FA  0E2D               	movlw	45
 11007  0014FC  18DE               	xorwf	postinc2,w,c
 11008  0014FE  A4D8               	btfss	status,2,c
 11009  001500  EF84  F00A         	goto	u8081
 11010  001504  EF86  F00A         	goto	u8080
 11011  001508                     u8081:
 11012  001508  EF8B  F00A         	goto	l5931
 11013  00150C                     u8080:
 11014  00150C  864F               	bsf	strtof@flags^0,3,c
 11015  00150E  4A33               	infsnz	strtof@s^0,f,c
 11016  001510  2A34               	incf	(strtof@s+1)^0,f,c
 11017  001512  EF9A  F00A         	goto	l5937
 11018  001516                     l5931:
 11019  001516  C033  FFD9         	movff	strtof@s,fsr2l
 11020  00151A  C034  FFDA         	movff	strtof@s+1,fsr2h
 11021  00151E  0E2B               	movlw	43
 11022  001520  18DE               	xorwf	postinc2,w,c
 11023  001522  A4D8               	btfss	status,2,c
 11024  001524  EF96  F00A         	goto	u8091
 11025  001528  EF98  F00A         	goto	u8090
 11026  00152C                     u8091:
 11027  00152C  EF9A  F00A         	goto	l5937
 11028  001530                     u8090:
 11029  001530                     l5933:
 11030  001530  4A33               	infsnz	strtof@s^0,f,c
 11031  001532  2A34               	incf	(strtof@s+1)^0,f,c
 11032  001534                     l5937:
 11033  001534  C033  FFD9         	movff	strtof@s,fsr2l
 11034  001538  C034  FFDA         	movff	strtof@s+1,fsr2h
 11035  00153C  0E30               	movlw	48
 11036  00153E  18DE               	xorwf	postinc2,w,c
 11037  001540  B4D8               	btfsc	status,2,c
 11038  001542  EFA5  F00A         	goto	u8101
 11039  001546  EFA7  F00A         	goto	u8100
 11040  00154A                     u8101:
 11041  00154A  EF98  F00A         	goto	l5933
 11042  00154E                     u8100:
 11043  00154E  0ED0               	movlw	208
 11044  001550  6E37               	movwf	??_strtof^0,c
 11045  001552  0EFF               	movlw	255
 11046  001554  6E38               	movwf	(??_strtof+1)^0,c
 11047  001556  C033  FFD9         	movff	strtof@s,fsr2l
 11048  00155A  C034  FFDA         	movff	strtof@s+1,fsr2h
 11049  00155E  50DF               	movf	indf2,w,c
 11050  001560  6E39               	movwf	(??_strtof+2)^0,c
 11051  001562  6A3A               	clrf	(??_strtof+3)^0,c
 11052  001564  5037               	movf	??_strtof^0,w,c
 11053  001566  2639               	addwf	(??_strtof+2)^0,f,c
 11054  001568  5038               	movf	(??_strtof+1)^0,w,c
 11055  00156A  223A               	addwfc	(??_strtof+3)^0,f,c
 11056  00156C  503A               	movf	(??_strtof+3)^0,w,c
 11057  00156E  E10A               	bnz	u8110
 11058  001570  0E0A               	movlw	10
 11059  001572  5C39               	subwf	(??_strtof+2)^0,w,c
 11060  001574  A0D8               	btfss	status,0,c
 11061  001576  EFBF  F00A         	goto	u8111
 11062  00157A  EFC2  F00A         	goto	u8110
 11063  00157E                     u8111:
 11064  00157E  0E01               	movlw	1
 11065  001580  EFC3  F00A         	goto	u8120
 11066  001584                     u8110:
 11067  001584  0E00               	movlw	0
 11068  001586                     u8120:
 11069  001586  6E47               	movwf	_strtof$1301^0,c
 11070  001588  6A48               	clrf	(_strtof$1301+1)^0,c
 11071  00158A  5047               	movf	_strtof$1301^0,w,c
 11072  00158C  1048               	iorwf	(_strtof$1301+1)^0,w,c
 11073  00158E  B4D8               	btfsc	status,2,c
 11074  001590  EFCC  F00A         	goto	u8131
 11075  001594  EFCE  F00A         	goto	u8130
 11076  001598                     u8131:
 11077  001598  EF5B  F00B         	goto	l5967
 11078  00159C                     u8130:
 11079  00159C  C033  FFD9         	movff	strtof@s,fsr2l
 11080  0015A0  C034  FFDA         	movff	strtof@s+1,fsr2h
 11081  0015A4  50DF               	movf	indf2,w,c
 11082  0015A6  6E37               	movwf	??_strtof^0,c
 11083  0015A8  0ED0               	movlw	208
 11084  0015AA  2637               	addwf	??_strtof^0,f,c
 11085  0015AC  5037               	movf	??_strtof^0,w,c
 11086  0015AE  6E52               	movwf	strtof@eexp^0,c
 11087  0015B0  6A53               	clrf	(strtof@eexp+1)^0,c
 11088  0015B2  4A33               	infsnz	strtof@s^0,f,c
 11089  0015B4  2A34               	incf	(strtof@s+1)^0,f,c
 11090  0015B6  0ED0               	movlw	208
 11091  0015B8  6E37               	movwf	??_strtof^0,c
 11092  0015BA  0EFF               	movlw	255
 11093  0015BC  6E38               	movwf	(??_strtof+1)^0,c
 11094  0015BE  C033  FFD9         	movff	strtof@s,fsr2l
 11095  0015C2  C034  FFDA         	movff	strtof@s+1,fsr2h
 11096  0015C6  50DF               	movf	indf2,w,c
 11097  0015C8  6E39               	movwf	(??_strtof+2)^0,c
 11098  0015CA  6A3A               	clrf	(??_strtof+3)^0,c
 11099  0015CC  5037               	movf	??_strtof^0,w,c
 11100  0015CE  2639               	addwf	(??_strtof+2)^0,f,c
 11101  0015D0  5038               	movf	(??_strtof+1)^0,w,c
 11102  0015D2  223A               	addwfc	(??_strtof+3)^0,f,c
 11103  0015D4  503A               	movf	(??_strtof+3)^0,w,c
 11104  0015D6  E10A               	bnz	u8140
 11105  0015D8  0E0A               	movlw	10
 11106  0015DA  5C39               	subwf	(??_strtof+2)^0,w,c
 11107  0015DC  A0D8               	btfss	status,0,c
 11108  0015DE  EFF3  F00A         	goto	u8141
 11109  0015E2  EFF6  F00A         	goto	u8140
 11110  0015E6                     u8141:
 11111  0015E6  0E01               	movlw	1
 11112  0015E8  EFF7  F00A         	goto	u8150
 11113  0015EC                     u8140:
 11114  0015EC  0E00               	movlw	0
 11115  0015EE                     u8150:
 11116  0015EE  6E49               	movwf	_strtof$1302^0,c
 11117  0015F0  6A4A               	clrf	(_strtof$1302+1)^0,c
 11118  0015F2  5049               	movf	_strtof$1302^0,w,c
 11119  0015F4  104A               	iorwf	(_strtof$1302+1)^0,w,c
 11120  0015F6  B4D8               	btfsc	status,2,c
 11121  0015F8  EF00  F00B         	goto	u8161
 11122  0015FC  EF02  F00B         	goto	u8160
 11123  001600                     u8161:
 11124  001600  EF5B  F00B         	goto	l5967
 11125  001604                     u8160:
 11126  001604  C033  FFD9         	movff	strtof@s,fsr2l
 11127  001608  C034  FFDA         	movff	strtof@s+1,fsr2h
 11128  00160C  50DF               	movf	indf2,w,c
 11129  00160E  6E37               	movwf	??_strtof^0,c
 11130  001610  0ED0               	movlw	208
 11131  001612  2637               	addwf	??_strtof^0,f,c
 11132  001614  C052  F001         	movff	strtof@eexp,___wmul@multiplier
 11133  001618  C053  F002         	movff	strtof@eexp+1,___wmul@multiplier+1
 11134  00161C  0E00               	movlw	0
 11135  00161E  6E04               	movwf	(___wmul@multiplicand+1)^0,c
 11136  001620  0E0A               	movlw	10
 11137  001622  6E03               	movwf	___wmul@multiplicand^0,c
 11138  001624  EC1A  F031         	call	___wmul	;wreg free
 11139  001628  5037               	movf	??_strtof^0,w,c
 11140  00162A  2401               	addwf	?___wmul^0,w,c
 11141  00162C  6E52               	movwf	strtof@eexp^0,c
 11142  00162E  0E00               	movlw	0
 11143  001630  2002               	addwfc	(?___wmul+1)^0,w,c
 11144  001632  6E53               	movwf	(strtof@eexp+1)^0,c
 11145  001634  4A33               	infsnz	strtof@s^0,f,c
 11146  001636  2A34               	incf	(strtof@s+1)^0,f,c
 11147  001638  0ED0               	movlw	208
 11148  00163A  6E37               	movwf	??_strtof^0,c
 11149  00163C  0EFF               	movlw	255
 11150  00163E  6E38               	movwf	(??_strtof+1)^0,c
 11151  001640  C033  FFD9         	movff	strtof@s,fsr2l
 11152  001644  C034  FFDA         	movff	strtof@s+1,fsr2h
 11153  001648  50DF               	movf	indf2,w,c
 11154  00164A  6E39               	movwf	(??_strtof+2)^0,c
 11155  00164C  6A3A               	clrf	(??_strtof+3)^0,c
 11156  00164E  5037               	movf	??_strtof^0,w,c
 11157  001650  2639               	addwf	(??_strtof+2)^0,f,c
 11158  001652  5038               	movf	(??_strtof+1)^0,w,c
 11159  001654  223A               	addwfc	(??_strtof+3)^0,f,c
 11160  001656  503A               	movf	(??_strtof+3)^0,w,c
 11161  001658  E10A               	bnz	u8170
 11162  00165A  0E0A               	movlw	10
 11163  00165C  5C39               	subwf	(??_strtof+2)^0,w,c
 11164  00165E  A0D8               	btfss	status,0,c
 11165  001660  EF34  F00B         	goto	u8171
 11166  001664  EF37  F00B         	goto	u8170
 11167  001668                     u8171:
 11168  001668  0E01               	movlw	1
 11169  00166A  EF38  F00B         	goto	u8180
 11170  00166E                     u8170:
 11171  00166E  0E00               	movlw	0
 11172  001670                     u8180:
 11173  001670  6E4B               	movwf	_strtof$1303^0,c
 11174  001672  6A4C               	clrf	(_strtof$1303+1)^0,c
 11175  001674  504B               	movf	_strtof$1303^0,w,c
 11176  001676  104C               	iorwf	(_strtof$1303+1)^0,w,c
 11177  001678  B4D8               	btfsc	status,2,c
 11178  00167A  EF41  F00B         	goto	u8191
 11179  00167E  EF43  F00B         	goto	u8190
 11180  001682                     u8191:
 11181  001682  EF5B  F00B         	goto	l5967
 11182  001686                     u8190:
 11183  001686  C033  FFD9         	movff	strtof@s,fsr2l
 11184  00168A  C034  FFDA         	movff	strtof@s+1,fsr2h
 11185  00168E  50DF               	movf	indf2,w,c
 11186  001690  6E37               	movwf	??_strtof^0,c
 11187  001692  0ED0               	movlw	208
 11188  001694  2637               	addwf	??_strtof^0,f,c
 11189  001696  C052  F001         	movff	strtof@eexp,___wmul@multiplier
 11190  00169A  C053  F002         	movff	strtof@eexp+1,___wmul@multiplier+1
 11191  00169E  0E00               	movlw	0
 11192  0016A0  6E04               	movwf	(___wmul@multiplicand+1)^0,c
 11193  0016A2  0E0A               	movlw	10
 11194  0016A4  6E03               	movwf	___wmul@multiplicand^0,c
 11195  0016A6  EC1A  F031         	call	___wmul	;wreg free
 11196  0016AA  5037               	movf	??_strtof^0,w,c
 11197  0016AC  2401               	addwf	?___wmul^0,w,c
 11198  0016AE  6E52               	movwf	strtof@eexp^0,c
 11199  0016B0  0E00               	movlw	0
 11200  0016B2  2002               	addwfc	(?___wmul+1)^0,w,c
 11201  0016B4  6E53               	movwf	(strtof@eexp+1)^0,c
 11202  0016B6                     l5967:
 11203  0016B6  A64F               	btfss	strtof@flags^0,3,c
 11204  0016B8  EF60  F00B         	goto	u8201
 11205  0016BC  EF62  F00B         	goto	u8200
 11206  0016C0                     u8201:
 11207  0016C0  EF66  F00B         	goto	l5971
 11208  0016C4                     u8200:
 11209  0016C4  6C52               	negf	strtof@eexp^0,c
 11210  0016C6  1E53               	comf	(strtof@eexp+1)^0,f,c
 11211  0016C8  B0D8               	btfsc	status,0,c
 11212  0016CA  2A53               	incf	(strtof@eexp+1)^0,f,c
 11213  0016CC                     l5971:
 11214  0016CC  5052               	movf	strtof@eexp^0,w,c
 11215  0016CE  2650               	addwf	strtof@expon^0,f,c
 11216  0016D0  5053               	movf	(strtof@eexp+1)^0,w,c
 11217  0016D2  2251               	addwfc	(strtof@expon+1)^0,f,c
 11218  0016D4  5035               	movf	strtof@res^0,w,c
 11219  0016D6  1036               	iorwf	(strtof@res+1)^0,w,c
 11220  0016D8  B4D8               	btfsc	status,2,c
 11221  0016DA  EF71  F00B         	goto	u8211
 11222  0016DE  EF73  F00B         	goto	u8210
 11223  0016E2                     u8211:
 11224  0016E2  EF82  F00B         	goto	l5979
 11225  0016E6                     u8210:
 11226  0016E6  A24F               	btfss	strtof@flags^0,1,c
 11227  0016E8  EF78  F00B         	goto	u8221
 11228  0016EC  EF7A  F00B         	goto	u8220
 11229  0016F0                     u8221:
 11230  0016F0  EF82  F00B         	goto	l5979
 11231  0016F4                     u8220:
 11232  0016F4  C035  FFD9         	movff	strtof@res,fsr2l
 11233  0016F8  C036  FFDA         	movff	strtof@res+1,fsr2h
 11234  0016FC  C033  FFDE         	movff	strtof@s,postinc2
 11235  001700  C034  FFDD         	movff	strtof@s+1,postdec2
 11236  001704                     l5979:
 11237  001704  C054  F001         	movff	strtof@_u,___xxtofl@val
 11238  001708  C055  F002         	movff	strtof@_u+1,___xxtofl@val+1
 11239  00170C  C056  F003         	movff	strtof@_u+2,___xxtofl@val+2
 11240  001710  C057  F004         	movff	strtof@_u+3,___xxtofl@val+3
 11241  001714  0E00               	movlw	0
 11242  001716  EC65  F022         	call	___xxtofl
 11243  00171A  C001  F054         	movff	?___xxtofl,strtof@_u
 11244  00171E  C002  F055         	movff	?___xxtofl+1,strtof@_u+1
 11245  001722  C003  F056         	movff	?___xxtofl+2,strtof@_u+2
 11246  001726  C004  F057         	movff	?___xxtofl+3,strtof@_u+3
 11247  00172A  C054  F001         	movff	strtof@_u,___fleq@ff1
 11248  00172E  C055  F002         	movff	strtof@_u+1,___fleq@ff1+1
 11249  001732  C056  F003         	movff	strtof@_u+2,___fleq@ff1+2
 11250  001736  C057  F004         	movff	strtof@_u+3,___fleq@ff1+3
 11251  00173A  0E00               	movlw	0
 11252  00173C  6E05               	movwf	___fleq@ff2^0,c
 11253  00173E  0E00               	movlw	0
 11254  001740  6E06               	movwf	(___fleq@ff2+1)^0,c
 11255  001742  0E00               	movlw	0
 11256  001744  6E07               	movwf	(___fleq@ff2+2)^0,c
 11257  001746  0E00               	movlw	0
 11258  001748  6E08               	movwf	(___fleq@ff2+3)^0,c
 11259  00174A  EC17  F02C         	call	___fleq	;wreg free
 11260  00174E  A0D8               	btfss	status,0,c
 11261  001750  EFAC  F00B         	goto	u8231
 11262  001754  EFAE  F00B         	goto	u8230
 11263  001758                     u8231:
 11264  001758  EFB8  F00B         	goto	l5987
 11265  00175C                     u8230:
 11266  00175C  0E00               	movlw	0
 11267  00175E  6E33               	movwf	?_strtof^0,c
 11268  001760  0E00               	movlw	0
 11269  001762  6E34               	movwf	(?_strtof+1)^0,c
 11270  001764  0E00               	movlw	0
 11271  001766  6E35               	movwf	(?_strtof+2)^0,c
 11272  001768  0E00               	movlw	0
 11273  00176A  6E36               	movwf	(?_strtof+3)^0,c
 11274  00176C  EF02  F00D         	goto	l1315
 11275  001770                     l5987:
 11276  001770  BE51               	btfsc	(strtof@expon+1)^0,7,c
 11277  001772  EFBF  F00B         	goto	u8240
 11278  001776  EFBD  F00B         	goto	u8241
 11279  00177A                     u8241:
 11280  00177A  EF4D  F00C         	goto	l6015
 11281  00177E                     u8240:
 11282  00177E  6C50               	negf	strtof@expon^0,c
 11283  001780  1E51               	comf	(strtof@expon+1)^0,f,c
 11284  001782  B0D8               	btfsc	status,0,c
 11285  001784  2A51               	incf	(strtof@expon+1)^0,f,c
 11286  001786  EFE3  F00B         	goto	l5995
 11287  00178A                     l5991:
 11288  00178A  C054  F01A         	movff	strtof@_u,___fldiv@b
 11289  00178E  C055  F01B         	movff	strtof@_u+1,___fldiv@b+1
 11290  001792  C056  F01C         	movff	strtof@_u+2,___fldiv@b+2
 11291  001796  C057  F01D         	movff	strtof@_u+3,___fldiv@b+3
 11292  00179A  0EF9               	movlw	249
 11293  00179C  6E1E               	movwf	___fldiv@a^0,c
 11294  00179E  0E02               	movlw	2
 11295  0017A0  6E1F               	movwf	(___fldiv@a+1)^0,c
 11296  0017A2  0E15               	movlw	21
 11297  0017A4  6E20               	movwf	(___fldiv@a+2)^0,c
 11298  0017A6  0E50               	movlw	80
 11299  0017A8  6E21               	movwf	(___fldiv@a+3)^0,c
 11300  0017AA  ECAD  F01C         	call	___fldiv	;wreg free
 11301  0017AE  C01A  F054         	movff	?___fldiv,strtof@_u
 11302  0017B2  C01B  F055         	movff	?___fldiv+1,strtof@_u+1
 11303  0017B6  C01C  F056         	movff	?___fldiv+2,strtof@_u+2
 11304  0017BA  C01D  F057         	movff	?___fldiv+3,strtof@_u+3
 11305  0017BE  0EF6               	movlw	246
 11306  0017C0  2650               	addwf	strtof@expon^0,f,c
 11307  0017C2  0EFF               	movlw	255
 11308  0017C4  2251               	addwfc	(strtof@expon+1)^0,f,c
 11309  0017C6                     l5995:
 11310  0017C6  BE51               	btfsc	(strtof@expon+1)^0,7,c
 11311  0017C8  EFF1  F00B         	goto	u8250
 11312  0017CC  5051               	movf	(strtof@expon+1)^0,w,c
 11313  0017CE  E107               	bnz	u8251
 11314  0017D0  0E0A               	movlw	10
 11315  0017D2  5C50               	subwf	strtof@expon^0,w,c
 11316  0017D4  B0D8               	btfsc	status,0,c
 11317  0017D6  EFEF  F00B         	goto	u8251
 11318  0017DA  EFF1  F00B         	goto	u8250
 11319  0017DE                     u8251:
 11320  0017DE  EFC5  F00B         	goto	l5991
 11321  0017E2                     u8250:
 11322  0017E2  EF10  F00C         	goto	l6001
 11323  0017E6                     l5997:
 11324  0017E6  C054  F01A         	movff	strtof@_u,___fldiv@b
 11325  0017EA  C055  F01B         	movff	strtof@_u+1,___fldiv@b+1
 11326  0017EE  C056  F01C         	movff	strtof@_u+2,___fldiv@b+2
 11327  0017F2  C057  F01D         	movff	strtof@_u+3,___fldiv@b+3
 11328  0017F6  0E00               	movlw	0
 11329  0017F8  6E1E               	movwf	___fldiv@a^0,c
 11330  0017FA  0E00               	movlw	0
 11331  0017FC  6E1F               	movwf	(___fldiv@a+1)^0,c
 11332  0017FE  0E20               	movlw	32
 11333  001800  6E20               	movwf	(___fldiv@a+2)^0,c
 11334  001802  0E41               	movlw	65
 11335  001804  6E21               	movwf	(___fldiv@a+3)^0,c
 11336  001806  ECAD  F01C         	call	___fldiv	;wreg free
 11337  00180A  C01A  F054         	movff	?___fldiv,strtof@_u
 11338  00180E  C01B  F055         	movff	?___fldiv+1,strtof@_u+1
 11339  001812  C01C  F056         	movff	?___fldiv+2,strtof@_u+2
 11340  001816  C01D  F057         	movff	?___fldiv+3,strtof@_u+3
 11341  00181A  0650               	decf	strtof@expon^0,f,c
 11342  00181C  A0D8               	btfss	status,0,c
 11343  00181E  0651               	decf	(strtof@expon+1)^0,f,c
 11344  001820                     l6001:
 11345  001820  5050               	movf	strtof@expon^0,w,c
 11346  001822  1051               	iorwf	(strtof@expon+1)^0,w,c
 11347  001824  A4D8               	btfss	status,2,c
 11348  001826  EF17  F00C         	goto	u8261
 11349  00182A  EF19  F00C         	goto	u8260
 11350  00182E                     u8261:
 11351  00182E  EFF3  F00B         	goto	l5997
 11352  001832                     u8260:
 11353  001832  C054  F01A         	movff	strtof@_u,___flge@ff1
 11354  001836  C055  F01B         	movff	strtof@_u+1,___flge@ff1+1
 11355  00183A  C056  F01C         	movff	strtof@_u+2,___flge@ff1+2
 11356  00183E  C057  F01D         	movff	strtof@_u+3,___flge@ff1+3
 11357  001842  0E00               	movlw	0
 11358  001844  6E1E               	movwf	___flge@ff2^0,c
 11359  001846  0E00               	movlw	0
 11360  001848  6E1F               	movwf	(___flge@ff2+1)^0,c
 11361  00184A  0E80               	movlw	128
 11362  00184C  6E20               	movwf	(___flge@ff2+2)^0,c
 11363  00184E  0E00               	movlw	0
 11364  001850  6E21               	movwf	(___flge@ff2+3)^0,c
 11365  001852  ECBF  F028         	call	___flge	;wreg free
 11366  001856  B0D8               	btfsc	status,0,c
 11367  001858  EF30  F00C         	goto	u8271
 11368  00185C  EF32  F00C         	goto	u8270
 11369  001860                     u8271:
 11370  001860  EFE1  F00C         	goto	l1269
 11371  001864                     u8270:
 11372  001864  A04F               	btfss	strtof@flags^0,0,c
 11373  001866  EF37  F00C         	goto	u8281
 11374  00186A  EF39  F00C         	goto	u8280
 11375  00186E                     u8281:
 11376  00186E  EF43  F00C         	goto	l6011
 11377  001872                     u8280:
 11378  001872  0E00               	movlw	0
 11379  001874  6E33               	movwf	?_strtof^0,c
 11380  001876  0E00               	movlw	0
 11381  001878  6E34               	movwf	(?_strtof+1)^0,c
 11382  00187A  0E80               	movlw	128
 11383  00187C  6E35               	movwf	(?_strtof+2)^0,c
 11384  00187E  0E80               	movlw	128
 11385  001880  6E36               	movwf	(?_strtof+3)^0,c
 11386  001882  EF02  F00D         	goto	l1315
 11387  001886                     l6011:
 11388  001886  0E00               	movlw	0
 11389  001888  6E33               	movwf	?_strtof^0,c
 11390  00188A  0E00               	movlw	0
 11391  00188C  6E34               	movwf	(?_strtof+1)^0,c
 11392  00188E  0E80               	movlw	128
 11393  001890  6E35               	movwf	(?_strtof+2)^0,c
 11394  001892  0E00               	movlw	0
 11395  001894  6E36               	movwf	(?_strtof+3)^0,c
 11396  001896  EF02  F00D         	goto	l1315
 11397  00189A                     l6015:
 11398  00189A  BE51               	btfsc	(strtof@expon+1)^0,7,c
 11399  00189C  EF58  F00C         	goto	u8291
 11400  0018A0  5051               	movf	(strtof@expon+1)^0,w,c
 11401  0018A2  E108               	bnz	u8290
 11402  0018A4  0450               	decf	strtof@expon^0,w,c
 11403  0018A6  A0D8               	btfss	status,0,c
 11404  0018A8  EF58  F00C         	goto	u8291
 11405  0018AC  EF5A  F00C         	goto	u8290
 11406  0018B0                     u8291:
 11407  0018B0  EFE1  F00C         	goto	l1269
 11408  0018B4                     u8290:
 11409  0018B4  EF7A  F00C         	goto	l6023
 11410  0018B8                     l6019:
 11411  0018B8  C054  F001         	movff	strtof@_u,___flmul@b
 11412  0018BC  C055  F002         	movff	strtof@_u+1,___flmul@b+1
 11413  0018C0  C056  F003         	movff	strtof@_u+2,___flmul@b+2
 11414  0018C4  C057  F004         	movff	strtof@_u+3,___flmul@b+3
 11415  0018C8  0EF9               	movlw	249
 11416  0018CA  6E05               	movwf	___flmul@a^0,c
 11417  0018CC  0E02               	movlw	2
 11418  0018CE  6E06               	movwf	(___flmul@a+1)^0,c
 11419  0018D0  0E15               	movlw	21
 11420  0018D2  6E07               	movwf	(___flmul@a+2)^0,c
 11421  0018D4  0E50               	movlw	80
 11422  0018D6  6E08               	movwf	(___flmul@a+3)^0,c
 11423  0018D8  EC98  F01A         	call	___flmul	;wreg free
 11424  0018DC  C001  F054         	movff	?___flmul,strtof@_u
 11425  0018E0  C002  F055         	movff	?___flmul+1,strtof@_u+1
 11426  0018E4  C003  F056         	movff	?___flmul+2,strtof@_u+2
 11427  0018E8  C004  F057         	movff	?___flmul+3,strtof@_u+3
 11428  0018EC  0EF6               	movlw	246
 11429  0018EE  2650               	addwf	strtof@expon^0,f,c
 11430  0018F0  0EFF               	movlw	255
 11431  0018F2  2251               	addwfc	(strtof@expon+1)^0,f,c
 11432  0018F4                     l6023:
 11433  0018F4  5051               	movf	(strtof@expon+1)^0,w,c
 11434  0018F6  E107               	bnz	u8301
 11435  0018F8  0E0A               	movlw	10
 11436  0018FA  5C50               	subwf	strtof@expon^0,w,c
 11437  0018FC  B0D8               	btfsc	status,0,c
 11438  0018FE  EF83  F00C         	goto	u8301
 11439  001902  EF85  F00C         	goto	u8300
 11440  001906                     u8301:
 11441  001906  EF5C  F00C         	goto	l6019
 11442  00190A                     u8300:
 11443  00190A  EFA4  F00C         	goto	l6029
 11444  00190E                     l6025:
 11445  00190E  C054  F001         	movff	strtof@_u,___flmul@b
 11446  001912  C055  F002         	movff	strtof@_u+1,___flmul@b+1
 11447  001916  C056  F003         	movff	strtof@_u+2,___flmul@b+2
 11448  00191A  C057  F004         	movff	strtof@_u+3,___flmul@b+3
 11449  00191E  0E00               	movlw	0
 11450  001920  6E05               	movwf	___flmul@a^0,c
 11451  001922  0E00               	movlw	0
 11452  001924  6E06               	movwf	(___flmul@a+1)^0,c
 11453  001926  0E20               	movlw	32
 11454  001928  6E07               	movwf	(___flmul@a+2)^0,c
 11455  00192A  0E41               	movlw	65
 11456  00192C  6E08               	movwf	(___flmul@a+3)^0,c
 11457  00192E  EC98  F01A         	call	___flmul	;wreg free
 11458  001932  C001  F054         	movff	?___flmul,strtof@_u
 11459  001936  C002  F055         	movff	?___flmul+1,strtof@_u+1
 11460  00193A  C003  F056         	movff	?___flmul+2,strtof@_u+2
 11461  00193E  C004  F057         	movff	?___flmul+3,strtof@_u+3
 11462  001942  0650               	decf	strtof@expon^0,f,c
 11463  001944  A0D8               	btfss	status,0,c
 11464  001946  0651               	decf	(strtof@expon+1)^0,f,c
 11465  001948                     l6029:
 11466  001948  5050               	movf	strtof@expon^0,w,c
 11467  00194A  1051               	iorwf	(strtof@expon+1)^0,w,c
 11468  00194C  A4D8               	btfss	status,2,c
 11469  00194E  EFAB  F00C         	goto	u8311
 11470  001952  EFAD  F00C         	goto	u8310
 11471  001956                     u8311:
 11472  001956  EF87  F00C         	goto	l6025
 11473  00195A                     u8310:
 11474  00195A  0EFF               	movlw	255
 11475  00195C  6E1A               	movwf	___flge@ff1^0,c
 11476  00195E  0EFF               	movlw	255
 11477  001960  6E1B               	movwf	(___flge@ff1+1)^0,c
 11478  001962  0E7F               	movlw	127
 11479  001964  6E1C               	movwf	(___flge@ff1+2)^0,c
 11480  001966  0E7F               	movlw	127
 11481  001968  6E1D               	movwf	(___flge@ff1+3)^0,c
 11482  00196A  C054  F01E         	movff	strtof@_u,___flge@ff2
 11483  00196E  C055  F01F         	movff	strtof@_u+1,___flge@ff2+1
 11484  001972  C056  F020         	movff	strtof@_u+2,___flge@ff2+2
 11485  001976  C057  F021         	movff	strtof@_u+3,___flge@ff2+3
 11486  00197A  ECBF  F028         	call	___flge	;wreg free
 11487  00197E  B0D8               	btfsc	status,0,c
 11488  001980  EFC4  F00C         	goto	u8321
 11489  001984  EFC6  F00C         	goto	u8320
 11490  001988                     u8321:
 11491  001988  EFE1  F00C         	goto	l1269
 11492  00198C                     u8320:
 11493  00198C  A04F               	btfss	strtof@flags^0,0,c
 11494  00198E  EFCB  F00C         	goto	u8331
 11495  001992  EFCD  F00C         	goto	u8330
 11496  001996                     u8331:
 11497  001996  EFD7  F00C         	goto	l6039
 11498  00199A                     u8330:
 11499  00199A  0E00               	movlw	0
 11500  00199C  6E33               	movwf	?_strtof^0,c
 11501  00199E  0E00               	movlw	0
 11502  0019A0  6E34               	movwf	(?_strtof+1)^0,c
 11503  0019A2  0E80               	movlw	128
 11504  0019A4  6E35               	movwf	(?_strtof+2)^0,c
 11505  0019A6  0E80               	movlw	128
 11506  0019A8  6E36               	movwf	(?_strtof+3)^0,c
 11507  0019AA  EF02  F00D         	goto	l1315
 11508  0019AE                     l6039:
 11509  0019AE  0E00               	movlw	0
 11510  0019B0  6E33               	movwf	?_strtof^0,c
 11511  0019B2  0E00               	movlw	0
 11512  0019B4  6E34               	movwf	(?_strtof+1)^0,c
 11513  0019B6  0E80               	movlw	128
 11514  0019B8  6E35               	movwf	(?_strtof+2)^0,c
 11515  0019BA  0E00               	movlw	0
 11516  0019BC  6E36               	movwf	(?_strtof+3)^0,c
 11517  0019BE  EF02  F00D         	goto	l1315
 11518  0019C2                     l1269:
 11519  0019C2  A04F               	btfss	strtof@flags^0,0,c
 11520  0019C4  EFE6  F00C         	goto	u8341
 11521  0019C8  EFE8  F00C         	goto	u8340
 11522  0019CC                     u8341:
 11523  0019CC  EFFA  F00C         	goto	l6045
 11524  0019D0                     u8340:
 11525  0019D0  C054  F001         	movff	strtof@_u,___flneg@f1
 11526  0019D4  C055  F002         	movff	strtof@_u+1,___flneg@f1+1
 11527  0019D8  C056  F003         	movff	strtof@_u+2,___flneg@f1+2
 11528  0019DC  C057  F004         	movff	strtof@_u+3,___flneg@f1+3
 11529  0019E0  ECB8  F030         	call	___flneg	;wreg free
 11530  0019E4  C001  F054         	movff	?___flneg,strtof@_u
 11531  0019E8  C002  F055         	movff	?___flneg+1,strtof@_u+1
 11532  0019EC  C003  F056         	movff	?___flneg+2,strtof@_u+2
 11533  0019F0  C004  F057         	movff	?___flneg+3,strtof@_u+3
 11534  0019F4                     l6045:
 11535  0019F4  C054  F033         	movff	strtof@_u,?_strtof
 11536  0019F8  C055  F034         	movff	strtof@_u+1,?_strtof+1
 11537  0019FC  C056  F035         	movff	strtof@_u+2,?_strtof+2
 11538  001A00  C057  F036         	movff	strtof@_u+3,?_strtof+3
 11539  001A04                     l1315:
 11540  001A04  0012               	return		;funcret
 11541  001A06                     __end_of_strtof:
 11542                           	opt callstack 0
 11543                           
 11544 ;; *************** function _toupper *****************
 11545 ;; Defined at:
 11546 ;;		line 4 in file "/opt/microchip/xc8/v2.10/pic/sources/c99/common/toupper.c"
 11547 ;; Parameters:    Size  Location     Type
 11548 ;;  c               2    6[COMRAM] int 
 11549 ;; Auto vars:     Size  Location     Type
 11550 ;;		None
 11551 ;; Return value:  Size  Location     Type
 11552 ;;                  2    6[COMRAM] int 
 11553 ;; Registers used:
 11554 ;;		wreg, status,2, status,0
 11555 ;; Tracked objects:
 11556 ;;		On entry : 0/0
 11557 ;;		On exit  : 0/0
 11558 ;;		Unchanged: 0/0
 11559 ;; Data sizes:     COMRAM   BANK0   BANK1   BANK2   BANK3   BANK4   BANK5   BANK6   BANK7
 11560 ;;      Params:         2       0       0       0       0       0       0       0       0
 11561 ;;      Locals:         2       0       0       0       0       0       0       0       0
 11562 ;;      Temps:          4       0       0       0       0       0       0       0       0
 11563 ;;      Totals:         8       0       0       0       0       0       0       0       0
 11564 ;;Total ram usage:        8 bytes
 11565 ;; Hardware stack levels used:    1
 11566 ;; Hardware stack levels required when called:    1
 11567 ;; This function calls:
 11568 ;;		_islower
 11569 ;; This function is called by:
 11570 ;;		_strtof
 11571 ;; This function uses a non-reentrant model
 11572 ;;
 11573                           
 11574                           	psect	text37
 11575  005D62                     __ptext37:
 11576                           	opt callstack 0
 11577  005D62                     _toupper:
 11578                           	opt callstack 26
 11579  005D62  0E9F               	movlw	159
 11580  005D64  6E09               	movwf	??_toupper^0,c
 11581  005D66  0EFF               	movlw	255
 11582  005D68  6E0A               	movwf	(??_toupper+1)^0,c
 11583  005D6A  C007  F00B         	movff	toupper@c,??_toupper+2
 11584  005D6E  C008  F00C         	movff	toupper@c+1,??_toupper+3
 11585  005D72  5009               	movf	??_toupper^0,w,c
 11586  005D74  260B               	addwf	(??_toupper+2)^0,f,c
 11587  005D76  500A               	movf	(??_toupper+1)^0,w,c
 11588  005D78  220C               	addwfc	(??_toupper+3)^0,f,c
 11589  005D7A  500C               	movf	(??_toupper+3)^0,w,c
 11590  005D7C  E10A               	bnz	u7260
 11591  005D7E  0E1A               	movlw	26
 11592  005D80  5C0B               	subwf	(??_toupper+2)^0,w,c
 11593  005D82  A0D8               	btfss	status,0,c
 11594  005D84  EFC6  F02E         	goto	u7261
 11595  005D88  EFC9  F02E         	goto	u7260
 11596  005D8C                     u7261:
 11597  005D8C  0E01               	movlw	1
 11598  005D8E  EFCA  F02E         	goto	u7270
 11599  005D92                     u7260:
 11600  005D92  0E00               	movlw	0
 11601  005D94                     u7270:
 11602  005D94  6E0D               	movwf	_toupper$1339^0,c
 11603  005D96  6A0E               	clrf	(_toupper$1339+1)^0,c
 11604  005D98  500D               	movf	_toupper$1339^0,w,c
 11605  005D9A  100E               	iorwf	(_toupper$1339+1)^0,w,c
 11606  005D9C  B4D8               	btfsc	status,2,c
 11607  005D9E  EFD3  F02E         	goto	u7281
 11608  005DA2  EFD5  F02E         	goto	u7280
 11609  005DA6                     u7281:
 11610  005DA6  EFDB  F02E         	goto	l1446
 11611  005DAA                     u7280:
 11612  005DAA  0E5F               	movlw	95
 11613  005DAC  1407               	andwf	toupper@c^0,w,c
 11614  005DAE  6E07               	movwf	?_toupper^0,c
 11615  005DB0  6A08               	clrf	(?_toupper+1)^0,c
 11616  005DB2  EFDF  F02E         	goto	l1451
 11617  005DB6                     l1446:
 11618  005DB6  C007  F007         	movff	toupper@c,?_toupper
 11619  005DBA  C008  F008         	movff	toupper@c+1,?_toupper+1
 11620  005DBE                     l1451:
 11621  005DBE  0012               	return		;funcret
 11622  005DC0                     __end_of_toupper:
 11623                           	opt callstack 0
 11624                           
 11625 ;; *************** function _islower *****************
 11626 ;; Defined at:
 11627 ;;		line 5 in file "/opt/microchip/xc8/v2.10/pic/sources/c99/common/islower.c"
 11628 ;; Parameters:    Size  Location     Type
 11629 ;;  c               2    0[COMRAM] int 
 11630 ;; Auto vars:     Size  Location     Type
 11631 ;;		None
 11632 ;; Return value:  Size  Location     Type
 11633 ;;                  2    0[COMRAM] int 
 11634 ;; Registers used:
 11635 ;;		wreg, status,2, status,0
 11636 ;; Tracked objects:
 11637 ;;		On entry : 0/0
 11638 ;;		On exit  : 0/0
 11639 ;;		Unchanged: 0/0
 11640 ;; Data sizes:     COMRAM   BANK0   BANK1   BANK2   BANK3   BANK4   BANK5   BANK6   BANK7
 11641 ;;      Params:         2       0       0       0       0       0       0       0       0
 11642 ;;      Locals:         0       0       0       0       0       0       0       0       0
 11643 ;;      Temps:          4       0       0       0       0       0       0       0       0
 11644 ;;      Totals:         6       0       0       0       0       0       0       0       0
 11645 ;;Total ram usage:        6 bytes
 11646 ;; Hardware stack levels used:    1
 11647 ;; This function calls:
 11648 ;;		Nothing
 11649 ;; This function is called by:
 11650 ;;		_toupper
 11651 ;; This function uses a non-reentrant model
 11652 ;;
 11653                           
 11654                           	psect	text38
 11655  006100                     __ptext38:
 11656                           	opt callstack 0
 11657  006100                     _islower:
 11658                           	opt callstack 26
 11659  006100  0E9F               	movlw	159
 11660  006102  6E03               	movwf	??_islower^0,c
 11661  006104  0EFF               	movlw	255
 11662  006106  6E04               	movwf	(??_islower+1)^0,c
 11663  006108  C001  F005         	movff	islower@c,??_islower+2
 11664  00610C  C002  F006         	movff	islower@c+1,??_islower+3
 11665  006110  5003               	movf	??_islower^0,w,c
 11666  006112  2605               	addwf	(??_islower+2)^0,f,c
 11667  006114  5004               	movf	(??_islower+1)^0,w,c
 11668  006116  2206               	addwfc	(??_islower+3)^0,f,c
 11669  006118  5006               	movf	(??_islower+3)^0,w,c
 11670  00611A  E10A               	bnz	u6880
 11671  00611C  0E1A               	movlw	26
 11672  00611E  5C05               	subwf	(??_islower+2)^0,w,c
 11673  006120  A0D8               	btfss	status,0,c
 11674  006122  EF95  F030         	goto	u6881
 11675  006126  EF98  F030         	goto	u6880
 11676  00612A                     u6881:
 11677  00612A  0E01               	movlw	1
 11678  00612C  EF99  F030         	goto	u6890
 11679  006130                     u6880:
 11680  006130  0E00               	movlw	0
 11681  006132                     u6890:
 11682  006132  6E01               	movwf	?_islower^0,c
 11683  006134  6A02               	clrf	(?_islower+1)^0,c
 11684  006136  0012               	return		;funcret
 11685  006138                     __end_of_islower:
 11686                           	opt callstack 0
 11687                           
 11688 ;; *************** function _nanf *****************
 11689 ;; Defined at:
 11690 ;;		line 4 in file "/opt/microchip/xc8/v2.10/pic/sources/c99/common/nanf.c"
 11691 ;; Parameters:    Size  Location     Type
 11692 ;;  s               2    0[COMRAM] PTR const unsigned char 
 11693 ;;		 -> STR_35(1), 
 11694 ;; Auto vars:     Size  Location     Type
 11695 ;;  u               4    4[COMRAM] struct .
 11696 ;; Return value:  Size  Location     Type
 11697 ;;                  4    0[COMRAM] float 
 11698 ;; Registers used:
 11699 ;;		wreg, status,2
 11700 ;; Tracked objects:
 11701 ;;		On entry : 0/0
 11702 ;;		On exit  : 0/0
 11703 ;;		Unchanged: 0/0
 11704 ;; Data sizes:     COMRAM   BANK0   BANK1   BANK2   BANK3   BANK4   BANK5   BANK6   BANK7
 11705 ;;      Params:         4       0       0       0       0       0       0       0       0
 11706 ;;      Locals:         4       0       0       0       0       0       0       0       0
 11707 ;;      Temps:          0       0       0       0       0       0       0       0       0
 11708 ;;      Totals:         8       0       0       0       0       0       0       0       0
 11709 ;;Total ram usage:        8 bytes
 11710 ;; Hardware stack levels used:    1
 11711 ;; This function calls:
 11712 ;;		Nothing
 11713 ;; This function is called by:
 11714 ;;		_strtof
 11715 ;; This function uses a non-reentrant model
 11716 ;;
 11717                           
 11718                           	psect	text39
 11719  00625A                     __ptext39:
 11720                           	opt callstack 0
 11721  00625A                     _nanf:
 11722                           	opt callstack 27
 11723  00625A  0EFF               	movlw	255
 11724  00625C  6E05               	movwf	nanf@u^0,c
 11725  00625E  0EFF               	movlw	255
 11726  006260  6E06               	movwf	(nanf@u+1)^0,c
 11727  006262  0EFF               	movlw	255
 11728  006264  6E07               	movwf	(nanf@u+2)^0,c
 11729  006266  0E7F               	movlw	127
 11730  006268  6E08               	movwf	(nanf@u+3)^0,c
 11731  00626A  C005  F001         	movff	nanf@u,?_nanf
 11732  00626E  C006  F002         	movff	nanf@u+1,?_nanf+1
 11733  006272  C007  F003         	movff	nanf@u+2,?_nanf+2
 11734  006276  C008  F004         	movff	nanf@u+3,?_nanf+3
 11735  00627A  0012               	return		;funcret
 11736  00627C                     __end_of_nanf:
 11737                           	opt callstack 0
 11738                           
 11739 ;; *************** function _isxdigit *****************
 11740 ;; Defined at:
 11741 ;;		line 4 in file "/opt/microchip/xc8/v2.10/pic/sources/c99/common/isxdigit.c"
 11742 ;; Parameters:    Size  Location     Type
 11743 ;;  c               2    0[COMRAM] int 
 11744 ;; Auto vars:     Size  Location     Type
 11745 ;;		None
 11746 ;; Return value:  Size  Location     Type
 11747 ;;                  2    0[COMRAM] int 
 11748 ;; Registers used:
 11749 ;;		wreg, status,2, status,0
 11750 ;; Tracked objects:
 11751 ;;		On entry : 0/0
 11752 ;;		On exit  : 0/0
 11753 ;;		Unchanged: 0/0
 11754 ;; Data sizes:     COMRAM   BANK0   BANK1   BANK2   BANK3   BANK4   BANK5   BANK6   BANK7
 11755 ;;      Params:         2       0       0       0       0       0       0       0       0
 11756 ;;      Locals:         1       0       0       0       0       0       0       0       0
 11757 ;;      Temps:          4       0       0       0       0       0       0       0       0
 11758 ;;      Totals:         7       0       0       0       0       0       0       0       0
 11759 ;;Total ram usage:        7 bytes
 11760 ;; Hardware stack levels used:    1
 11761 ;; This function calls:
 11762 ;;		Nothing
 11763 ;; This function is called by:
 11764 ;;		_strtof
 11765 ;; This function uses a non-reentrant model
 11766 ;;
 11767                           
 11768                           	psect	text40
 11769  005AF0                     __ptext40:
 11770                           	opt callstack 0
 11771  005AF0                     _isxdigit:
 11772                           	opt callstack 27
 11773  005AF0  0E01               	movlw	1
 11774  005AF2  6E07               	movwf	_isxdigit$1359^0,c
 11775  005AF4  0ED0               	movlw	208
 11776  005AF6  6E03               	movwf	??_isxdigit^0,c
 11777  005AF8  0EFF               	movlw	255
 11778  005AFA  6E04               	movwf	(??_isxdigit+1)^0,c
 11779  005AFC  C001  F005         	movff	isxdigit@c,??_isxdigit+2
 11780  005B00  C002  F006         	movff	isxdigit@c+1,??_isxdigit+3
 11781  005B04  5003               	movf	??_isxdigit^0,w,c
 11782  005B06  2605               	addwf	(??_isxdigit+2)^0,f,c
 11783  005B08  5004               	movf	(??_isxdigit+1)^0,w,c
 11784  005B0A  2206               	addwfc	(??_isxdigit+3)^0,f,c
 11785  005B0C  5006               	movf	(??_isxdigit+3)^0,w,c
 11786  005B0E  E109               	bnz	u7240
 11787  005B10  0E0A               	movlw	10
 11788  005B12  5C05               	subwf	(??_isxdigit+2)^0,w,c
 11789  005B14  A0D8               	btfss	status,0,c
 11790  005B16  EF8F  F02D         	goto	u7241
 11791  005B1A  EF91  F02D         	goto	u7240
 11792  005B1E                     u7241:
 11793  005B1E  EFAC  F02D         	goto	l5569
 11794  005B22                     u7240:
 11795  005B22  0E9F               	movlw	159
 11796  005B24  6E03               	movwf	??_isxdigit^0,c
 11797  005B26  0EFF               	movlw	255
 11798  005B28  6E04               	movwf	(??_isxdigit+1)^0,c
 11799  005B2A  0E20               	movlw	32
 11800  005B2C  1001               	iorwf	isxdigit@c^0,w,c
 11801  005B2E  6E05               	movwf	(??_isxdigit+2)^0,c
 11802  005B30  0E00               	movlw	0
 11803  005B32  1002               	iorwf	(isxdigit@c+1)^0,w,c
 11804  005B34  6E06               	movwf	(??_isxdigit+3)^0,c
 11805  005B36  5003               	movf	??_isxdigit^0,w,c
 11806  005B38  2605               	addwf	(??_isxdigit+2)^0,f,c
 11807  005B3A  5004               	movf	(??_isxdigit+1)^0,w,c
 11808  005B3C  2206               	addwfc	(??_isxdigit+3)^0,f,c
 11809  005B3E  5006               	movf	(??_isxdigit+3)^0,w,c
 11810  005B40  E109               	bnz	u7250
 11811  005B42  0E06               	movlw	6
 11812  005B44  5C05               	subwf	(??_isxdigit+2)^0,w,c
 11813  005B46  A0D8               	btfss	status,0,c
 11814  005B48  EFA8  F02D         	goto	u7251
 11815  005B4C  EFAA  F02D         	goto	u7250
 11816  005B50                     u7251:
 11817  005B50  EFAC  F02D         	goto	l5569
 11818  005B54                     u7250:
 11819  005B54  0E00               	movlw	0
 11820  005B56  6E07               	movwf	_isxdigit$1359^0,c
 11821  005B58                     l5569:
 11822  005B58  C007  F001         	movff	_isxdigit$1359,?_isxdigit
 11823  005B5C  6A02               	clrf	(?_isxdigit+1)^0,c
 11824  005B5E  0012               	return		;funcret
 11825  005B60                     __end_of_isxdigit:
 11826                           	opt callstack 0
 11827                           
 11828 ;; *************** function _isspace *****************
 11829 ;; Defined at:
 11830 ;;		line 5 in file "/opt/microchip/xc8/v2.10/pic/sources/c99/common/isspace.c"
 11831 ;; Parameters:    Size  Location     Type
 11832 ;;  c               2    0[COMRAM] int 
 11833 ;; Auto vars:     Size  Location     Type
 11834 ;;		None
 11835 ;; Return value:  Size  Location     Type
 11836 ;;                  2    0[COMRAM] int 
 11837 ;; Registers used:
 11838 ;;		wreg, status,2, status,0
 11839 ;; Tracked objects:
 11840 ;;		On entry : 0/0
 11841 ;;		On exit  : 0/0
 11842 ;;		Unchanged: 0/0
 11843 ;; Data sizes:     COMRAM   BANK0   BANK1   BANK2   BANK3   BANK4   BANK5   BANK6   BANK7
 11844 ;;      Params:         2       0       0       0       0       0       0       0       0
 11845 ;;      Locals:         1       0       0       0       0       0       0       0       0
 11846 ;;      Temps:          4       0       0       0       0       0       0       0       0
 11847 ;;      Totals:         7       0       0       0       0       0       0       0       0
 11848 ;;Total ram usage:        7 bytes
 11849 ;; Hardware stack levels used:    1
 11850 ;; This function calls:
 11851 ;;		Nothing
 11852 ;; This function is called by:
 11853 ;;		_atoi
 11854 ;;		_strtof
 11855 ;; This function uses a non-reentrant model
 11856 ;;
 11857                           
 11858                           	psect	text41
 11859  005F26                     __ptext41:
 11860                           	opt callstack 0
 11861  005F26                     _isspace:
 11862                           	opt callstack 26
 11863  005F26  0E01               	movlw	1
 11864  005F28  6E07               	movwf	_isspace$1176^0,c
 11865  005F2A  0E20               	movlw	32
 11866  005F2C  1801               	xorwf	isspace@c^0,w,c
 11867  005F2E  1002               	iorwf	(isspace@c+1)^0,w,c
 11868  005F30  B4D8               	btfsc	status,2,c
 11869  005F32  EF9D  F02F         	goto	u5971
 11870  005F36  EF9F  F02F         	goto	u5970
 11871  005F3A                     u5971:
 11872  005F3A  EFB8  F02F         	goto	l4881
 11873  005F3E                     u5970:
 11874  005F3E  0EF7               	movlw	247
 11875  005F40  6E03               	movwf	??_isspace^0,c
 11876  005F42  0EFF               	movlw	255
 11877  005F44  6E04               	movwf	(??_isspace+1)^0,c
 11878  005F46  C001  F005         	movff	isspace@c,??_isspace+2
 11879  005F4A  C002  F006         	movff	isspace@c+1,??_isspace+3
 11880  005F4E  5003               	movf	??_isspace^0,w,c
 11881  005F50  2605               	addwf	(??_isspace+2)^0,f,c
 11882  005F52  5004               	movf	(??_isspace+1)^0,w,c
 11883  005F54  2206               	addwfc	(??_isspace+3)^0,f,c
 11884  005F56  5006               	movf	(??_isspace+3)^0,w,c
 11885  005F58  E109               	bnz	u5980
 11886  005F5A  0E05               	movlw	5
 11887  005F5C  5C05               	subwf	(??_isspace+2)^0,w,c
 11888  005F5E  A0D8               	btfss	status,0,c
 11889  005F60  EFB4  F02F         	goto	u5981
 11890  005F64  EFB6  F02F         	goto	u5980
 11891  005F68                     u5981:
 11892  005F68  EFB8  F02F         	goto	l4881
 11893  005F6C                     u5980:
 11894  005F6C  0E00               	movlw	0
 11895  005F6E  6E07               	movwf	_isspace$1176^0,c
 11896  005F70                     l4881:
 11897  005F70  C007  F001         	movff	_isspace$1176,?_isspace
 11898  005F74  6A02               	clrf	(?_isspace+1)^0,c
 11899  005F76  0012               	return		;funcret
 11900  005F78                     __end_of_isspace:
 11901                           	opt callstack 0
 11902                           
 11903 ;; *************** function _isdigit *****************
 11904 ;; Defined at:
 11905 ;;		line 5 in file "/opt/microchip/xc8/v2.10/pic/sources/c99/common/isdigit.c"
 11906 ;; Parameters:    Size  Location     Type
 11907 ;;  c               2    0[COMRAM] int 
 11908 ;; Auto vars:     Size  Location     Type
 11909 ;;		None
 11910 ;; Return value:  Size  Location     Type
 11911 ;;                  2    0[COMRAM] int 
 11912 ;; Registers used:
 11913 ;;		wreg, status,2, status,0
 11914 ;; Tracked objects:
 11915 ;;		On entry : 0/0
 11916 ;;		On exit  : 0/0
 11917 ;;		Unchanged: 0/0
 11918 ;; Data sizes:     COMRAM   BANK0   BANK1   BANK2   BANK3   BANK4   BANK5   BANK6   BANK7
 11919 ;;      Params:         2       0       0       0       0       0       0       0       0
 11920 ;;      Locals:         0       0       0       0       0       0       0       0       0
 11921 ;;      Temps:          4       0       0       0       0       0       0       0       0
 11922 ;;      Totals:         6       0       0       0       0       0       0       0       0
 11923 ;;Total ram usage:        6 bytes
 11924 ;; Hardware stack levels used:    1
 11925 ;; This function calls:
 11926 ;;		Nothing
 11927 ;; This function is called by:
 11928 ;;		_vfpfcnvrt
 11929 ;;		_atoi
 11930 ;;		_strtof
 11931 ;; This function uses a non-reentrant model
 11932 ;;
 11933                           
 11934                           	psect	text42
 11935  006138                     __ptext42:
 11936                           	opt callstack 0
 11937  006138                     _isdigit:
 11938                           	opt callstack 27
 11939  006138  0ED0               	movlw	208
 11940  00613A  6E03               	movwf	??_isdigit^0,c
 11941  00613C  0EFF               	movlw	255
 11942  00613E  6E04               	movwf	(??_isdigit+1)^0,c
 11943  006140  C001  F005         	movff	isdigit@c,??_isdigit+2
 11944  006144  C002  F006         	movff	isdigit@c+1,??_isdigit+3
 11945  006148  5003               	movf	??_isdigit^0,w,c
 11946  00614A  2605               	addwf	(??_isdigit+2)^0,f,c
 11947  00614C  5004               	movf	(??_isdigit+1)^0,w,c
 11948  00614E  2206               	addwfc	(??_isdigit+3)^0,f,c
 11949  006150  5006               	movf	(??_isdigit+3)^0,w,c
 11950  006152  E10A               	bnz	u5120
 11951  006154  0E0A               	movlw	10
 11952  006156  5C05               	subwf	(??_isdigit+2)^0,w,c
 11953  006158  A0D8               	btfss	status,0,c
 11954  00615A  EFB1  F030         	goto	u5121
 11955  00615E  EFB4  F030         	goto	u5120
 11956  006162                     u5121:
 11957  006162  0E01               	movlw	1
 11958  006164  EFB5  F030         	goto	u5130
 11959  006168                     u5120:
 11960  006168  0E00               	movlw	0
 11961  00616A                     u5130:
 11962  00616A  6E01               	movwf	?_isdigit^0,c
 11963  00616C  6A02               	clrf	(?_isdigit+1)^0,c
 11964  00616E  0012               	return		;funcret
 11965  006170                     __end_of_isdigit:
 11966                           	opt callstack 0
 11967                           
 11968 ;; *************** function ___xxtofl *****************
 11969 ;; Defined at:
 11970 ;;		line 10 in file "/opt/microchip/xc8/v2.10/pic/sources/c99/common/xxtofl.c"
 11971 ;; Parameters:    Size  Location     Type
 11972 ;;  sign            1    wreg     unsigned char 
 11973 ;;  val             4    0[COMRAM] long 
 11974 ;; Auto vars:     Size  Location     Type
 11975 ;;  sign            1    8[COMRAM] unsigned char 
 11976 ;;  arg             4   10[COMRAM] unsigned long 
 11977 ;;  exp             1    9[COMRAM] unsigned char 
 11978 ;; Return value:  Size  Location     Type
 11979 ;;                  4    0[COMRAM] unsigned char 
 11980 ;; Registers used:
 11981 ;;		wreg, status,2, status,0
 11982 ;; Tracked objects:
 11983 ;;		On entry : 0/0
 11984 ;;		On exit  : 0/0
 11985 ;;		Unchanged: 0/0
 11986 ;; Data sizes:     COMRAM   BANK0   BANK1   BANK2   BANK3   BANK4   BANK5   BANK6   BANK7
 11987 ;;      Params:         4       0       0       0       0       0       0       0       0
 11988 ;;      Locals:         6       0       0       0       0       0       0       0       0
 11989 ;;      Temps:          4       0       0       0       0       0       0       0       0
 11990 ;;      Totals:        14       0       0       0       0       0       0       0       0
 11991 ;;Total ram usage:       14 bytes
 11992 ;; Hardware stack levels used:    1
 11993 ;; This function calls:
 11994 ;;		Nothing
 11995 ;; This function is called by:
 11996 ;;		_dameTemperaturaLm35
 11997 ;;		_dameGrados
 11998 ;;		_strtof
 11999 ;; This function uses a non-reentrant model
 12000 ;;
 12001                           
 12002                           	psect	text43
 12003  0044CA                     __ptext43:
 12004                           	opt callstack 0
 12005  0044CA                     ___xxtofl:
 12006                           	opt callstack 29
 12007                           
 12008                           ;incstack = 0
 12009                           ;___xxtofl@sign stored from wreg
 12010  0044CA  6E09               	movwf	___xxtofl@sign^0,c
 12011  0044CC  5009               	movf	___xxtofl@sign^0,w,c
 12012  0044CE  B4D8               	btfsc	status,2,c
 12013  0044D0  EF6C  F022         	goto	u7141
 12014  0044D4  EF6E  F022         	goto	u7140
 12015  0044D8                     u7141:
 12016  0044D8  EF90  F022         	goto	l1085
 12017  0044DC                     u7140:
 12018  0044DC  BE04               	btfsc	(___xxtofl@val+3)^0,7,c
 12019  0044DE  EF75  F022         	goto	u7150
 12020  0044E2  EF73  F022         	goto	u7151
 12021  0044E6                     u7151:
 12022  0044E6  EF90  F022         	goto	l1085
 12023  0044EA                     u7150:
 12024  0044EA  C001  F005         	movff	___xxtofl@val,??___xxtofl
 12025  0044EE  C002  F006         	movff	___xxtofl@val+1,??___xxtofl+1
 12026  0044F2  C003  F007         	movff	___xxtofl@val+2,??___xxtofl+2
 12027  0044F6  C004  F008         	movff	___xxtofl@val+3,??___xxtofl+3
 12028  0044FA  1E05               	comf	??___xxtofl^0,f,c
 12029  0044FC  1E06               	comf	(??___xxtofl+1)^0,f,c
 12030  0044FE  1E07               	comf	(??___xxtofl+2)^0,f,c
 12031  004500  1E08               	comf	(??___xxtofl+3)^0,f,c
 12032  004502  2A05               	incf	??___xxtofl^0,f,c
 12033  004504  0E00               	movlw	0
 12034  004506  2206               	addwfc	(??___xxtofl+1)^0,f,c
 12035  004508  2207               	addwfc	(??___xxtofl+2)^0,f,c
 12036  00450A  2208               	addwfc	(??___xxtofl+3)^0,f,c
 12037  00450C  C005  F00B         	movff	??___xxtofl,___xxtofl@arg
 12038  004510  C006  F00C         	movff	??___xxtofl+1,___xxtofl@arg+1
 12039  004514  C007  F00D         	movff	??___xxtofl+2,___xxtofl@arg+2
 12040  004518  C008  F00E         	movff	??___xxtofl+3,___xxtofl@arg+3
 12041  00451C  EF98  F022         	goto	l5515
 12042  004520                     l1085:
 12043  004520  C001  F00B         	movff	___xxtofl@val,___xxtofl@arg
 12044  004524  C002  F00C         	movff	___xxtofl@val+1,___xxtofl@arg+1
 12045  004528  C003  F00D         	movff	___xxtofl@val+2,___xxtofl@arg+2
 12046  00452C  C004  F00E         	movff	___xxtofl@val+3,___xxtofl@arg+3
 12047  004530                     l5515:
 12048  004530  5001               	movf	___xxtofl@val^0,w,c
 12049  004532  1002               	iorwf	(___xxtofl@val+1)^0,w,c
 12050  004534  1003               	iorwf	(___xxtofl@val+2)^0,w,c
 12051  004536  1004               	iorwf	(___xxtofl@val+3)^0,w,c
 12052  004538  A4D8               	btfss	status,2,c
 12053  00453A  EFA1  F022         	goto	u7161
 12054  00453E  EFA3  F022         	goto	u7160
 12055  004542                     u7161:
 12056  004542  EFAD  F022         	goto	l5521
 12057  004546                     u7160:
 12058  004546  0E00               	movlw	0
 12059  004548  6E01               	movwf	?___xxtofl^0,c
 12060  00454A  0E00               	movlw	0
 12061  00454C  6E02               	movwf	(?___xxtofl+1)^0,c
 12062  00454E  0E00               	movlw	0
 12063  004550  6E03               	movwf	(?___xxtofl+2)^0,c
 12064  004552  0E00               	movlw	0
 12065  004554  6E04               	movwf	(?___xxtofl+3)^0,c
 12066  004556  EF3E  F023         	goto	l1088
 12067  00455A                     l5521:
 12068  00455A  0E96               	movlw	150
 12069  00455C  6E0A               	movwf	___xxtofl@exp^0,c
 12070  00455E  EFB7  F022         	goto	l5525
 12071  004562                     l5523:
 12072  004562  2A0A               	incf	___xxtofl@exp^0,f,c
 12073  004564  90D8               	bcf	status,0,c
 12074  004566  320E               	rrcf	(___xxtofl@arg+3)^0,f,c
 12075  004568  320D               	rrcf	(___xxtofl@arg+2)^0,f,c
 12076  00456A  320C               	rrcf	(___xxtofl@arg+1)^0,f,c
 12077  00456C  320B               	rrcf	___xxtofl@arg^0,f,c
 12078  00456E                     l5525:
 12079  00456E  0E00               	movlw	0
 12080  004570  140B               	andwf	___xxtofl@arg^0,w,c
 12081  004572  6E05               	movwf	??___xxtofl^0,c
 12082  004574  0E00               	movlw	0
 12083  004576  140C               	andwf	(___xxtofl@arg+1)^0,w,c
 12084  004578  6E06               	movwf	(??___xxtofl+1)^0,c
 12085  00457A  0E00               	movlw	0
 12086  00457C  140D               	andwf	(___xxtofl@arg+2)^0,w,c
 12087  00457E  6E07               	movwf	(??___xxtofl+2)^0,c
 12088  004580  0EFE               	movlw	254
 12089  004582  140E               	andwf	(___xxtofl@arg+3)^0,w,c
 12090  004584  6E08               	movwf	(??___xxtofl+3)^0,c
 12091  004586  5005               	movf	??___xxtofl^0,w,c
 12092  004588  1006               	iorwf	(??___xxtofl+1)^0,w,c
 12093  00458A  1007               	iorwf	(??___xxtofl+2)^0,w,c
 12094  00458C  1008               	iorwf	(??___xxtofl+3)^0,w,c
 12095  00458E  A4D8               	btfss	status,2,c
 12096  004590  EFCC  F022         	goto	u7171
 12097  004594  EFCE  F022         	goto	u7170
 12098  004598                     u7171:
 12099  004598  EFB1  F022         	goto	l5523
 12100  00459C                     u7170:
 12101  00459C  EFDC  F022         	goto	l1092
 12102  0045A0                     l5527:
 12103  0045A0  2A0A               	incf	___xxtofl@exp^0,f,c
 12104  0045A2  0E01               	movlw	1
 12105  0045A4  260B               	addwf	___xxtofl@arg^0,f,c
 12106  0045A6  0E00               	movlw	0
 12107  0045A8  220C               	addwfc	(___xxtofl@arg+1)^0,f,c
 12108  0045AA  220D               	addwfc	(___xxtofl@arg+2)^0,f,c
 12109  0045AC  220E               	addwfc	(___xxtofl@arg+3)^0,f,c
 12110  0045AE  90D8               	bcf	status,0,c
 12111  0045B0  320E               	rrcf	(___xxtofl@arg+3)^0,f,c
 12112  0045B2  320D               	rrcf	(___xxtofl@arg+2)^0,f,c
 12113  0045B4  320C               	rrcf	(___xxtofl@arg+1)^0,f,c
 12114  0045B6  320B               	rrcf	___xxtofl@arg^0,f,c
 12115  0045B8                     l1092:
 12116  0045B8  0E00               	movlw	0
 12117  0045BA  140B               	andwf	___xxtofl@arg^0,w,c
 12118  0045BC  6E05               	movwf	??___xxtofl^0,c
 12119  0045BE  0E00               	movlw	0
 12120  0045C0  140C               	andwf	(___xxtofl@arg+1)^0,w,c
 12121  0045C2  6E06               	movwf	(??___xxtofl+1)^0,c
 12122  0045C4  0E00               	movlw	0
 12123  0045C6  140D               	andwf	(___xxtofl@arg+2)^0,w,c
 12124  0045C8  6E07               	movwf	(??___xxtofl+2)^0,c
 12125  0045CA  0EFF               	movlw	255
 12126  0045CC  140E               	andwf	(___xxtofl@arg+3)^0,w,c
 12127  0045CE  6E08               	movwf	(??___xxtofl+3)^0,c
 12128  0045D0  5005               	movf	??___xxtofl^0,w,c
 12129  0045D2  1006               	iorwf	(??___xxtofl+1)^0,w,c
 12130  0045D4  1007               	iorwf	(??___xxtofl+2)^0,w,c
 12131  0045D6  1008               	iorwf	(??___xxtofl+3)^0,w,c
 12132  0045D8  A4D8               	btfss	status,2,c
 12133  0045DA  EFF1  F022         	goto	u7181
 12134  0045DE  EFF3  F022         	goto	u7180
 12135  0045E2                     u7181:
 12136  0045E2  EFD0  F022         	goto	l5527
 12137  0045E6                     u7180:
 12138  0045E6  EFFB  F022         	goto	l5535
 12139  0045EA                     l5533:
 12140  0045EA  060A               	decf	___xxtofl@exp^0,f,c
 12141  0045EC  90D8               	bcf	status,0,c
 12142  0045EE  360B               	rlcf	___xxtofl@arg^0,f,c
 12143  0045F0  360C               	rlcf	(___xxtofl@arg+1)^0,f,c
 12144  0045F2  360D               	rlcf	(___xxtofl@arg+2)^0,f,c
 12145  0045F4  360E               	rlcf	(___xxtofl@arg+3)^0,f,c
 12146  0045F6                     l5535:
 12147  0045F6  BE0D               	btfsc	(___xxtofl@arg+2)^0,7,c
 12148  0045F8  EF00  F023         	goto	u7191
 12149  0045FC  EF02  F023         	goto	u7190
 12150  004600                     u7191:
 12151  004600  EF0A  F023         	goto	l1099
 12152  004604                     u7190:
 12153  004604  0E02               	movlw	2
 12154  004606  600A               	cpfslt	___xxtofl@exp^0,c
 12155  004608  EF08  F023         	goto	u7201
 12156  00460C  EF0A  F023         	goto	u7200
 12157  004610                     u7201:
 12158  004610  EFF5  F022         	goto	l5533
 12159  004614                     u7200:
 12160  004614                     l1099:
 12161  004614  B00A               	btfsc	___xxtofl@exp^0,0,c
 12162  004616  EF0F  F023         	goto	u7211
 12163  00461A  EF11  F023         	goto	u7210
 12164  00461E                     u7211:
 12165  00461E  EF12  F023         	goto	l5541
 12166  004622                     u7210:
 12167  004622  9E0D               	bcf	(___xxtofl@arg+2)^0,7,c
 12168  004624                     l5541:
 12169  004624  90D8               	bcf	status,0,c
 12170  004626  320A               	rrcf	___xxtofl@exp^0,f,c
 12171  004628  C00A  F005         	movff	___xxtofl@exp,??___xxtofl
 12172  00462C  6A06               	clrf	(??___xxtofl+1)^0,c
 12173  00462E  6A07               	clrf	(??___xxtofl+2)^0,c
 12174  004630  6A08               	clrf	(??___xxtofl+3)^0,c
 12175  004632  C005  F008         	movff	??___xxtofl,??___xxtofl+3
 12176  004636  6A07               	clrf	(??___xxtofl+2)^0,c
 12177  004638  6A06               	clrf	(??___xxtofl+1)^0,c
 12178  00463A  6A05               	clrf	??___xxtofl^0,c
 12179  00463C  5005               	movf	??___xxtofl^0,w,c
 12180  00463E  120B               	iorwf	___xxtofl@arg^0,f,c
 12181  004640  5006               	movf	(??___xxtofl+1)^0,w,c
 12182  004642  120C               	iorwf	(___xxtofl@arg+1)^0,f,c
 12183  004644  5007               	movf	(??___xxtofl+2)^0,w,c
 12184  004646  120D               	iorwf	(___xxtofl@arg+2)^0,f,c
 12185  004648  5008               	movf	(??___xxtofl+3)^0,w,c
 12186  00464A  120E               	iorwf	(___xxtofl@arg+3)^0,f,c
 12187  00464C  5009               	movf	___xxtofl@sign^0,w,c
 12188  00464E  B4D8               	btfsc	status,2,c
 12189  004650  EF2C  F023         	goto	u7221
 12190  004654  EF2E  F023         	goto	u7220
 12191  004658                     u7221:
 12192  004658  EF36  F023         	goto	l5551
 12193  00465C                     u7220:
 12194  00465C  BE04               	btfsc	(___xxtofl@val+3)^0,7,c
 12195  00465E  EF35  F023         	goto	u7230
 12196  004662  EF33  F023         	goto	u7231
 12197  004666                     u7231:
 12198  004666  EF36  F023         	goto	l5551
 12199  00466A                     u7230:
 12200  00466A  8E0E               	bsf	(___xxtofl@arg+3)^0,7,c
 12201  00466C                     l5551:
 12202  00466C  C00B  F001         	movff	___xxtofl@arg,?___xxtofl
 12203  004670  C00C  F002         	movff	___xxtofl@arg+1,?___xxtofl+1
 12204  004674  C00D  F003         	movff	___xxtofl@arg+2,?___xxtofl+2
 12205  004678  C00E  F004         	movff	___xxtofl@arg+3,?___xxtofl+3
 12206  00467C                     l1088:
 12207  00467C  0012               	return		;funcret
 12208  00467E                     __end_of___xxtofl:
 12209                           	opt callstack 0
 12210                           
 12211 ;; *************** function ___wmul *****************
 12212 ;; Defined at:
 12213 ;;		line 15 in file "/opt/microchip/xc8/v2.10/pic/sources/c99/common/Umul16.c"
 12214 ;; Parameters:    Size  Location     Type
 12215 ;;  multiplier      2    0[COMRAM] unsigned int 
 12216 ;;  multiplicand    2    2[COMRAM] unsigned int 
 12217 ;; Auto vars:     Size  Location     Type
 12218 ;;  product         2    4[COMRAM] unsigned int 
 12219 ;; Return value:  Size  Location     Type
 12220 ;;                  2    0[COMRAM] unsigned int 
 12221 ;; Registers used:
 12222 ;;		wreg, status,2, status,0, prodl, prodh
 12223 ;; Tracked objects:
 12224 ;;		On entry : 0/0
 12225 ;;		On exit  : 0/0
 12226 ;;		Unchanged: 0/0
 12227 ;; Data sizes:     COMRAM   BANK0   BANK1   BANK2   BANK3   BANK4   BANK5   BANK6   BANK7
 12228 ;;      Params:         4       0       0       0       0       0       0       0       0
 12229 ;;      Locals:         2       0       0       0       0       0       0       0       0
 12230 ;;      Temps:          0       0       0       0       0       0       0       0       0
 12231 ;;      Totals:         6       0       0       0       0       0       0       0       0
 12232 ;;Total ram usage:        6 bytes
 12233 ;; Hardware stack levels used:    1
 12234 ;; This function calls:
 12235 ;;		Nothing
 12236 ;; This function is called by:
 12237 ;;		_dameHora
 12238 ;;		_main
 12239 ;;		_atoi
 12240 ;;		_strtof
 12241 ;; This function uses a non-reentrant model
 12242 ;;
 12243                           
 12244                           	psect	text44
 12245  006234                     __ptext44:
 12246                           	opt callstack 0
 12247  006234                     ___wmul:
 12248                           	opt callstack 26
 12249  006234  5001               	movf	___wmul@multiplier^0,w,c
 12250  006236  0203               	mulwf	___wmul@multiplicand^0,c
 12251  006238  CFF3 F005          	movff	prodl,___wmul@product
 12252  00623C  CFF4 F006          	movff	prodh,___wmul@product+1
 12253  006240  5001               	movf	___wmul@multiplier^0,w,c
 12254  006242  0204               	mulwf	(___wmul@multiplicand+1)^0,c
 12255  006244  50F3               	movf	243,w,c
 12256  006246  2606               	addwf	(___wmul@product+1)^0,f,c
 12257  006248  5002               	movf	(___wmul@multiplier+1)^0,w,c
 12258  00624A  0203               	mulwf	___wmul@multiplicand^0,c
 12259  00624C  50F3               	movf	243,w,c
 12260  00624E  2606               	addwf	(___wmul@product+1)^0,f,c
 12261  006250  C005  F001         	movff	___wmul@product,?___wmul
 12262  006254  C006  F002         	movff	___wmul@product+1,?___wmul+1
 12263  006258  0012               	return		;funcret
 12264  00625A                     __end_of___wmul:
 12265                           	opt callstack 0
 12266                           
 12267 ;; *************** function ___lmul *****************
 12268 ;; Defined at:
 12269 ;;		line 15 in file "/opt/microchip/xc8/v2.10/pic/sources/c99/common/Umul32.c"
 12270 ;; Parameters:    Size  Location     Type
 12271 ;;  multiplier      4    0[COMRAM] unsigned long 
 12272 ;;  multiplicand    4    4[COMRAM] unsigned long 
 12273 ;; Auto vars:     Size  Location     Type
 12274 ;;  product         4    8[COMRAM] unsigned long 
 12275 ;; Return value:  Size  Location     Type
 12276 ;;                  4    0[COMRAM] unsigned long 
 12277 ;; Registers used:
 12278 ;;		wreg, status,2, status,0
 12279 ;; Tracked objects:
 12280 ;;		On entry : 0/0
 12281 ;;		On exit  : 0/0
 12282 ;;		Unchanged: 0/0
 12283 ;; Data sizes:     COMRAM   BANK0   BANK1   BANK2   BANK3   BANK4   BANK5   BANK6   BANK7
 12284 ;;      Params:         8       0       0       0       0       0       0       0       0
 12285 ;;      Locals:         4       0       0       0       0       0       0       0       0
 12286 ;;      Temps:          0       0       0       0       0       0       0       0       0
 12287 ;;      Totals:        12       0       0       0       0       0       0       0       0
 12288 ;;Total ram usage:       12 bytes
 12289 ;; Hardware stack levels used:    1
 12290 ;; This function calls:
 12291 ;;		Nothing
 12292 ;; This function is called by:
 12293 ;;		_strtof
 12294 ;; This function uses a non-reentrant model
 12295 ;;
 12296                           
 12297                           	psect	text45
 12298  005BD0                     __ptext45:
 12299                           	opt callstack 0
 12300  005BD0                     ___lmul:
 12301                           	opt callstack 27
 12302  005BD0  0E00               	movlw	0
 12303  005BD2  6E09               	movwf	___lmul@product^0,c
 12304  005BD4  0E00               	movlw	0
 12305  005BD6  6E0A               	movwf	(___lmul@product+1)^0,c
 12306  005BD8  0E00               	movlw	0
 12307  005BDA  6E0B               	movwf	(___lmul@product+2)^0,c
 12308  005BDC  0E00               	movlw	0
 12309  005BDE  6E0C               	movwf	(___lmul@product+3)^0,c
 12310  005BE0                     l5501:
 12311  005BE0  A001               	btfss	___lmul@multiplier^0,0,c
 12312  005BE2  EFF5  F02D         	goto	u7121
 12313  005BE6  EFF7  F02D         	goto	u7120
 12314  005BEA                     u7121:
 12315  005BEA  EFFF  F02D         	goto	l5505
 12316  005BEE                     u7120:
 12317  005BEE  5005               	movf	___lmul@multiplicand^0,w,c
 12318  005BF0  2609               	addwf	___lmul@product^0,f,c
 12319  005BF2  5006               	movf	(___lmul@multiplicand+1)^0,w,c
 12320  005BF4  220A               	addwfc	(___lmul@product+1)^0,f,c
 12321  005BF6  5007               	movf	(___lmul@multiplicand+2)^0,w,c
 12322  005BF8  220B               	addwfc	(___lmul@product+2)^0,f,c
 12323  005BFA  5008               	movf	(___lmul@multiplicand+3)^0,w,c
 12324  005BFC  220C               	addwfc	(___lmul@product+3)^0,f,c
 12325  005BFE                     l5505:
 12326  005BFE  90D8               	bcf	status,0,c
 12327  005C00  3605               	rlcf	___lmul@multiplicand^0,f,c
 12328  005C02  3606               	rlcf	(___lmul@multiplicand+1)^0,f,c
 12329  005C04  3607               	rlcf	(___lmul@multiplicand+2)^0,f,c
 12330  005C06  3608               	rlcf	(___lmul@multiplicand+3)^0,f,c
 12331  005C08  90D8               	bcf	status,0,c
 12332  005C0A  3204               	rrcf	(___lmul@multiplier+3)^0,f,c
 12333  005C0C  3203               	rrcf	(___lmul@multiplier+2)^0,f,c
 12334  005C0E  3202               	rrcf	(___lmul@multiplier+1)^0,f,c
 12335  005C10  3201               	rrcf	___lmul@multiplier^0,f,c
 12336  005C12  5001               	movf	___lmul@multiplier^0,w,c
 12337  005C14  1002               	iorwf	(___lmul@multiplier+1)^0,w,c
 12338  005C16  1003               	iorwf	(___lmul@multiplier+2)^0,w,c
 12339  005C18  1004               	iorwf	(___lmul@multiplier+3)^0,w,c
 12340  005C1A  A4D8               	btfss	status,2,c
 12341  005C1C  EF12  F02E         	goto	u7131
 12342  005C20  EF14  F02E         	goto	u7130
 12343  005C24                     u7131:
 12344  005C24  EFF0  F02D         	goto	l5501
 12345  005C28                     u7130:
 12346  005C28  C009  F001         	movff	___lmul@product,?___lmul
 12347  005C2C  C00A  F002         	movff	___lmul@product+1,?___lmul+1
 12348  005C30  C00B  F003         	movff	___lmul@product+2,?___lmul+2
 12349  005C34  C00C  F004         	movff	___lmul@product+3,?___lmul+3
 12350  005C38  0012               	return		;funcret
 12351  005C3A                     __end_of___lmul:
 12352                           	opt callstack 0
 12353                           
 12354 ;; *************** function ___flneg *****************
 12355 ;; Defined at:
 12356 ;;		line 15 in file "/opt/microchip/xc8/v2.10/pic/sources/c99/common/flneg.c"
 12357 ;; Parameters:    Size  Location     Type
 12358 ;;  f1              4    0[COMRAM] unsigned long 
 12359 ;; Auto vars:     Size  Location     Type
 12360 ;;		None
 12361 ;; Return value:  Size  Location     Type
 12362 ;;                  4    0[COMRAM] unsigned long 
 12363 ;; Registers used:
 12364 ;;		wreg, status,2, status,0
 12365 ;; Tracked objects:
 12366 ;;		On entry : 0/0
 12367 ;;		On exit  : 0/0
 12368 ;;		Unchanged: 0/0
 12369 ;; Data sizes:     COMRAM   BANK0   BANK1   BANK2   BANK3   BANK4   BANK5   BANK6   BANK7
 12370 ;;      Params:         4       0       0       0       0       0       0       0       0
 12371 ;;      Locals:         0       0       0       0       0       0       0       0       0
 12372 ;;      Temps:          0       0       0       0       0       0       0       0       0
 12373 ;;      Totals:         4       0       0       0       0       0       0       0       0
 12374 ;;Total ram usage:        4 bytes
 12375 ;; Hardware stack levels used:    1
 12376 ;; This function calls:
 12377 ;;		Nothing
 12378 ;; This function is called by:
 12379 ;;		_efgtoa
 12380 ;;		_strtof
 12381 ;; This function uses a non-reentrant model
 12382 ;;
 12383                           
 12384                           	psect	text46
 12385  006170                     __ptext46:
 12386                           	opt callstack 0
 12387  006170                     ___flneg:
 12388                           	opt callstack 26
 12389  006170  5001               	movf	___flneg@f1^0,w,c
 12390  006172  1002               	iorwf	(___flneg@f1+1)^0,w,c
 12391  006174  1003               	iorwf	(___flneg@f1+2)^0,w,c
 12392  006176  1004               	iorwf	(___flneg@f1+3)^0,w,c
 12393  006178  B4D8               	btfsc	status,2,c
 12394  00617A  EFC1  F030         	goto	u5891
 12395  00617E  EFC3  F030         	goto	u5890
 12396  006182                     u5891:
 12397  006182  EFCB  F030         	goto	l4825
 12398  006186                     u5890:
 12399  006186  0E00               	movlw	0
 12400  006188  1A01               	xorwf	___flneg@f1^0,f,c
 12401  00618A  0E00               	movlw	0
 12402  00618C  1A02               	xorwf	(___flneg@f1+1)^0,f,c
 12403  00618E  0E00               	movlw	0
 12404  006190  1A03               	xorwf	(___flneg@f1+2)^0,f,c
 12405  006192  0E80               	movlw	128
 12406  006194  1A04               	xorwf	(___flneg@f1+3)^0,f,c
 12407  006196                     l4825:
 12408  006196  C001  F001         	movff	___flneg@f1,?___flneg
 12409  00619A  C002  F002         	movff	___flneg@f1+1,?___flneg+1
 12410  00619E  C003  F003         	movff	___flneg@f1+2,?___flneg+2
 12411  0061A2  C004  F004         	movff	___flneg@f1+3,?___flneg+3
 12412  0061A6  0012               	return		;funcret
 12413  0061A8                     __end_of___flneg:
 12414                           	opt callstack 0
 12415                           
 12416 ;; *************** function ___flmul *****************
 12417 ;; Defined at:
 12418 ;;		line 8 in file "/opt/microchip/xc8/v2.10/pic/sources/c99/common/sprcmul.c"
 12419 ;; Parameters:    Size  Location     Type
 12420 ;;  b               4    0[COMRAM] unsigned long 
 12421 ;;  a               4    4[COMRAM] unsigned long 
 12422 ;; Auto vars:     Size  Location     Type
 12423 ;;  prod            4   19[COMRAM] struct .
 12424 ;;  grs             4   13[COMRAM] unsigned long 
 12425 ;;  temp            2   23[COMRAM] struct .
 12426 ;;  bexp            1   18[COMRAM] unsigned char 
 12427 ;;  aexp            1   17[COMRAM] unsigned char 
 12428 ;;  sign            1   12[COMRAM] unsigned char 
 12429 ;; Return value:  Size  Location     Type
 12430 ;;                  4    0[COMRAM] unsigned char 
 12431 ;; Registers used:
 12432 ;;		wreg, status,2, status,0, prodl, prodh
 12433 ;; Tracked objects:
 12434 ;;		On entry : 0/0
 12435 ;;		On exit  : 0/0
 12436 ;;		Unchanged: 0/0
 12437 ;; Data sizes:     COMRAM   BANK0   BANK1   BANK2   BANK3   BANK4   BANK5   BANK6   BANK7
 12438 ;;      Params:         8       0       0       0       0       0       0       0       0
 12439 ;;      Locals:        13       0       0       0       0       0       0       0       0
 12440 ;;      Temps:          4       0       0       0       0       0       0       0       0
 12441 ;;      Totals:        25       0       0       0       0       0       0       0       0
 12442 ;;Total ram usage:       25 bytes
 12443 ;; Hardware stack levels used:    1
 12444 ;; This function calls:
 12445 ;;		Nothing
 12446 ;; This function is called by:
 12447 ;;		_dameTemperaturaLm35
 12448 ;;		_dameGrados
 12449 ;;		_main
 12450 ;;		_efgtoa
 12451 ;;		_strtof
 12452 ;; This function uses a non-reentrant model
 12453 ;;
 12454                           
 12455                           	psect	text47
 12456  003530                     __ptext47:
 12457                           	opt callstack 0
 12458  003530                     ___flmul:
 12459                           	opt callstack 26
 12460  003530  5004               	movf	(___flmul@b+3)^0,w,c
 12461  003532  0B80               	andlw	128
 12462  003534  6E0D               	movwf	___flmul@sign^0,c
 12463  003536  5004               	movf	(___flmul@b+3)^0,w,c
 12464  003538  2404               	addwf	(___flmul@b+3)^0,w,c
 12465  00353A  6E13               	movwf	___flmul@bexp^0,c
 12466  00353C  AE03               	btfss	(___flmul@b+2)^0,7,c
 12467  00353E  EFA3  F01A         	goto	u5501
 12468  003542  EFA5  F01A         	goto	u5500
 12469  003546                     u5501:
 12470  003546  EFA6  F01A         	goto	l4573
 12471  00354A                     u5500:
 12472  00354A  8013               	bsf	___flmul@bexp^0,0,c
 12473  00354C                     l4573:
 12474  00354C  5013               	movf	___flmul@bexp^0,w,c
 12475  00354E  B4D8               	btfsc	status,2,c
 12476  003550  EFAC  F01A         	goto	u5511
 12477  003554  EFAE  F01A         	goto	u5510
 12478  003558                     u5511:
 12479  003558  EFC1  F01A         	goto	l4581
 12480  00355C                     u5510:
 12481  00355C  2813               	incf	___flmul@bexp^0,w,c
 12482  00355E  A4D8               	btfss	status,2,c
 12483  003560  EFB4  F01A         	goto	u5521
 12484  003564  EFB6  F01A         	goto	u5520
 12485  003568                     u5521:
 12486  003568  EFBE  F01A         	goto	l4579
 12487  00356C                     u5520:
 12488  00356C  0E00               	movlw	0
 12489  00356E  6E01               	movwf	___flmul@b^0,c
 12490  003570  0E00               	movlw	0
 12491  003572  6E02               	movwf	(___flmul@b+1)^0,c
 12492  003574  0E00               	movlw	0
 12493  003576  6E03               	movwf	(___flmul@b+2)^0,c
 12494  003578  0E00               	movlw	0
 12495  00357A  6E04               	movwf	(___flmul@b+3)^0,c
 12496  00357C                     l4579:
 12497  00357C  8E03               	bsf	(___flmul@b+2)^0,7,c
 12498  00357E  EFC9  F01A         	goto	l4583
 12499  003582                     l4581:
 12500  003582  0E00               	movlw	0
 12501  003584  6E01               	movwf	___flmul@b^0,c
 12502  003586  0E00               	movlw	0
 12503  003588  6E02               	movwf	(___flmul@b+1)^0,c
 12504  00358A  0E00               	movlw	0
 12505  00358C  6E03               	movwf	(___flmul@b+2)^0,c
 12506  00358E  0E00               	movlw	0
 12507  003590  6E04               	movwf	(___flmul@b+3)^0,c
 12508  003592                     l4583:
 12509  003592  5008               	movf	(___flmul@a+3)^0,w,c
 12510  003594  0B80               	andlw	128
 12511  003596  1A0D               	xorwf	___flmul@sign^0,f,c
 12512  003598  5008               	movf	(___flmul@a+3)^0,w,c
 12513  00359A  2408               	addwf	(___flmul@a+3)^0,w,c
 12514  00359C  6E12               	movwf	___flmul@aexp^0,c
 12515  00359E  AE07               	btfss	(___flmul@a+2)^0,7,c
 12516  0035A0  EFD4  F01A         	goto	u5531
 12517  0035A4  EFD6  F01A         	goto	u5530
 12518  0035A8                     u5531:
 12519  0035A8  EFD7  F01A         	goto	l4591
 12520  0035AC                     u5530:
 12521  0035AC  8012               	bsf	___flmul@aexp^0,0,c
 12522  0035AE                     l4591:
 12523  0035AE  5012               	movf	___flmul@aexp^0,w,c
 12524  0035B0  B4D8               	btfsc	status,2,c
 12525  0035B2  EFDD  F01A         	goto	u5541
 12526  0035B6  EFDF  F01A         	goto	u5540
 12527  0035BA                     u5541:
 12528  0035BA  EFF2  F01A         	goto	l4599
 12529  0035BE                     u5540:
 12530  0035BE  2812               	incf	___flmul@aexp^0,w,c
 12531  0035C0  A4D8               	btfss	status,2,c
 12532  0035C2  EFE5  F01A         	goto	u5551
 12533  0035C6  EFE7  F01A         	goto	u5550
 12534  0035CA                     u5551:
 12535  0035CA  EFEF  F01A         	goto	l4597
 12536  0035CE                     u5550:
 12537  0035CE  0E00               	movlw	0
 12538  0035D0  6E05               	movwf	___flmul@a^0,c
 12539  0035D2  0E00               	movlw	0
 12540  0035D4  6E06               	movwf	(___flmul@a+1)^0,c
 12541  0035D6  0E00               	movlw	0
 12542  0035D8  6E07               	movwf	(___flmul@a+2)^0,c
 12543  0035DA  0E00               	movlw	0
 12544  0035DC  6E08               	movwf	(___flmul@a+3)^0,c
 12545  0035DE                     l4597:
 12546  0035DE  8E07               	bsf	(___flmul@a+2)^0,7,c
 12547  0035E0  EFFA  F01A         	goto	l1044
 12548  0035E4                     l4599:
 12549  0035E4  0E00               	movlw	0
 12550  0035E6  6E05               	movwf	___flmul@a^0,c
 12551  0035E8  0E00               	movlw	0
 12552  0035EA  6E06               	movwf	(___flmul@a+1)^0,c
 12553  0035EC  0E00               	movlw	0
 12554  0035EE  6E07               	movwf	(___flmul@a+2)^0,c
 12555  0035F0  0E00               	movlw	0
 12556  0035F2  6E08               	movwf	(___flmul@a+3)^0,c
 12557  0035F4                     l1044:
 12558  0035F4  5012               	movf	___flmul@aexp^0,w,c
 12559  0035F6  B4D8               	btfsc	status,2,c
 12560  0035F8  EF00  F01B         	goto	u5561
 12561  0035FC  EF02  F01B         	goto	u5560
 12562  003600                     u5561:
 12563  003600  EF0A  F01B         	goto	l4603
 12564  003604                     u5560:
 12565  003604  5013               	movf	___flmul@bexp^0,w,c
 12566  003606  A4D8               	btfss	status,2,c
 12567  003608  EF08  F01B         	goto	u5571
 12568  00360C  EF0A  F01B         	goto	u5570
 12569  003610                     u5571:
 12570  003610  EF14  F01B         	goto	l4607
 12571  003614                     u5570:
 12572  003614                     l4603:
 12573  003614  0E00               	movlw	0
 12574  003616  6E01               	movwf	?___flmul^0,c
 12575  003618  0E00               	movlw	0
 12576  00361A  6E02               	movwf	(?___flmul+1)^0,c
 12577  00361C  0E00               	movlw	0
 12578  00361E  6E03               	movwf	(?___flmul+2)^0,c
 12579  003620  0E00               	movlw	0
 12580  003622  6E04               	movwf	(?___flmul+3)^0,c
 12581  003624  EFAC  F01C         	goto	l1048
 12582  003628                     l4607:
 12583  003628  5007               	movf	(___flmul@a+2)^0,w,c
 12584  00362A  0201               	mulwf	___flmul@b^0,c
 12585  00362C  CFF3 F018          	movff	prodl,___flmul@temp
 12586  003630  CFF4 F019          	movff	prodh,___flmul@temp+1
 12587  003634  5018               	movf	___flmul@temp^0,w,c
 12588  003636  6E0E               	movwf	___flmul@grs^0,c
 12589  003638  6A0F               	clrf	(___flmul@grs+1)^0,c
 12590  00363A  6A10               	clrf	(___flmul@grs+2)^0,c
 12591  00363C  6A11               	clrf	(___flmul@grs+3)^0,c
 12592  00363E  5019               	movf	(___flmul@temp+1)^0,w,c
 12593  003640  6E14               	movwf	___flmul@prod^0,c
 12594  003642  6A15               	clrf	(___flmul@prod+1)^0,c
 12595  003644  6A16               	clrf	(___flmul@prod+2)^0,c
 12596  003646  6A17               	clrf	(___flmul@prod+3)^0,c
 12597  003648  5006               	movf	(___flmul@a+1)^0,w,c
 12598  00364A  0202               	mulwf	(___flmul@b+1)^0,c
 12599  00364C  CFF3 F018          	movff	prodl,___flmul@temp
 12600  003650  CFF4 F019          	movff	prodh,___flmul@temp+1
 12601  003654  5018               	movf	___flmul@temp^0,w,c
 12602  003656  260E               	addwf	___flmul@grs^0,f,c
 12603  003658  0E00               	movlw	0
 12604  00365A  220F               	addwfc	(___flmul@grs+1)^0,f,c
 12605  00365C  2210               	addwfc	(___flmul@grs+2)^0,f,c
 12606  00365E  2211               	addwfc	(___flmul@grs+3)^0,f,c
 12607  003660  5019               	movf	(___flmul@temp+1)^0,w,c
 12608  003662  2614               	addwf	___flmul@prod^0,f,c
 12609  003664  0E00               	movlw	0
 12610  003666  2215               	addwfc	(___flmul@prod+1)^0,f,c
 12611  003668  2216               	addwfc	(___flmul@prod+2)^0,f,c
 12612  00366A  2217               	addwfc	(___flmul@prod+3)^0,f,c
 12613  00366C  5005               	movf	___flmul@a^0,w,c
 12614  00366E  0203               	mulwf	(___flmul@b+2)^0,c
 12615  003670  CFF3 F018          	movff	prodl,___flmul@temp
 12616  003674  CFF4 F019          	movff	prodh,___flmul@temp+1
 12617  003678  5018               	movf	___flmul@temp^0,w,c
 12618  00367A  260E               	addwf	___flmul@grs^0,f,c
 12619  00367C  0E00               	movlw	0
 12620  00367E  220F               	addwfc	(___flmul@grs+1)^0,f,c
 12621  003680  2210               	addwfc	(___flmul@grs+2)^0,f,c
 12622  003682  2211               	addwfc	(___flmul@grs+3)^0,f,c
 12623  003684  5019               	movf	(___flmul@temp+1)^0,w,c
 12624  003686  2614               	addwf	___flmul@prod^0,f,c
 12625  003688  0E00               	movlw	0
 12626  00368A  2215               	addwfc	(___flmul@prod+1)^0,f,c
 12627  00368C  2216               	addwfc	(___flmul@prod+2)^0,f,c
 12628  00368E  2217               	addwfc	(___flmul@prod+3)^0,f,c
 12629  003690  C010  F011         	movff	___flmul@grs+2,___flmul@grs+3
 12630  003694  C00F  F010         	movff	___flmul@grs+1,___flmul@grs+2
 12631  003698  C00E  F00F         	movff	___flmul@grs,___flmul@grs+1
 12632  00369C  6A0E               	clrf	___flmul@grs^0,c
 12633  00369E  5005               	movf	___flmul@a^0,w,c
 12634  0036A0  0202               	mulwf	(___flmul@b+1)^0,c
 12635  0036A2  CFF3 F018          	movff	prodl,___flmul@temp
 12636  0036A6  CFF4 F019          	movff	prodh,___flmul@temp+1
 12637  0036AA  5018               	movf	___flmul@temp^0,w,c
 12638  0036AC  260E               	addwf	___flmul@grs^0,f,c
 12639  0036AE  5019               	movf	(___flmul@temp+1)^0,w,c
 12640  0036B0  220F               	addwfc	(___flmul@grs+1)^0,f,c
 12641  0036B2  0E00               	movlw	0
 12642  0036B4  2210               	addwfc	(___flmul@grs+2)^0,f,c
 12643  0036B6  0E00               	movlw	0
 12644  0036B8  2211               	addwfc	(___flmul@grs+3)^0,f,c
 12645  0036BA  5006               	movf	(___flmul@a+1)^0,w,c
 12646  0036BC  0201               	mulwf	___flmul@b^0,c
 12647  0036BE  CFF3 F018          	movff	prodl,___flmul@temp
 12648  0036C2  CFF4 F019          	movff	prodh,___flmul@temp+1
 12649  0036C6  5018               	movf	___flmul@temp^0,w,c
 12650  0036C8  260E               	addwf	___flmul@grs^0,f,c
 12651  0036CA  5019               	movf	(___flmul@temp+1)^0,w,c
 12652  0036CC  220F               	addwfc	(___flmul@grs+1)^0,f,c
 12653  0036CE  0E00               	movlw	0
 12654  0036D0  2210               	addwfc	(___flmul@grs+2)^0,f,c
 12655  0036D2  0E00               	movlw	0
 12656  0036D4  2211               	addwfc	(___flmul@grs+3)^0,f,c
 12657  0036D6  C010  F011         	movff	___flmul@grs+2,___flmul@grs+3
 12658  0036DA  C00F  F010         	movff	___flmul@grs+1,___flmul@grs+2
 12659  0036DE  C00E  F00F         	movff	___flmul@grs,___flmul@grs+1
 12660  0036E2  6A0E               	clrf	___flmul@grs^0,c
 12661  0036E4  5005               	movf	___flmul@a^0,w,c
 12662  0036E6  0201               	mulwf	___flmul@b^0,c
 12663  0036E8  CFF3 F018          	movff	prodl,___flmul@temp
 12664  0036EC  CFF4 F019          	movff	prodh,___flmul@temp+1
 12665  0036F0  5018               	movf	___flmul@temp^0,w,c
 12666  0036F2  260E               	addwf	___flmul@grs^0,f,c
 12667  0036F4  5019               	movf	(___flmul@temp+1)^0,w,c
 12668  0036F6  220F               	addwfc	(___flmul@grs+1)^0,f,c
 12669  0036F8  0E00               	movlw	0
 12670  0036FA  2210               	addwfc	(___flmul@grs+2)^0,f,c
 12671  0036FC  0E00               	movlw	0
 12672  0036FE  2211               	addwfc	(___flmul@grs+3)^0,f,c
 12673  003700  5007               	movf	(___flmul@a+2)^0,w,c
 12674  003702  0202               	mulwf	(___flmul@b+1)^0,c
 12675  003704  CFF3 F018          	movff	prodl,___flmul@temp
 12676  003708  CFF4 F019          	movff	prodh,___flmul@temp+1
 12677  00370C  5018               	movf	___flmul@temp^0,w,c
 12678  00370E  2614               	addwf	___flmul@prod^0,f,c
 12679  003710  5019               	movf	(___flmul@temp+1)^0,w,c
 12680  003712  2215               	addwfc	(___flmul@prod+1)^0,f,c
 12681  003714  0E00               	movlw	0
 12682  003716  2216               	addwfc	(___flmul@prod+2)^0,f,c
 12683  003718  0E00               	movlw	0
 12684  00371A  2217               	addwfc	(___flmul@prod+3)^0,f,c
 12685  00371C  5006               	movf	(___flmul@a+1)^0,w,c
 12686  00371E  0203               	mulwf	(___flmul@b+2)^0,c
 12687  003720  CFF3 F018          	movff	prodl,___flmul@temp
 12688  003724  CFF4 F019          	movff	prodh,___flmul@temp+1
 12689  003728  5018               	movf	___flmul@temp^0,w,c
 12690  00372A  2614               	addwf	___flmul@prod^0,f,c
 12691  00372C  5019               	movf	(___flmul@temp+1)^0,w,c
 12692  00372E  2215               	addwfc	(___flmul@prod+1)^0,f,c
 12693  003730  0E00               	movlw	0
 12694  003732  2216               	addwfc	(___flmul@prod+2)^0,f,c
 12695  003734  0E00               	movlw	0
 12696  003736  2217               	addwfc	(___flmul@prod+3)^0,f,c
 12697  003738  5007               	movf	(___flmul@a+2)^0,w,c
 12698  00373A  0203               	mulwf	(___flmul@b+2)^0,c
 12699  00373C  CFF3 F018          	movff	prodl,___flmul@temp
 12700  003740  CFF4 F019          	movff	prodh,___flmul@temp+1
 12701  003744  5018               	movf	___flmul@temp^0,w,c
 12702  003746  6E09               	movwf	??___flmul^0,c
 12703  003748  5019               	movf	(___flmul@temp+1)^0,w,c
 12704  00374A  6E0A               	movwf	(??___flmul+1)^0,c
 12705  00374C  6A0B               	clrf	(??___flmul+2)^0,c
 12706  00374E  6A0C               	clrf	(??___flmul+3)^0,c
 12707  003750  C00B  F00C         	movff	??___flmul+2,??___flmul+3
 12708  003754  C00A  F00B         	movff	??___flmul+1,??___flmul+2
 12709  003758  C009  F00A         	movff	??___flmul,??___flmul+1
 12710  00375C  6A09               	clrf	??___flmul^0,c
 12711  00375E  5009               	movf	??___flmul^0,w,c
 12712  003760  2614               	addwf	___flmul@prod^0,f,c
 12713  003762  500A               	movf	(??___flmul+1)^0,w,c
 12714  003764  2215               	addwfc	(___flmul@prod+1)^0,f,c
 12715  003766  500B               	movf	(??___flmul+2)^0,w,c
 12716  003768  2216               	addwfc	(___flmul@prod+2)^0,f,c
 12717  00376A  500C               	movf	(??___flmul+3)^0,w,c
 12718  00376C  2217               	addwfc	(___flmul@prod+3)^0,f,c
 12719  00376E  C00E  F009         	movff	___flmul@grs,??___flmul
 12720  003772  C00F  F00A         	movff	___flmul@grs+1,??___flmul+1
 12721  003776  C010  F00B         	movff	___flmul@grs+2,??___flmul+2
 12722  00377A  C011  F00C         	movff	___flmul@grs+3,??___flmul+3
 12723  00377E  0E19               	movlw	25
 12724  003780  EFC7  F01B         	goto	u5580
 12725  003784                     u5585:
 12726  003784  90D8               	bcf	status,0,c
 12727  003786  320C               	rrcf	(??___flmul+3)^0,f,c
 12728  003788  320B               	rrcf	(??___flmul+2)^0,f,c
 12729  00378A  320A               	rrcf	(??___flmul+1)^0,f,c
 12730  00378C  3209               	rrcf	??___flmul^0,f,c
 12731  00378E                     u5580:
 12732  00378E  2EE8               	decfsz	wreg,f,c
 12733  003790  EFC2  F01B         	goto	u5585
 12734  003794  5009               	movf	??___flmul^0,w,c
 12735  003796  2614               	addwf	___flmul@prod^0,f,c
 12736  003798  500A               	movf	(??___flmul+1)^0,w,c
 12737  00379A  2215               	addwfc	(___flmul@prod+1)^0,f,c
 12738  00379C  500B               	movf	(??___flmul+2)^0,w,c
 12739  00379E  2216               	addwfc	(___flmul@prod+2)^0,f,c
 12740  0037A0  500C               	movf	(??___flmul+3)^0,w,c
 12741  0037A2  2217               	addwfc	(___flmul@prod+3)^0,f,c
 12742  0037A4  C010  F011         	movff	___flmul@grs+2,___flmul@grs+3
 12743  0037A8  C00F  F010         	movff	___flmul@grs+1,___flmul@grs+2
 12744  0037AC  C00E  F00F         	movff	___flmul@grs,___flmul@grs+1
 12745  0037B0  6A0E               	clrf	___flmul@grs^0,c
 12746  0037B2  5012               	movf	___flmul@aexp^0,w,c
 12747  0037B4  C013  F009         	movff	___flmul@bexp,??___flmul
 12748  0037B8  6A0A               	clrf	(??___flmul+1)^0,c
 12749  0037BA  2609               	addwf	??___flmul^0,f,c
 12750  0037BC  0E00               	movlw	0
 12751  0037BE  220A               	addwfc	(??___flmul+1)^0,f,c
 12752  0037C0  0E82               	movlw	130
 12753  0037C2  2409               	addwf	??___flmul^0,w,c
 12754  0037C4  6E18               	movwf	___flmul@temp^0,c
 12755  0037C6  0EFF               	movlw	255
 12756  0037C8  200A               	addwfc	(??___flmul+1)^0,w,c
 12757  0037CA  6E19               	movwf	(___flmul@temp+1)^0,c
 12758  0037CC  EFFD  F01B         	goto	l4655
 12759  0037D0                     l4649:
 12760  0037D0  90D8               	bcf	status,0,c
 12761  0037D2  3614               	rlcf	___flmul@prod^0,f,c
 12762  0037D4  3615               	rlcf	(___flmul@prod+1)^0,f,c
 12763  0037D6  3616               	rlcf	(___flmul@prod+2)^0,f,c
 12764  0037D8  3617               	rlcf	(___flmul@prod+3)^0,f,c
 12765  0037DA  AE11               	btfss	(___flmul@grs+3)^0,7,c
 12766  0037DC  EFF2  F01B         	goto	u5591
 12767  0037E0  EFF4  F01B         	goto	u5590
 12768  0037E4                     u5591:
 12769  0037E4  EFF5  F01B         	goto	l1051
 12770  0037E8                     u5590:
 12771  0037E8  8014               	bsf	___flmul@prod^0,0,c
 12772  0037EA                     l1051:
 12773  0037EA  90D8               	bcf	status,0,c
 12774  0037EC  360E               	rlcf	___flmul@grs^0,f,c
 12775  0037EE  360F               	rlcf	(___flmul@grs+1)^0,f,c
 12776  0037F0  3610               	rlcf	(___flmul@grs+2)^0,f,c
 12777  0037F2  3611               	rlcf	(___flmul@grs+3)^0,f,c
 12778  0037F4  0618               	decf	___flmul@temp^0,f,c
 12779  0037F6  A0D8               	btfss	status,0,c
 12780  0037F8  0619               	decf	(___flmul@temp+1)^0,f,c
 12781  0037FA                     l4655:
 12782  0037FA  AE16               	btfss	(___flmul@prod+2)^0,7,c
 12783  0037FC  EF02  F01C         	goto	u5601
 12784  003800  EF04  F01C         	goto	u5600
 12785  003804                     u5601:
 12786  003804  EFE8  F01B         	goto	l4649
 12787  003808                     u5600:
 12788  003808  0E00               	movlw	0
 12789  00380A  6E12               	movwf	___flmul@aexp^0,c
 12790  00380C  AE11               	btfss	(___flmul@grs+3)^0,7,c
 12791  00380E  EF0B  F01C         	goto	u5611
 12792  003812  EF0D  F01C         	goto	u5610
 12793  003816                     u5611:
 12794  003816  EF31  F01C         	goto	l1053
 12795  00381A                     u5610:
 12796  00381A  0EFF               	movlw	255
 12797  00381C  140E               	andwf	___flmul@grs^0,w,c
 12798  00381E  6E09               	movwf	??___flmul^0,c
 12799  003820  0EFF               	movlw	255
 12800  003822  140F               	andwf	(___flmul@grs+1)^0,w,c
 12801  003824  6E0A               	movwf	(??___flmul+1)^0,c
 12802  003826  0EFF               	movlw	255
 12803  003828  1410               	andwf	(___flmul@grs+2)^0,w,c
 12804  00382A  6E0B               	movwf	(??___flmul+2)^0,c
 12805  00382C  0E7F               	movlw	127
 12806  00382E  1411               	andwf	(___flmul@grs+3)^0,w,c
 12807  003830  6E0C               	movwf	(??___flmul+3)^0,c
 12808  003832  5009               	movf	??___flmul^0,w,c
 12809  003834  100A               	iorwf	(??___flmul+1)^0,w,c
 12810  003836  100B               	iorwf	(??___flmul+2)^0,w,c
 12811  003838  100C               	iorwf	(??___flmul+3)^0,w,c
 12812  00383A  B4D8               	btfsc	status,2,c
 12813  00383C  EF22  F01C         	goto	u5621
 12814  003840  EF24  F01C         	goto	u5620
 12815  003844                     u5621:
 12816  003844  EF28  F01C         	goto	l1054
 12817  003848                     u5620:
 12818  003848                     l4663:
 12819  003848  0E01               	movlw	1
 12820  00384A  6E12               	movwf	___flmul@aexp^0,c
 12821  00384C  EF31  F01C         	goto	l1053
 12822  003850                     l1054:
 12823  003850  A014               	btfss	___flmul@prod^0,0,c
 12824  003852  EF2D  F01C         	goto	u5631
 12825  003856  EF2F  F01C         	goto	u5630
 12826  00385A                     u5631:
 12827  00385A  EF31  F01C         	goto	l1053
 12828  00385E                     u5630:
 12829  00385E  EF24  F01C         	goto	l4663
 12830  003862                     l1053:
 12831  003862  5012               	movf	___flmul@aexp^0,w,c
 12832  003864  B4D8               	btfsc	status,2,c
 12833  003866  EF37  F01C         	goto	u5641
 12834  00386A  EF39  F01C         	goto	u5640
 12835  00386E                     u5641:
 12836  00386E  EF5D  F01C         	goto	l4675
 12837  003872                     u5640:
 12838  003872  0E01               	movlw	1
 12839  003874  2614               	addwf	___flmul@prod^0,f,c
 12840  003876  0E00               	movlw	0
 12841  003878  2215               	addwfc	(___flmul@prod+1)^0,f,c
 12842  00387A  2216               	addwfc	(___flmul@prod+2)^0,f,c
 12843  00387C  2217               	addwfc	(___flmul@prod+3)^0,f,c
 12844  00387E  A017               	btfss	(___flmul@prod+3)^0,0,c
 12845  003880  EF44  F01C         	goto	u5651
 12846  003884  EF46  F01C         	goto	u5650
 12847  003888                     u5651:
 12848  003888  EF5D  F01C         	goto	l4675
 12849  00388C                     u5650:
 12850  00388C  C014  F009         	movff	___flmul@prod,??___flmul
 12851  003890  C015  F00A         	movff	___flmul@prod+1,??___flmul+1
 12852  003894  C016  F00B         	movff	___flmul@prod+2,??___flmul+2
 12853  003898  C017  F00C         	movff	___flmul@prod+3,??___flmul+3
 12854  00389C  340C               	rlcf	(??___flmul+3)^0,w,c
 12855  00389E  320C               	rrcf	(??___flmul+3)^0,f,c
 12856  0038A0  320B               	rrcf	(??___flmul+2)^0,f,c
 12857  0038A2  320A               	rrcf	(??___flmul+1)^0,f,c
 12858  0038A4  3209               	rrcf	??___flmul^0,f,c
 12859  0038A6  C009  F014         	movff	??___flmul,___flmul@prod
 12860  0038AA  C00A  F015         	movff	??___flmul+1,___flmul@prod+1
 12861  0038AE  C00B  F016         	movff	??___flmul+2,___flmul@prod+2
 12862  0038B2  C00C  F017         	movff	??___flmul+3,___flmul@prod+3
 12863  0038B6  4A18               	infsnz	___flmul@temp^0,f,c
 12864  0038B8  2A19               	incf	(___flmul@temp+1)^0,f,c
 12865  0038BA                     l4675:
 12866  0038BA  BE19               	btfsc	(___flmul@temp+1)^0,7,c
 12867  0038BC  EF68  F01C         	goto	u5661
 12868  0038C0  5019               	movf	(___flmul@temp+1)^0,w,c
 12869  0038C2  E108               	bnz	u5660
 12870  0038C4  2818               	incf	___flmul@temp^0,w,c
 12871  0038C6  A0D8               	btfss	status,0,c
 12872  0038C8  EF68  F01C         	goto	u5661
 12873  0038CC  EF6A  F01C         	goto	u5660
 12874  0038D0                     u5661:
 12875  0038D0  EF74  F01C         	goto	l4679
 12876  0038D4                     u5660:
 12877  0038D4  0E00               	movlw	0
 12878  0038D6  6E14               	movwf	___flmul@prod^0,c
 12879  0038D8  0E00               	movlw	0
 12880  0038DA  6E15               	movwf	(___flmul@prod+1)^0,c
 12881  0038DC  0E80               	movlw	128
 12882  0038DE  6E16               	movwf	(___flmul@prod+2)^0,c
 12883  0038E0  0E7F               	movlw	127
 12884  0038E2  6E17               	movwf	(___flmul@prod+3)^0,c
 12885  0038E4  EFA2  F01C         	goto	l4691
 12886  0038E8                     l4679:
 12887  0038E8  BE19               	btfsc	(___flmul@temp+1)^0,7,c
 12888  0038EA  EF81  F01C         	goto	u5670
 12889  0038EE  5019               	movf	(___flmul@temp+1)^0,w,c
 12890  0038F0  E106               	bnz	u5671
 12891  0038F2  0418               	decf	___flmul@temp^0,w,c
 12892  0038F4  B0D8               	btfsc	status,0,c
 12893  0038F6  EF7F  F01C         	goto	u5671
 12894  0038FA  EF81  F01C         	goto	u5670
 12895  0038FE                     u5671:
 12896  0038FE  EF8D  F01C         	goto	l1061
 12897  003902                     u5670:
 12898  003902  0E00               	movlw	0
 12899  003904  6E14               	movwf	___flmul@prod^0,c
 12900  003906  0E00               	movlw	0
 12901  003908  6E15               	movwf	(___flmul@prod+1)^0,c
 12902  00390A  0E00               	movlw	0
 12903  00390C  6E16               	movwf	(___flmul@prod+2)^0,c
 12904  00390E  0E00               	movlw	0
 12905  003910  6E17               	movwf	(___flmul@prod+3)^0,c
 12906  003912  0E00               	movlw	0
 12907  003914  6E0D               	movwf	___flmul@sign^0,c
 12908  003916  EFA2  F01C         	goto	l4691
 12909  00391A                     l1061:
 12910  00391A  C018  F013         	movff	___flmul@temp,___flmul@bexp
 12911  00391E  0EFF               	movlw	255
 12912  003920  1614               	andwf	___flmul@prod^0,f,c
 12913  003922  0EFF               	movlw	255
 12914  003924  1615               	andwf	(___flmul@prod+1)^0,f,c
 12915  003926  0E7F               	movlw	127
 12916  003928  1616               	andwf	(___flmul@prod+2)^0,f,c
 12917  00392A  0E00               	movlw	0
 12918  00392C  1617               	andwf	(___flmul@prod+3)^0,f,c
 12919  00392E  A013               	btfss	___flmul@bexp^0,0,c
 12920  003930  EF9C  F01C         	goto	u5681
 12921  003934  EF9E  F01C         	goto	u5680
 12922  003938                     u5681:
 12923  003938  EF9F  F01C         	goto	l4689
 12924  00393C                     u5680:
 12925  00393C  8E16               	bsf	(___flmul@prod+2)^0,7,c
 12926  00393E                     l4689:
 12927  00393E  90D8               	bcf	status,0,c
 12928  003940  3013               	rrcf	___flmul@bexp^0,w,c
 12929  003942  6E17               	movwf	(___flmul@prod+3)^0,c
 12930  003944                     l4691:
 12931  003944  500D               	movf	___flmul@sign^0,w,c
 12932  003946  1217               	iorwf	(___flmul@prod+3)^0,f,c
 12933  003948  C014  F001         	movff	___flmul@prod,?___flmul
 12934  00394C  C015  F002         	movff	___flmul@prod+1,?___flmul+1
 12935  003950  C016  F003         	movff	___flmul@prod+2,?___flmul+2
 12936  003954  C017  F004         	movff	___flmul@prod+3,?___flmul+3
 12937  003958                     l1048:
 12938  003958  0012               	return		;funcret
 12939  00395A                     __end_of___flmul:
 12940                           	opt callstack 0
 12941                           
 12942 ;; *************** function ___flge *****************
 12943 ;; Defined at:
 12944 ;;		line 4 in file "/opt/microchip/xc8/v2.10/pic/sources/c99/common/flge.c"
 12945 ;; Parameters:    Size  Location     Type
 12946 ;;  ff1             4   25[COMRAM] unsigned char 
 12947 ;;  ff2             4   29[COMRAM] unsigned char 
 12948 ;; Auto vars:     Size  Location     Type
 12949 ;;		None
 12950 ;; Return value:  Size  Location     Type
 12951 ;;		None               void
 12952 ;; Registers used:
 12953 ;;		wreg, status,2, status,0
 12954 ;; Tracked objects:
 12955 ;;		On entry : 0/0
 12956 ;;		On exit  : 0/0
 12957 ;;		Unchanged: 0/0
 12958 ;; Data sizes:     COMRAM   BANK0   BANK1   BANK2   BANK3   BANK4   BANK5   BANK6   BANK7
 12959 ;;      Params:         8       0       0       0       0       0       0       0       0
 12960 ;;      Locals:         0       0       0       0       0       0       0       0       0
 12961 ;;      Temps:          4       0       0       0       0       0       0       0       0
 12962 ;;      Totals:        12       0       0       0       0       0       0       0       0
 12963 ;;Total ram usage:       12 bytes
 12964 ;; Hardware stack levels used:    1
 12965 ;; This function calls:
 12966 ;;		Nothing
 12967 ;; This function is called by:
 12968 ;;		_efgtoa
 12969 ;;		_strtof
 12970 ;; This function uses a non-reentrant model
 12971 ;;
 12972                           
 12973                           	psect	text48
 12974  00517E                     __ptext48:
 12975                           	opt callstack 0
 12976  00517E                     ___flge:
 12977                           	opt callstack 26
 12978  00517E  0E00               	movlw	0
 12979  005180  141A               	andwf	___flge@ff1^0,w,c
 12980  005182  6E22               	movwf	??___flge^0,c
 12981  005184  0E00               	movlw	0
 12982  005186  141B               	andwf	(___flge@ff1+1)^0,w,c
 12983  005188  6E23               	movwf	(??___flge+1)^0,c
 12984  00518A  0E80               	movlw	128
 12985  00518C  141C               	andwf	(___flge@ff1+2)^0,w,c
 12986  00518E  6E24               	movwf	(??___flge+2)^0,c
 12987  005190  0E7F               	movlw	127
 12988  005192  141D               	andwf	(___flge@ff1+3)^0,w,c
 12989  005194  6E25               	movwf	(??___flge+3)^0,c
 12990  005196  5022               	movf	??___flge^0,w,c
 12991  005198  1023               	iorwf	(??___flge+1)^0,w,c
 12992  00519A  1024               	iorwf	(??___flge+2)^0,w,c
 12993  00519C  1025               	iorwf	(??___flge+3)^0,w,c
 12994  00519E  A4D8               	btfss	status,2,c
 12995  0051A0  EFD4  F028         	goto	u5841
 12996  0051A4  EFD6  F028         	goto	u5840
 12997  0051A8                     u5841:
 12998  0051A8  EFDE  F028         	goto	l4803
 12999  0051AC                     u5840:
 13000  0051AC  0E00               	movlw	0
 13001  0051AE  6E1A               	movwf	___flge@ff1^0,c
 13002  0051B0  0E00               	movlw	0
 13003  0051B2  6E1B               	movwf	(___flge@ff1+1)^0,c
 13004  0051B4  0E00               	movlw	0
 13005  0051B6  6E1C               	movwf	(___flge@ff1+2)^0,c
 13006  0051B8  0E00               	movlw	0
 13007  0051BA  6E1D               	movwf	(___flge@ff1+3)^0,c
 13008  0051BC                     l4803:
 13009  0051BC  0E00               	movlw	0
 13010  0051BE  141E               	andwf	___flge@ff2^0,w,c
 13011  0051C0  6E22               	movwf	??___flge^0,c
 13012  0051C2  0E00               	movlw	0
 13013  0051C4  141F               	andwf	(___flge@ff2+1)^0,w,c
 13014  0051C6  6E23               	movwf	(??___flge+1)^0,c
 13015  0051C8  0E80               	movlw	128
 13016  0051CA  1420               	andwf	(___flge@ff2+2)^0,w,c
 13017  0051CC  6E24               	movwf	(??___flge+2)^0,c
 13018  0051CE  0E7F               	movlw	127
 13019  0051D0  1421               	andwf	(___flge@ff2+3)^0,w,c
 13020  0051D2  6E25               	movwf	(??___flge+3)^0,c
 13021  0051D4  5022               	movf	??___flge^0,w,c
 13022  0051D6  1023               	iorwf	(??___flge+1)^0,w,c
 13023  0051D8  1024               	iorwf	(??___flge+2)^0,w,c
 13024  0051DA  1025               	iorwf	(??___flge+3)^0,w,c
 13025  0051DC  A4D8               	btfss	status,2,c
 13026  0051DE  EFF3  F028         	goto	u5851
 13027  0051E2  EFF5  F028         	goto	u5850
 13028  0051E6                     u5851:
 13029  0051E6  EFFD  F028         	goto	l4807
 13030  0051EA                     u5850:
 13031  0051EA  0E00               	movlw	0
 13032  0051EC  6E1E               	movwf	___flge@ff2^0,c
 13033  0051EE  0E00               	movlw	0
 13034  0051F0  6E1F               	movwf	(___flge@ff2+1)^0,c
 13035  0051F2  0E00               	movlw	0
 13036  0051F4  6E20               	movwf	(___flge@ff2+2)^0,c
 13037  0051F6  0E00               	movlw	0
 13038  0051F8  6E21               	movwf	(___flge@ff2+3)^0,c
 13039  0051FA                     l4807:
 13040  0051FA  AE1D               	btfss	(___flge@ff1+3)^0,7,c
 13041  0051FC  EF02  F029         	goto	u5861
 13042  005200  EF04  F029         	goto	u5860
 13043  005204                     u5861:
 13044  005204  EF0D  F029         	goto	l4811
 13045  005208                     u5860:
 13046  005208  6C1A               	negf	___flge@ff1^0,c
 13047  00520A  1E1B               	comf	(___flge@ff1+1)^0,f,c
 13048  00520C  B0D8               	btfsc	status,0,c
 13049  00520E  2A1B               	incf	(___flge@ff1+1)^0,f,c
 13050  005210  1E1C               	comf	(___flge@ff1+2)^0,f,c
 13051  005212  B0D8               	btfsc	status,0,c
 13052  005214  2A1C               	incf	(___flge@ff1+2)^0,f,c
 13053  005216  0E80               	movlw	128
 13054  005218  561D               	subfwb	(___flge@ff1+3)^0,f,c
 13055  00521A                     l4811:
 13056  00521A  AE21               	btfss	(___flge@ff2+3)^0,7,c
 13057  00521C  EF12  F029         	goto	u5871
 13058  005220  EF14  F029         	goto	u5870
 13059  005224                     u5871:
 13060  005224  EF1D  F029         	goto	l695
 13061  005228                     u5870:
 13062  005228  6C1E               	negf	___flge@ff2^0,c
 13063  00522A  1E1F               	comf	(___flge@ff2+1)^0,f,c
 13064  00522C  B0D8               	btfsc	status,0,c
 13065  00522E  2A1F               	incf	(___flge@ff2+1)^0,f,c
 13066  005230  1E20               	comf	(___flge@ff2+2)^0,f,c
 13067  005232  B0D8               	btfsc	status,0,c
 13068  005234  2A20               	incf	(___flge@ff2+2)^0,f,c
 13069  005236  0E80               	movlw	128
 13070  005238  5621               	subfwb	(___flge@ff2+3)^0,f,c
 13071  00523A                     l695:
 13072  00523A  0E00               	movlw	0
 13073  00523C  1A1A               	xorwf	___flge@ff1^0,f,c
 13074  00523E  0E00               	movlw	0
 13075  005240  1A1B               	xorwf	(___flge@ff1+1)^0,f,c
 13076  005242  0E00               	movlw	0
 13077  005244  1A1C               	xorwf	(___flge@ff1+2)^0,f,c
 13078  005246  0E80               	movlw	128
 13079  005248  1A1D               	xorwf	(___flge@ff1+3)^0,f,c
 13080  00524A  0E00               	movlw	0
 13081  00524C  1A1E               	xorwf	___flge@ff2^0,f,c
 13082  00524E  0E00               	movlw	0
 13083  005250  1A1F               	xorwf	(___flge@ff2+1)^0,f,c
 13084  005252  0E00               	movlw	0
 13085  005254  1A20               	xorwf	(___flge@ff2+2)^0,f,c
 13086  005256  0E80               	movlw	128
 13087  005258  1A21               	xorwf	(___flge@ff2+3)^0,f,c
 13088  00525A  501E               	movf	___flge@ff2^0,w,c
 13089  00525C  5C1A               	subwf	___flge@ff1^0,w,c
 13090  00525E  501F               	movf	(___flge@ff2+1)^0,w,c
 13091  005260  581B               	subwfb	(___flge@ff1+1)^0,w,c
 13092  005262  5020               	movf	(___flge@ff2+2)^0,w,c
 13093  005264  581C               	subwfb	(___flge@ff1+2)^0,w,c
 13094  005266  5021               	movf	(___flge@ff2+3)^0,w,c
 13095  005268  581D               	subwfb	(___flge@ff1+3)^0,w,c
 13096  00526A  B0D8               	btfsc	status,0,c
 13097  00526C  EF3A  F029         	goto	u5881
 13098  005270  EF3C  F029         	goto	u5880
 13099  005274                     u5881:
 13100  005274  EF3F  F029         	goto	l4817
 13101  005278                     u5880:
 13102  005278  90D8               	bcf	status,0,c
 13103  00527A  EF40  F029         	goto	l700
 13104  00527E                     l4817:
 13105  00527E  80D8               	bsf	status,0,c
 13106  005280                     l700:
 13107  005280  0012               	return		;funcret
 13108  005282                     __end_of___flge:
 13109                           	opt callstack 0
 13110                           
 13111 ;; *************** function ___fleq *****************
 13112 ;; Defined at:
 13113 ;;		line 4 in file "/opt/microchip/xc8/v2.10/pic/sources/c99/common/fleq.c"
 13114 ;; Parameters:    Size  Location     Type
 13115 ;;  ff1             4    0[COMRAM] unsigned char 
 13116 ;;  ff2             4    4[COMRAM] unsigned char 
 13117 ;; Auto vars:     Size  Location     Type
 13118 ;;		None
 13119 ;; Return value:  Size  Location     Type
 13120 ;;		None               void
 13121 ;; Registers used:
 13122 ;;		wreg, status,2, status,0
 13123 ;; Tracked objects:
 13124 ;;		On entry : 0/0
 13125 ;;		On exit  : 0/0
 13126 ;;		Unchanged: 0/0
 13127 ;; Data sizes:     COMRAM   BANK0   BANK1   BANK2   BANK3   BANK4   BANK5   BANK6   BANK7
 13128 ;;      Params:         8       0       0       0       0       0       0       0       0
 13129 ;;      Locals:         0       0       0       0       0       0       0       0       0
 13130 ;;      Temps:          4       0       0       0       0       0       0       0       0
 13131 ;;      Totals:        12       0       0       0       0       0       0       0       0
 13132 ;;Total ram usage:       12 bytes
 13133 ;; Hardware stack levels used:    1
 13134 ;; This function calls:
 13135 ;;		Nothing
 13136 ;; This function is called by:
 13137 ;;		_efgtoa
 13138 ;;		_strtof
 13139 ;; This function uses a non-reentrant model
 13140 ;;
 13141                           
 13142                           	psect	text49
 13143  00582E                     __ptext49:
 13144                           	opt callstack 0
 13145  00582E                     ___fleq:
 13146                           	opt callstack 26
 13147  00582E  0E00               	movlw	0
 13148  005830  1401               	andwf	___fleq@ff1^0,w,c
 13149  005832  6E09               	movwf	??___fleq^0,c
 13150  005834  0E00               	movlw	0
 13151  005836  1402               	andwf	(___fleq@ff1+1)^0,w,c
 13152  005838  6E0A               	movwf	(??___fleq+1)^0,c
 13153  00583A  0E80               	movlw	128
 13154  00583C  1403               	andwf	(___fleq@ff1+2)^0,w,c
 13155  00583E  6E0B               	movwf	(??___fleq+2)^0,c
 13156  005840  0E7F               	movlw	127
 13157  005842  1404               	andwf	(___fleq@ff1+3)^0,w,c
 13158  005844  6E0C               	movwf	(??___fleq+3)^0,c
 13159  005846  5009               	movf	??___fleq^0,w,c
 13160  005848  100A               	iorwf	(??___fleq+1)^0,w,c
 13161  00584A  100B               	iorwf	(??___fleq+2)^0,w,c
 13162  00584C  100C               	iorwf	(??___fleq+3)^0,w,c
 13163  00584E  A4D8               	btfss	status,2,c
 13164  005850  EF2C  F02C         	goto	u5811
 13165  005854  EF2E  F02C         	goto	u5810
 13166  005858                     u5811:
 13167  005858  EF36  F02C         	goto	l4787
 13168  00585C                     u5810:
 13169  00585C  0E00               	movlw	0
 13170  00585E  6E01               	movwf	___fleq@ff1^0,c
 13171  005860  0E00               	movlw	0
 13172  005862  6E02               	movwf	(___fleq@ff1+1)^0,c
 13173  005864  0E00               	movlw	0
 13174  005866  6E03               	movwf	(___fleq@ff1+2)^0,c
 13175  005868  0E00               	movlw	0
 13176  00586A  6E04               	movwf	(___fleq@ff1+3)^0,c
 13177  00586C                     l4787:
 13178  00586C  0E00               	movlw	0
 13179  00586E  1405               	andwf	___fleq@ff2^0,w,c
 13180  005870  6E09               	movwf	??___fleq^0,c
 13181  005872  0E00               	movlw	0
 13182  005874  1406               	andwf	(___fleq@ff2+1)^0,w,c
 13183  005876  6E0A               	movwf	(??___fleq+1)^0,c
 13184  005878  0E80               	movlw	128
 13185  00587A  1407               	andwf	(___fleq@ff2+2)^0,w,c
 13186  00587C  6E0B               	movwf	(??___fleq+2)^0,c
 13187  00587E  0E7F               	movlw	127
 13188  005880  1408               	andwf	(___fleq@ff2+3)^0,w,c
 13189  005882  6E0C               	movwf	(??___fleq+3)^0,c
 13190  005884  5009               	movf	??___fleq^0,w,c
 13191  005886  100A               	iorwf	(??___fleq+1)^0,w,c
 13192  005888  100B               	iorwf	(??___fleq+2)^0,w,c
 13193  00588A  100C               	iorwf	(??___fleq+3)^0,w,c
 13194  00588C  A4D8               	btfss	status,2,c
 13195  00588E  EF4B  F02C         	goto	u5821
 13196  005892  EF4D  F02C         	goto	u5820
 13197  005896                     u5821:
 13198  005896  EF55  F02C         	goto	l4791
 13199  00589A                     u5820:
 13200  00589A  0E00               	movlw	0
 13201  00589C  6E05               	movwf	___fleq@ff2^0,c
 13202  00589E  0E00               	movlw	0
 13203  0058A0  6E06               	movwf	(___fleq@ff2+1)^0,c
 13204  0058A2  0E00               	movlw	0
 13205  0058A4  6E07               	movwf	(___fleq@ff2+2)^0,c
 13206  0058A6  0E00               	movlw	0
 13207  0058A8  6E08               	movwf	(___fleq@ff2+3)^0,c
 13208  0058AA                     l4791:
 13209  0058AA  5005               	movf	___fleq@ff2^0,w,c
 13210  0058AC  1801               	xorwf	___fleq@ff1^0,w,c
 13211  0058AE  E10F               	bnz	u5830
 13212  0058B0  5006               	movf	(___fleq@ff2+1)^0,w,c
 13213  0058B2  1802               	xorwf	(___fleq@ff1+1)^0,w,c
 13214  0058B4  E10C               	bnz	u5830
 13215  0058B6  5007               	movf	(___fleq@ff2+2)^0,w,c
 13216  0058B8  1803               	xorwf	(___fleq@ff1+2)^0,w,c
 13217  0058BA  E109               	bnz	u5830
 13218  0058BC  5008               	movf	(___fleq@ff2+3)^0,w,c
 13219  0058BE  1804               	xorwf	(___fleq@ff1+3)^0,w,c
 13220  0058C0  B4D8               	btfsc	status,2,c
 13221  0058C2  EF65  F02C         	goto	u5831
 13222  0058C6  EF67  F02C         	goto	u5830
 13223  0058CA                     u5831:
 13224  0058CA  EF6A  F02C         	goto	l4795
 13225  0058CE                     u5830:
 13226  0058CE  90D8               	bcf	status,0,c
 13227  0058D0  EF6B  F02C         	goto	l689
 13228  0058D4                     l4795:
 13229  0058D4  80D8               	bsf	status,0,c
 13230  0058D6                     l689:
 13231  0058D6  0012               	return		;funcret
 13232  0058D8                     __end_of___fleq:
 13233                           	opt callstack 0
 13234                           
 13235 ;; *************** function ___fldiv *****************
 13236 ;; Defined at:
 13237 ;;		line 11 in file "/opt/microchip/xc8/v2.10/pic/sources/c99/common/sprcdiv.c"
 13238 ;; Parameters:    Size  Location     Type
 13239 ;;  b               4   25[COMRAM] unsigned char 
 13240 ;;  a               4   29[COMRAM] unsigned char 
 13241 ;; Auto vars:     Size  Location     Type
 13242 ;;  grs             4   44[COMRAM] unsigned long 
 13243 ;;  rem             4   37[COMRAM] unsigned long 
 13244 ;;  new_exp         2   42[COMRAM] short 
 13245 ;;  aexp            1   49[COMRAM] unsigned char 
 13246 ;;  bexp            1   48[COMRAM] unsigned char 
 13247 ;;  sign            1   41[COMRAM] unsigned char 
 13248 ;; Return value:  Size  Location     Type
 13249 ;;                  4   25[COMRAM] unsigned char 
 13250 ;; Registers used:
 13251 ;;		wreg, status,2, status,0
 13252 ;; Tracked objects:
 13253 ;;		On entry : 0/0
 13254 ;;		On exit  : 0/0
 13255 ;;		Unchanged: 0/0
 13256 ;; Data sizes:     COMRAM   BANK0   BANK1   BANK2   BANK3   BANK4   BANK5   BANK6   BANK7
 13257 ;;      Params:         8       0       0       0       0       0       0       0       0
 13258 ;;      Locals:        13       0       0       0       0       0       0       0       0
 13259 ;;      Temps:          4       0       0       0       0       0       0       0       0
 13260 ;;      Totals:        25       0       0       0       0       0       0       0       0
 13261 ;;Total ram usage:       25 bytes
 13262 ;; Hardware stack levels used:    1
 13263 ;; This function calls:
 13264 ;;		Nothing
 13265 ;; This function is called by:
 13266 ;;		_dameGrados
 13267 ;;		_efgtoa
 13268 ;;		_strtof
 13269 ;; This function uses a non-reentrant model
 13270 ;;
 13271                           
 13272                           	psect	text50
 13273  00395A                     __ptext50:
 13274                           	opt callstack 0
 13275  00395A                     ___fldiv:
 13276                           	opt callstack 26
 13277  00395A  501D               	movf	(___fldiv@b+3)^0,w,c
 13278  00395C  0B80               	andlw	128
 13279  00395E  6E2A               	movwf	___fldiv@sign^0,c
 13280  003960  501D               	movf	(___fldiv@b+3)^0,w,c
 13281  003962  241D               	addwf	(___fldiv@b+3)^0,w,c
 13282  003964  6E31               	movwf	___fldiv@bexp^0,c
 13283  003966  AE1C               	btfss	(___fldiv@b+2)^0,7,c
 13284  003968  EFB8  F01C         	goto	u5271
 13285  00396C  EFBA  F01C         	goto	u5270
 13286  003970                     u5271:
 13287  003970  EFBB  F01C         	goto	l4435
 13288  003974                     u5270:
 13289  003974  8031               	bsf	___fldiv@bexp^0,0,c
 13290  003976                     l4435:
 13291  003976  5031               	movf	___fldiv@bexp^0,w,c
 13292  003978  B4D8               	btfsc	status,2,c
 13293  00397A  EFC1  F01C         	goto	u5281
 13294  00397E  EFC3  F01C         	goto	u5280
 13295  003982                     u5281:
 13296  003982  EFD8  F01C         	goto	l4445
 13297  003986                     u5280:
 13298  003986  2831               	incf	___fldiv@bexp^0,w,c
 13299  003988  A4D8               	btfss	status,2,c
 13300  00398A  EFC9  F01C         	goto	u5291
 13301  00398E  EFCB  F01C         	goto	u5290
 13302  003992                     u5291:
 13303  003992  EFD3  F01C         	goto	l4441
 13304  003996                     u5290:
 13305  003996  0E00               	movlw	0
 13306  003998  6E1A               	movwf	___fldiv@b^0,c
 13307  00399A  0E00               	movlw	0
 13308  00399C  6E1B               	movwf	(___fldiv@b+1)^0,c
 13309  00399E  0E00               	movlw	0
 13310  0039A0  6E1C               	movwf	(___fldiv@b+2)^0,c
 13311  0039A2  0E00               	movlw	0
 13312  0039A4  6E1D               	movwf	(___fldiv@b+3)^0,c
 13313  0039A6                     l4441:
 13314  0039A6  8E1C               	bsf	(___fldiv@b+2)^0,7,c
 13315  0039A8  0E00               	movlw	0
 13316  0039AA  6E1D               	movwf	(___fldiv@b+3)^0,c
 13317  0039AC  EFE0  F01C         	goto	l4447
 13318  0039B0                     l4445:
 13319  0039B0  0E00               	movlw	0
 13320  0039B2  6E1A               	movwf	___fldiv@b^0,c
 13321  0039B4  0E00               	movlw	0
 13322  0039B6  6E1B               	movwf	(___fldiv@b+1)^0,c
 13323  0039B8  0E00               	movlw	0
 13324  0039BA  6E1C               	movwf	(___fldiv@b+2)^0,c
 13325  0039BC  0E00               	movlw	0
 13326  0039BE  6E1D               	movwf	(___fldiv@b+3)^0,c
 13327  0039C0                     l4447:
 13328  0039C0  5021               	movf	(___fldiv@a+3)^0,w,c
 13329  0039C2  0B80               	andlw	128
 13330  0039C4  1A2A               	xorwf	___fldiv@sign^0,f,c
 13331  0039C6  5021               	movf	(___fldiv@a+3)^0,w,c
 13332  0039C8  2421               	addwf	(___fldiv@a+3)^0,w,c
 13333  0039CA  6E32               	movwf	___fldiv@aexp^0,c
 13334  0039CC  AE20               	btfss	(___fldiv@a+2)^0,7,c
 13335  0039CE  EFEB  F01C         	goto	u5301
 13336  0039D2  EFED  F01C         	goto	u5300
 13337  0039D6                     u5301:
 13338  0039D6  EFEE  F01C         	goto	l4455
 13339  0039DA                     u5300:
 13340  0039DA  8032               	bsf	___fldiv@aexp^0,0,c
 13341  0039DC                     l4455:
 13342  0039DC  5032               	movf	___fldiv@aexp^0,w,c
 13343  0039DE  B4D8               	btfsc	status,2,c
 13344  0039E0  EFF4  F01C         	goto	u5311
 13345  0039E4  EFF6  F01C         	goto	u5310
 13346  0039E8                     u5311:
 13347  0039E8  EF0B  F01D         	goto	l4465
 13348  0039EC                     u5310:
 13349  0039EC  2832               	incf	___fldiv@aexp^0,w,c
 13350  0039EE  A4D8               	btfss	status,2,c
 13351  0039F0  EFFC  F01C         	goto	u5321
 13352  0039F4  EFFE  F01C         	goto	u5320
 13353  0039F8                     u5321:
 13354  0039F8  EF06  F01D         	goto	l4461
 13355  0039FC                     u5320:
 13356  0039FC  0E00               	movlw	0
 13357  0039FE  6E1E               	movwf	___fldiv@a^0,c
 13358  003A00  0E00               	movlw	0
 13359  003A02  6E1F               	movwf	(___fldiv@a+1)^0,c
 13360  003A04  0E00               	movlw	0
 13361  003A06  6E20               	movwf	(___fldiv@a+2)^0,c
 13362  003A08  0E00               	movlw	0
 13363  003A0A  6E21               	movwf	(___fldiv@a+3)^0,c
 13364  003A0C                     l4461:
 13365  003A0C  8E20               	bsf	(___fldiv@a+2)^0,7,c
 13366  003A0E  0E00               	movlw	0
 13367  003A10  6E21               	movwf	(___fldiv@a+3)^0,c
 13368  003A12  EF13  F01D         	goto	l4467
 13369  003A16                     l4465:
 13370  003A16  0E00               	movlw	0
 13371  003A18  6E1E               	movwf	___fldiv@a^0,c
 13372  003A1A  0E00               	movlw	0
 13373  003A1C  6E1F               	movwf	(___fldiv@a+1)^0,c
 13374  003A1E  0E00               	movlw	0
 13375  003A20  6E20               	movwf	(___fldiv@a+2)^0,c
 13376  003A22  0E00               	movlw	0
 13377  003A24  6E21               	movwf	(___fldiv@a+3)^0,c
 13378  003A26                     l4467:
 13379  003A26  501E               	movf	___fldiv@a^0,w,c
 13380  003A28  101F               	iorwf	(___fldiv@a+1)^0,w,c
 13381  003A2A  1020               	iorwf	(___fldiv@a+2)^0,w,c
 13382  003A2C  1021               	iorwf	(___fldiv@a+3)^0,w,c
 13383  003A2E  A4D8               	btfss	status,2,c
 13384  003A30  EF1C  F01D         	goto	u5331
 13385  003A34  EF1E  F01D         	goto	u5330
 13386  003A38                     u5331:
 13387  003A38  EF36  F01D         	goto	l4479
 13388  003A3C                     u5330:
 13389  003A3C  0E00               	movlw	0
 13390  003A3E  6E1A               	movwf	___fldiv@b^0,c
 13391  003A40  0E00               	movlw	0
 13392  003A42  6E1B               	movwf	(___fldiv@b+1)^0,c
 13393  003A44  0E00               	movlw	0
 13394  003A46  6E1C               	movwf	(___fldiv@b+2)^0,c
 13395  003A48  0E00               	movlw	0
 13396  003A4A  6E1D               	movwf	(___fldiv@b+3)^0,c
 13397  003A4C  0E80               	movlw	128
 13398  003A4E  121C               	iorwf	(___fldiv@b+2)^0,f,c
 13399  003A50  0E7F               	movlw	127
 13400  003A52  121D               	iorwf	(___fldiv@b+3)^0,f,c
 13401  003A54                     l4473:
 13402  003A54  502A               	movf	___fldiv@sign^0,w,c
 13403  003A56  121D               	iorwf	(___fldiv@b+3)^0,f,c
 13404  003A58  C01A  F01A         	movff	___fldiv@b,?___fldiv
 13405  003A5C  C01B  F01B         	movff	___fldiv@b+1,?___fldiv+1
 13406  003A60  C01C  F01C         	movff	___fldiv@b+2,?___fldiv+2
 13407  003A64  C01D  F01D         	movff	___fldiv@b+3,?___fldiv+3
 13408  003A68  EF79  F01E         	goto	l1012
 13409  003A6C                     l4479:
 13410  003A6C  5031               	movf	___fldiv@bexp^0,w,c
 13411  003A6E  A4D8               	btfss	status,2,c
 13412  003A70  EF3C  F01D         	goto	u5341
 13413  003A74  EF3E  F01D         	goto	u5340
 13414  003A78                     u5341:
 13415  003A78  EF48  F01D         	goto	l4487
 13416  003A7C                     u5340:
 13417  003A7C  0E00               	movlw	0
 13418  003A7E  6E1A               	movwf	?___fldiv^0,c
 13419  003A80  0E00               	movlw	0
 13420  003A82  6E1B               	movwf	(?___fldiv+1)^0,c
 13421  003A84  0E00               	movlw	0
 13422  003A86  6E1C               	movwf	(?___fldiv+2)^0,c
 13423  003A88  0E00               	movlw	0
 13424  003A8A  6E1D               	movwf	(?___fldiv+3)^0,c
 13425  003A8C  EF79  F01E         	goto	l1012
 13426  003A90                     l4487:
 13427  003A90  5032               	movf	___fldiv@aexp^0,w,c
 13428  003A92  C031  F022         	movff	___fldiv@bexp,??___fldiv
 13429  003A96  6A23               	clrf	(??___fldiv+1)^0,c
 13430  003A98  5E22               	subwf	??___fldiv^0,f,c
 13431  003A9A  0E00               	movlw	0
 13432  003A9C  5A23               	subwfb	(??___fldiv+1)^0,f,c
 13433  003A9E  0E7F               	movlw	127
 13434  003AA0  2422               	addwf	??___fldiv^0,w,c
 13435  003AA2  6E2B               	movwf	___fldiv@new_exp^0,c
 13436  003AA4  0E00               	movlw	0
 13437  003AA6  2023               	addwfc	(??___fldiv+1)^0,w,c
 13438  003AA8  6E2C               	movwf	(___fldiv@new_exp+1)^0,c
 13439  003AAA  C01A  F026         	movff	___fldiv@b,___fldiv@rem
 13440  003AAE  C01B  F027         	movff	___fldiv@b+1,___fldiv@rem+1
 13441  003AB2  C01C  F028         	movff	___fldiv@b+2,___fldiv@rem+2
 13442  003AB6  C01D  F029         	movff	___fldiv@b+3,___fldiv@rem+3
 13443  003ABA  0E00               	movlw	0
 13444  003ABC  6E1A               	movwf	___fldiv@b^0,c
 13445  003ABE  0E00               	movlw	0
 13446  003AC0  6E1B               	movwf	(___fldiv@b+1)^0,c
 13447  003AC2  0E00               	movlw	0
 13448  003AC4  6E1C               	movwf	(___fldiv@b+2)^0,c
 13449  003AC6  0E00               	movlw	0
 13450  003AC8  6E1D               	movwf	(___fldiv@b+3)^0,c
 13451  003ACA  0E00               	movlw	0
 13452  003ACC  6E2D               	movwf	___fldiv@grs^0,c
 13453  003ACE  0E00               	movlw	0
 13454  003AD0  6E2E               	movwf	(___fldiv@grs+1)^0,c
 13455  003AD2  0E00               	movlw	0
 13456  003AD4  6E2F               	movwf	(___fldiv@grs+2)^0,c
 13457  003AD6  0E00               	movlw	0
 13458  003AD8  6E30               	movwf	(___fldiv@grs+3)^0,c
 13459  003ADA  0E00               	movlw	0
 13460  003ADC  6E32               	movwf	___fldiv@aexp^0,c
 13461  003ADE  EFA9  F01D         	goto	l1014
 13462  003AE2                     l4497:
 13463  003AE2  5032               	movf	___fldiv@aexp^0,w,c
 13464  003AE4  B4D8               	btfsc	status,2,c
 13465  003AE6  EF77  F01D         	goto	u5351
 13466  003AEA  EF79  F01D         	goto	u5350
 13467  003AEE                     u5351:
 13468  003AEE  EF90  F01D         	goto	l4505
 13469  003AF2                     u5350:
 13470  003AF2  90D8               	bcf	status,0,c
 13471  003AF4  3626               	rlcf	___fldiv@rem^0,f,c
 13472  003AF6  3627               	rlcf	(___fldiv@rem+1)^0,f,c
 13473  003AF8  3628               	rlcf	(___fldiv@rem+2)^0,f,c
 13474  003AFA  3629               	rlcf	(___fldiv@rem+3)^0,f,c
 13475  003AFC  90D8               	bcf	status,0,c
 13476  003AFE  361A               	rlcf	___fldiv@b^0,f,c
 13477  003B00  361B               	rlcf	(___fldiv@b+1)^0,f,c
 13478  003B02  361C               	rlcf	(___fldiv@b+2)^0,f,c
 13479  003B04  361D               	rlcf	(___fldiv@b+3)^0,f,c
 13480  003B06  AE30               	btfss	(___fldiv@grs+3)^0,7,c
 13481  003B08  EF88  F01D         	goto	u5361
 13482  003B0C  EF8A  F01D         	goto	u5360
 13483  003B10                     u5361:
 13484  003B10  EF8B  F01D         	goto	l1017
 13485  003B14                     u5360:
 13486  003B14  801A               	bsf	___fldiv@b^0,0,c
 13487  003B16                     l1017:
 13488  003B16  90D8               	bcf	status,0,c
 13489  003B18  362D               	rlcf	___fldiv@grs^0,f,c
 13490  003B1A  362E               	rlcf	(___fldiv@grs+1)^0,f,c
 13491  003B1C  362F               	rlcf	(___fldiv@grs+2)^0,f,c
 13492  003B1E  3630               	rlcf	(___fldiv@grs+3)^0,f,c
 13493  003B20                     l4505:
 13494  003B20  501E               	movf	___fldiv@a^0,w,c
 13495  003B22  5C26               	subwf	___fldiv@rem^0,w,c
 13496  003B24  501F               	movf	(___fldiv@a+1)^0,w,c
 13497  003B26  5827               	subwfb	(___fldiv@rem+1)^0,w,c
 13498  003B28  5020               	movf	(___fldiv@a+2)^0,w,c
 13499  003B2A  5828               	subwfb	(___fldiv@rem+2)^0,w,c
 13500  003B2C  5021               	movf	(___fldiv@a+3)^0,w,c
 13501  003B2E  5829               	subwfb	(___fldiv@rem+3)^0,w,c
 13502  003B30  A0D8               	btfss	status,0,c
 13503  003B32  EF9D  F01D         	goto	u5371
 13504  003B36  EF9F  F01D         	goto	u5370
 13505  003B3A                     u5371:
 13506  003B3A  EFA8  F01D         	goto	l4511
 13507  003B3E                     u5370:
 13508  003B3E  8C30               	bsf	(___fldiv@grs+3)^0,6,c
 13509  003B40  501E               	movf	___fldiv@a^0,w,c
 13510  003B42  5E26               	subwf	___fldiv@rem^0,f,c
 13511  003B44  501F               	movf	(___fldiv@a+1)^0,w,c
 13512  003B46  5A27               	subwfb	(___fldiv@rem+1)^0,f,c
 13513  003B48  5020               	movf	(___fldiv@a+2)^0,w,c
 13514  003B4A  5A28               	subwfb	(___fldiv@rem+2)^0,f,c
 13515  003B4C  5021               	movf	(___fldiv@a+3)^0,w,c
 13516  003B4E  5A29               	subwfb	(___fldiv@rem+3)^0,f,c
 13517  003B50                     l4511:
 13518  003B50  2A32               	incf	___fldiv@aexp^0,f,c
 13519  003B52                     l1014:
 13520  003B52  0E19               	movlw	25
 13521  003B54  6432               	cpfsgt	___fldiv@aexp^0,c
 13522  003B56  EFAF  F01D         	goto	u5381
 13523  003B5A  EFB1  F01D         	goto	u5380
 13524  003B5E                     u5381:
 13525  003B5E  EF71  F01D         	goto	l4497
 13526  003B62                     u5380:
 13527  003B62  5026               	movf	___fldiv@rem^0,w,c
 13528  003B64  1027               	iorwf	(___fldiv@rem+1)^0,w,c
 13529  003B66  1028               	iorwf	(___fldiv@rem+2)^0,w,c
 13530  003B68  1029               	iorwf	(___fldiv@rem+3)^0,w,c
 13531  003B6A  B4D8               	btfsc	status,2,c
 13532  003B6C  EFBA  F01D         	goto	u5391
 13533  003B70  EFBC  F01D         	goto	u5390
 13534  003B74                     u5391:
 13535  003B74  EFD4  F01D         	goto	l4523
 13536  003B78                     u5390:
 13537  003B78  802D               	bsf	___fldiv@grs^0,0,c
 13538  003B7A  EFD4  F01D         	goto	l4523
 13539  003B7E                     l4517:
 13540  003B7E  90D8               	bcf	status,0,c
 13541  003B80  361A               	rlcf	___fldiv@b^0,f,c
 13542  003B82  361B               	rlcf	(___fldiv@b+1)^0,f,c
 13543  003B84  361C               	rlcf	(___fldiv@b+2)^0,f,c
 13544  003B86  361D               	rlcf	(___fldiv@b+3)^0,f,c
 13545  003B88  AE30               	btfss	(___fldiv@grs+3)^0,7,c
 13546  003B8A  EFC9  F01D         	goto	u5401
 13547  003B8E  EFCB  F01D         	goto	u5400
 13548  003B92                     u5401:
 13549  003B92  EFCC  F01D         	goto	l1023
 13550  003B96                     u5400:
 13551  003B96  801A               	bsf	___fldiv@b^0,0,c
 13552  003B98                     l1023:
 13553  003B98  90D8               	bcf	status,0,c
 13554  003B9A  362D               	rlcf	___fldiv@grs^0,f,c
 13555  003B9C  362E               	rlcf	(___fldiv@grs+1)^0,f,c
 13556  003B9E  362F               	rlcf	(___fldiv@grs+2)^0,f,c
 13557  003BA0  3630               	rlcf	(___fldiv@grs+3)^0,f,c
 13558  003BA2  062B               	decf	___fldiv@new_exp^0,f,c
 13559  003BA4  A0D8               	btfss	status,0,c
 13560  003BA6  062C               	decf	(___fldiv@new_exp+1)^0,f,c
 13561  003BA8                     l4523:
 13562  003BA8  AE1C               	btfss	(___fldiv@b+2)^0,7,c
 13563  003BAA  EFD9  F01D         	goto	u5411
 13564  003BAE  EFDB  F01D         	goto	u5410
 13565  003BB2                     u5411:
 13566  003BB2  EFBF  F01D         	goto	l4517
 13567  003BB6                     u5410:
 13568  003BB6  0E00               	movlw	0
 13569  003BB8  6E32               	movwf	___fldiv@aexp^0,c
 13570  003BBA  AE30               	btfss	(___fldiv@grs+3)^0,7,c
 13571  003BBC  EFE2  F01D         	goto	u5421
 13572  003BC0  EFE4  F01D         	goto	u5420
 13573  003BC4                     u5421:
 13574  003BC4  EF08  F01E         	goto	l1025
 13575  003BC8                     u5420:
 13576  003BC8  0EFF               	movlw	255
 13577  003BCA  142D               	andwf	___fldiv@grs^0,w,c
 13578  003BCC  6E22               	movwf	??___fldiv^0,c
 13579  003BCE  0EFF               	movlw	255
 13580  003BD0  142E               	andwf	(___fldiv@grs+1)^0,w,c
 13581  003BD2  6E23               	movwf	(??___fldiv+1)^0,c
 13582  003BD4  0EFF               	movlw	255
 13583  003BD6  142F               	andwf	(___fldiv@grs+2)^0,w,c
 13584  003BD8  6E24               	movwf	(??___fldiv+2)^0,c
 13585  003BDA  0E7F               	movlw	127
 13586  003BDC  1430               	andwf	(___fldiv@grs+3)^0,w,c
 13587  003BDE  6E25               	movwf	(??___fldiv+3)^0,c
 13588  003BE0  5022               	movf	??___fldiv^0,w,c
 13589  003BE2  1023               	iorwf	(??___fldiv+1)^0,w,c
 13590  003BE4  1024               	iorwf	(??___fldiv+2)^0,w,c
 13591  003BE6  1025               	iorwf	(??___fldiv+3)^0,w,c
 13592  003BE8  B4D8               	btfsc	status,2,c
 13593  003BEA  EFF9  F01D         	goto	u5431
 13594  003BEE  EFFB  F01D         	goto	u5430
 13595  003BF2                     u5431:
 13596  003BF2  EFFF  F01D         	goto	l1026
 13597  003BF6                     u5430:
 13598  003BF6                     l4531:
 13599  003BF6  0E01               	movlw	1
 13600  003BF8  6E32               	movwf	___fldiv@aexp^0,c
 13601  003BFA  EF08  F01E         	goto	l1025
 13602  003BFE                     l1026:
 13603  003BFE  A01A               	btfss	___fldiv@b^0,0,c
 13604  003C00  EF04  F01E         	goto	u5441
 13605  003C04  EF06  F01E         	goto	u5440
 13606  003C08                     u5441:
 13607  003C08  EF08  F01E         	goto	l1025
 13608  003C0C                     u5440:
 13609  003C0C  EFFB  F01D         	goto	l4531
 13610  003C10                     l1025:
 13611  003C10  5032               	movf	___fldiv@aexp^0,w,c
 13612  003C12  B4D8               	btfsc	status,2,c
 13613  003C14  EF0E  F01E         	goto	u5451
 13614  003C18  EF10  F01E         	goto	u5450
 13615  003C1C                     u5451:
 13616  003C1C  EF34  F01E         	goto	l4543
 13617  003C20                     u5450:
 13618  003C20  0E01               	movlw	1
 13619  003C22  261A               	addwf	___fldiv@b^0,f,c
 13620  003C24  0E00               	movlw	0
 13621  003C26  221B               	addwfc	(___fldiv@b+1)^0,f,c
 13622  003C28  221C               	addwfc	(___fldiv@b+2)^0,f,c
 13623  003C2A  221D               	addwfc	(___fldiv@b+3)^0,f,c
 13624  003C2C  A01D               	btfss	(___fldiv@b+3)^0,0,c
 13625  003C2E  EF1B  F01E         	goto	u5461
 13626  003C32  EF1D  F01E         	goto	u5460
 13627  003C36                     u5461:
 13628  003C36  EF34  F01E         	goto	l4543
 13629  003C3A                     u5460:
 13630  003C3A  C01A  F022         	movff	___fldiv@b,??___fldiv
 13631  003C3E  C01B  F023         	movff	___fldiv@b+1,??___fldiv+1
 13632  003C42  C01C  F024         	movff	___fldiv@b+2,??___fldiv+2
 13633  003C46  C01D  F025         	movff	___fldiv@b+3,??___fldiv+3
 13634  003C4A  3425               	rlcf	(??___fldiv+3)^0,w,c
 13635  003C4C  3225               	rrcf	(??___fldiv+3)^0,f,c
 13636  003C4E  3224               	rrcf	(??___fldiv+2)^0,f,c
 13637  003C50  3223               	rrcf	(??___fldiv+1)^0,f,c
 13638  003C52  3222               	rrcf	??___fldiv^0,f,c
 13639  003C54  C022  F01A         	movff	??___fldiv,___fldiv@b
 13640  003C58  C023  F01B         	movff	??___fldiv+1,___fldiv@b+1
 13641  003C5C  C024  F01C         	movff	??___fldiv+2,___fldiv@b+2
 13642  003C60  C025  F01D         	movff	??___fldiv+3,___fldiv@b+3
 13643  003C64  4A2B               	infsnz	___fldiv@new_exp^0,f,c
 13644  003C66  2A2C               	incf	(___fldiv@new_exp+1)^0,f,c
 13645  003C68                     l4543:
 13646  003C68  BE2C               	btfsc	(___fldiv@new_exp+1)^0,7,c
 13647  003C6A  EF3F  F01E         	goto	u5471
 13648  003C6E  502C               	movf	(___fldiv@new_exp+1)^0,w,c
 13649  003C70  E108               	bnz	u5470
 13650  003C72  282B               	incf	___fldiv@new_exp^0,w,c
 13651  003C74  A0D8               	btfss	status,0,c
 13652  003C76  EF3F  F01E         	goto	u5471
 13653  003C7A  EF41  F01E         	goto	u5470
 13654  003C7E                     u5471:
 13655  003C7E  EF4C  F01E         	goto	l4547
 13656  003C82                     u5470:
 13657  003C82  0E00               	movlw	0
 13658  003C84  6E2C               	movwf	(___fldiv@new_exp+1)^0,c
 13659  003C86  682B               	setf	___fldiv@new_exp^0,c
 13660  003C88  0E00               	movlw	0
 13661  003C8A  6E1A               	movwf	___fldiv@b^0,c
 13662  003C8C  0E00               	movlw	0
 13663  003C8E  6E1B               	movwf	(___fldiv@b+1)^0,c
 13664  003C90  0E00               	movlw	0
 13665  003C92  6E1C               	movwf	(___fldiv@b+2)^0,c
 13666  003C94  0E00               	movlw	0
 13667  003C96  6E1D               	movwf	(___fldiv@b+3)^0,c
 13668  003C98                     l4547:
 13669  003C98  BE2C               	btfsc	(___fldiv@new_exp+1)^0,7,c
 13670  003C9A  EF59  F01E         	goto	u5480
 13671  003C9E  502C               	movf	(___fldiv@new_exp+1)^0,w,c
 13672  003CA0  E106               	bnz	u5481
 13673  003CA2  042B               	decf	___fldiv@new_exp^0,w,c
 13674  003CA4  B0D8               	btfsc	status,0,c
 13675  003CA6  EF57  F01E         	goto	u5481
 13676  003CAA  EF59  F01E         	goto	u5480
 13677  003CAE                     u5481:
 13678  003CAE  EF67  F01E         	goto	l4551
 13679  003CB2                     u5480:
 13680  003CB2  0E00               	movlw	0
 13681  003CB4  6E2C               	movwf	(___fldiv@new_exp+1)^0,c
 13682  003CB6  0E00               	movlw	0
 13683  003CB8  6E2B               	movwf	___fldiv@new_exp^0,c
 13684  003CBA  0E00               	movlw	0
 13685  003CBC  6E1A               	movwf	___fldiv@b^0,c
 13686  003CBE  0E00               	movlw	0
 13687  003CC0  6E1B               	movwf	(___fldiv@b+1)^0,c
 13688  003CC2  0E00               	movlw	0
 13689  003CC4  6E1C               	movwf	(___fldiv@b+2)^0,c
 13690  003CC6  0E00               	movlw	0
 13691  003CC8  6E1D               	movwf	(___fldiv@b+3)^0,c
 13692  003CCA  0E00               	movlw	0
 13693  003CCC  6E2A               	movwf	___fldiv@sign^0,c
 13694  003CCE                     l4551:
 13695  003CCE  C02B  F031         	movff	___fldiv@new_exp,___fldiv@bexp
 13696  003CD2  A031               	btfss	___fldiv@bexp^0,0,c
 13697  003CD4  EF6E  F01E         	goto	u5491
 13698  003CD8  EF70  F01E         	goto	u5490
 13699  003CDC                     u5491:
 13700  003CDC  EF73  F01E         	goto	l4557
 13701  003CE0                     u5490:
 13702  003CE0  8E1C               	bsf	(___fldiv@b+2)^0,7,c
 13703  003CE2  EF74  F01E         	goto	l4559
 13704  003CE6                     l4557:
 13705  003CE6  9E1C               	bcf	(___fldiv@b+2)^0,7,c
 13706  003CE8                     l4559:
 13707  003CE8  90D8               	bcf	status,0,c
 13708  003CEA  3031               	rrcf	___fldiv@bexp^0,w,c
 13709  003CEC  6E1D               	movwf	(___fldiv@b+3)^0,c
 13710  003CEE  EF2A  F01D         	goto	l4473
 13711  003CF2                     l1012:
 13712  003CF2  0012               	return		;funcret
 13713  003CF4                     __end_of___fldiv:
 13714                           	opt callstack 0
 13715                           
 13716 ;; *************** function ___fltol *****************
 13717 ;; Defined at:
 13718 ;;		line 43 in file "/opt/microchip/xc8/v2.10/pic/sources/c99/common/fltol.c"
 13719 ;; Parameters:    Size  Location     Type
 13720 ;;  f1              4    0[COMRAM] unsigned char 
 13721 ;; Auto vars:     Size  Location     Type
 13722 ;;  exp1            1    9[COMRAM] unsigned char 
 13723 ;;  sign1           1    8[COMRAM] unsigned char 
 13724 ;; Return value:  Size  Location     Type
 13725 ;;                  4    0[COMRAM] long 
 13726 ;; Registers used:
 13727 ;;		wreg, status,2, status,0
 13728 ;; Tracked objects:
 13729 ;;		On entry : 0/0
 13730 ;;		On exit  : 0/0
 13731 ;;		Unchanged: 0/0
 13732 ;; Data sizes:     COMRAM   BANK0   BANK1   BANK2   BANK3   BANK4   BANK5   BANK6   BANK7
 13733 ;;      Params:         4       0       0       0       0       0       0       0       0
 13734 ;;      Locals:         2       0       0       0       0       0       0       0       0
 13735 ;;      Temps:          4       0       0       0       0       0       0       0       0
 13736 ;;      Totals:        10       0       0       0       0       0       0       0       0
 13737 ;;Total ram usage:       10 bytes
 13738 ;; Hardware stack levels used:    1
 13739 ;; This function calls:
 13740 ;;		Nothing
 13741 ;; This function is called by:
 13742 ;;		_dameGrados
 13743 ;;		_efgtoa
 13744 ;; This function uses a non-reentrant model
 13745 ;;
 13746                           
 13747                           	psect	text51
 13748  005078                     __ptext51:
 13749                           	opt callstack 0
 13750  005078                     ___fltol:
 13751                           	opt callstack 26
 13752  005078  3403               	rlcf	(___fltol@f1+2)^0,w,c
 13753  00507A  3404               	rlcf	(___fltol@f1+3)^0,w,c
 13754  00507C  6E0A               	movwf	___fltol@exp1^0,c
 13755  00507E  500A               	movf	___fltol@exp1^0,w,c
 13756  005080  A4D8               	btfss	status,2,c
 13757  005082  EF45  F028         	goto	u5901
 13758  005086  EF47  F028         	goto	u5900
 13759  00508A                     u5901:
 13760  00508A  EF51  F028         	goto	l4835
 13761  00508E                     u5900:
 13762  00508E                     l4831:
 13763  00508E  0E00               	movlw	0
 13764  005090  6E01               	movwf	?___fltol^0,c
 13765  005092  0E00               	movlw	0
 13766  005094  6E02               	movwf	(?___fltol+1)^0,c
 13767  005096  0E00               	movlw	0
 13768  005098  6E03               	movwf	(?___fltol+2)^0,c
 13769  00509A  0E00               	movlw	0
 13770  00509C  6E04               	movwf	(?___fltol+3)^0,c
 13771  00509E  EFBE  F028         	goto	l727
 13772  0050A2                     l4835:
 13773  0050A2  C001  F005         	movff	___fltol@f1,??___fltol
 13774  0050A6  C002  F006         	movff	___fltol@f1+1,??___fltol+1
 13775  0050AA  C003  F007         	movff	___fltol@f1+2,??___fltol+2
 13776  0050AE  C004  F008         	movff	___fltol@f1+3,??___fltol+3
 13777  0050B2  0E20               	movlw	32
 13778  0050B4  EF61  F028         	goto	u5910
 13779  0050B8                     u5915:
 13780  0050B8  90D8               	bcf	status,0,c
 13781  0050BA  3208               	rrcf	(??___fltol+3)^0,f,c
 13782  0050BC  3207               	rrcf	(??___fltol+2)^0,f,c
 13783  0050BE  3206               	rrcf	(??___fltol+1)^0,f,c
 13784  0050C0  3205               	rrcf	??___fltol^0,f,c
 13785  0050C2                     u5910:
 13786  0050C2  2EE8               	decfsz	wreg,f,c
 13787  0050C4  EF5C  F028         	goto	u5915
 13788  0050C8  5005               	movf	??___fltol^0,w,c
 13789  0050CA  6E09               	movwf	___fltol@sign1^0,c
 13790  0050CC  8E03               	bsf	(___fltol@f1+2)^0,7,c
 13791  0050CE  0EFF               	movlw	255
 13792  0050D0  1601               	andwf	___fltol@f1^0,f,c
 13793  0050D2  0EFF               	movlw	255
 13794  0050D4  1602               	andwf	(___fltol@f1+1)^0,f,c
 13795  0050D6  0EFF               	movlw	255
 13796  0050D8  1603               	andwf	(___fltol@f1+2)^0,f,c
 13797  0050DA  0E00               	movlw	0
 13798  0050DC  1604               	andwf	(___fltol@f1+3)^0,f,c
 13799  0050DE  0E96               	movlw	150
 13800  0050E0  5E0A               	subwf	___fltol@exp1^0,f,c
 13801  0050E2  BE0A               	btfsc	___fltol@exp1^0,7,c
 13802  0050E4  EF78  F028         	goto	u5920
 13803  0050E8  EF76  F028         	goto	u5921
 13804  0050EC                     u5921:
 13805  0050EC  EF8E  F028         	goto	l4855
 13806  0050F0                     u5920:
 13807  0050F0  500A               	movf	___fltol@exp1^0,w,c
 13808  0050F2  0A80               	xorlw	128
 13809  0050F4  0F97               	addlw	151
 13810  0050F6  B0D8               	btfsc	status,0,c
 13811  0050F8  EF80  F028         	goto	u5931
 13812  0050FC  EF82  F028         	goto	u5930
 13813  005100                     u5931:
 13814  005100  EF84  F028         	goto	l4851
 13815  005104                     u5930:
 13816  005104  EF47  F028         	goto	l4831
 13817  005108                     l4851:
 13818  005108  90D8               	bcf	status,0,c
 13819  00510A  3204               	rrcf	(___fltol@f1+3)^0,f,c
 13820  00510C  3203               	rrcf	(___fltol@f1+2)^0,f,c
 13821  00510E  3202               	rrcf	(___fltol@f1+1)^0,f,c
 13822  005110  3201               	rrcf	___fltol@f1^0,f,c
 13823  005112  3E0A               	incfsz	___fltol@exp1^0,f,c
 13824  005114  EF84  F028         	goto	l4851
 13825  005118  EFA6  F028         	goto	l4865
 13826  00511C                     l4855:
 13827  00511C  0E1F               	movlw	31
 13828  00511E  640A               	cpfsgt	___fltol@exp1^0,c
 13829  005120  EF94  F028         	goto	u5941
 13830  005124  EF96  F028         	goto	u5940
 13831  005128                     u5941:
 13832  005128  EF9E  F028         	goto	l4863
 13833  00512C                     u5940:
 13834  00512C  EF47  F028         	goto	l4831
 13835  005130                     l4861:
 13836  005130  90D8               	bcf	status,0,c
 13837  005132  3601               	rlcf	___fltol@f1^0,f,c
 13838  005134  3602               	rlcf	(___fltol@f1+1)^0,f,c
 13839  005136  3603               	rlcf	(___fltol@f1+2)^0,f,c
 13840  005138  3604               	rlcf	(___fltol@f1+3)^0,f,c
 13841  00513A  060A               	decf	___fltol@exp1^0,f,c
 13842  00513C                     l4863:
 13843  00513C  500A               	movf	___fltol@exp1^0,w,c
 13844  00513E  A4D8               	btfss	status,2,c
 13845  005140  EFA4  F028         	goto	u5951
 13846  005144  EFA6  F028         	goto	u5950
 13847  005148                     u5951:
 13848  005148  EF98  F028         	goto	l4861
 13849  00514C                     u5950:
 13850  00514C                     l4865:
 13851  00514C  5009               	movf	___fltol@sign1^0,w,c
 13852  00514E  B4D8               	btfsc	status,2,c
 13853  005150  EFAC  F028         	goto	u5961
 13854  005154  EFAE  F028         	goto	u5960
 13855  005158                     u5961:
 13856  005158  EFB6  F028         	goto	l4869
 13857  00515C                     u5960:
 13858  00515C  1E04               	comf	(___fltol@f1+3)^0,f,c
 13859  00515E  1E03               	comf	(___fltol@f1+2)^0,f,c
 13860  005160  1E02               	comf	(___fltol@f1+1)^0,f,c
 13861  005162  6C01               	negf	___fltol@f1^0,c
 13862  005164  0E00               	movlw	0
 13863  005166  2202               	addwfc	(___fltol@f1+1)^0,f,c
 13864  005168  2203               	addwfc	(___fltol@f1+2)^0,f,c
 13865  00516A  2204               	addwfc	(___fltol@f1+3)^0,f,c
 13866  00516C                     l4869:
 13867  00516C  C001  F001         	movff	___fltol@f1,?___fltol
 13868  005170  C002  F002         	movff	___fltol@f1+1,?___fltol+1
 13869  005174  C003  F003         	movff	___fltol@f1+2,?___fltol+2
 13870  005178  C004  F004         	movff	___fltol@f1+3,?___fltol+3
 13871  00517C                     l727:
 13872  00517C  0012               	return		;funcret
 13873  00517E                     __end_of___fltol:
 13874                           	opt callstack 0
 13875                           
 13876 ;; *************** function ___flsub *****************
 13877 ;; Defined at:
 13878 ;;		line 245 in file "/opt/microchip/xc8/v2.10/pic/sources/c99/common/sprcadd.c"
 13879 ;; Parameters:    Size  Location     Type
 13880 ;;  b               4   66[COMRAM] long 
 13881 ;;  a               4   70[COMRAM] long 
 13882 ;; Auto vars:     Size  Location     Type
 13883 ;;		None
 13884 ;; Return value:  Size  Location     Type
 13885 ;;                  4   66[COMRAM] long 
 13886 ;; Registers used:
 13887 ;;		wreg, status,2, status,0, cstack
 13888 ;; Tracked objects:
 13889 ;;		On entry : 0/0
 13890 ;;		On exit  : 0/0
 13891 ;;		Unchanged: 0/0
 13892 ;; Data sizes:     COMRAM   BANK0   BANK1   BANK2   BANK3   BANK4   BANK5   BANK6   BANK7
 13893 ;;      Params:         8       0       0       0       0       0       0       0       0
 13894 ;;      Locals:         0       0       0       0       0       0       0       0       0
 13895 ;;      Temps:          0       0       0       0       0       0       0       0       0
 13896 ;;      Totals:         8       0       0       0       0       0       0       0       0
 13897 ;;Total ram usage:        8 bytes
 13898 ;; Hardware stack levels used:    1
 13899 ;; Hardware stack levels required when called:    1
 13900 ;; This function calls:
 13901 ;;		___fladd
 13902 ;; This function is called by:
 13903 ;;		_dameGrados
 13904 ;;		_efgtoa
 13905 ;; This function uses a non-reentrant model
 13906 ;;
 13907                           
 13908                           	psect	text52
 13909  005FC6                     __ptext52:
 13910                           	opt callstack 0
 13911  005FC6                     ___flsub:
 13912                           	opt callstack 25
 13913  005FC6  0E00               	movlw	0
 13914  005FC8  1A47               	xorwf	___flsub@a^0,f,c
 13915  005FCA  0E00               	movlw	0
 13916  005FCC  1A48               	xorwf	(___flsub@a+1)^0,f,c
 13917  005FCE  0E00               	movlw	0
 13918  005FD0  1A49               	xorwf	(___flsub@a+2)^0,f,c
 13919  005FD2  0E80               	movlw	128
 13920  005FD4  1A4A               	xorwf	(___flsub@a+3)^0,f,c
 13921  005FD6  C043  F033         	movff	___flsub@b,___fladd@b
 13922  005FDA  C044  F034         	movff	___flsub@b+1,___fladd@b+1
 13923  005FDE  C045  F035         	movff	___flsub@b+2,___fladd@b+2
 13924  005FE2  C046  F036         	movff	___flsub@b+3,___fladd@b+3
 13925  005FE6  C047  F037         	movff	___flsub@a,___fladd@a
 13926  005FEA  C048  F038         	movff	___flsub@a+1,___fladd@a+1
 13927  005FEE  C049  F039         	movff	___flsub@a+2,___fladd@a+2
 13928  005FF2  C04A  F03A         	movff	___flsub@a+3,___fladd@a+3
 13929  005FF6  ECEA  F015         	call	___fladd	;wreg free
 13930  005FFA  C033  F043         	movff	?___fladd,?___flsub
 13931  005FFE  C034  F044         	movff	?___fladd+1,?___flsub+1
 13932  006002  C035  F045         	movff	?___fladd+2,?___flsub+2
 13933  006006  C036  F046         	movff	?___fladd+3,?___flsub+3
 13934  00600A  0012               	return		;funcret
 13935  00600C                     __end_of___flsub:
 13936                           	opt callstack 0
 13937                           
 13938 ;; *************** function ___fladd *****************
 13939 ;; Defined at:
 13940 ;;		line 10 in file "/opt/microchip/xc8/v2.10/pic/sources/c99/common/sprcadd.c"
 13941 ;; Parameters:    Size  Location     Type
 13942 ;;  b               4   50[COMRAM] long 
 13943 ;;  a               4   54[COMRAM] long 
 13944 ;; Auto vars:     Size  Location     Type
 13945 ;;  grs             1   65[COMRAM] unsigned char 
 13946 ;;  bexp            1   64[COMRAM] unsigned char 
 13947 ;;  aexp            1   63[COMRAM] unsigned char 
 13948 ;;  signs           1   62[COMRAM] unsigned char 
 13949 ;; Return value:  Size  Location     Type
 13950 ;;                  4   50[COMRAM] unsigned char 
 13951 ;; Registers used:
 13952 ;;		wreg, status,2, status,0
 13953 ;; Tracked objects:
 13954 ;;		On entry : 0/0
 13955 ;;		On exit  : 0/0
 13956 ;;		Unchanged: 0/0
 13957 ;; Data sizes:     COMRAM   BANK0   BANK1   BANK2   BANK3   BANK4   BANK5   BANK6   BANK7
 13958 ;;      Params:         8       0       0       0       0       0       0       0       0
 13959 ;;      Locals:         4       0       0       0       0       0       0       0       0
 13960 ;;      Temps:          4       0       0       0       0       0       0       0       0
 13961 ;;      Totals:        16       0       0       0       0       0       0       0       0
 13962 ;;Total ram usage:       16 bytes
 13963 ;; Hardware stack levels used:    1
 13964 ;; This function calls:
 13965 ;;		Nothing
 13966 ;; This function is called by:
 13967 ;;		_dameGrados
 13968 ;;		_efgtoa
 13969 ;;		___flsub
 13970 ;; This function uses a non-reentrant model
 13971 ;;
 13972                           
 13973                           	psect	text53
 13974  002BD4                     __ptext53:
 13975                           	opt callstack 0
 13976  002BD4                     ___fladd:
 13977                           	opt callstack 25
 13978  002BD4  5036               	movf	(___fladd@b+3)^0,w,c
 13979  002BD6  0B80               	andlw	128
 13980  002BD8  6E3F               	movwf	___fladd@signs^0,c
 13981  002BDA  5036               	movf	(___fladd@b+3)^0,w,c
 13982  002BDC  2436               	addwf	(___fladd@b+3)^0,w,c
 13983  002BDE  6E41               	movwf	___fladd@bexp^0,c
 13984  002BE0  AE35               	btfss	(___fladd@b+2)^0,7,c
 13985  002BE2  EFF5  F015         	goto	u4461
 13986  002BE6  EFF7  F015         	goto	u4460
 13987  002BEA                     u4461:
 13988  002BEA  EFF8  F015         	goto	l4053
 13989  002BEE                     u4460:
 13990  002BEE  8041               	bsf	___fladd@bexp^0,0,c
 13991  002BF0                     l4053:
 13992  002BF0  5041               	movf	___fladd@bexp^0,w,c
 13993  002BF2  B4D8               	btfsc	status,2,c
 13994  002BF4  EFFE  F015         	goto	u4471
 13995  002BF8  EF00  F016         	goto	u4470
 13996  002BFC                     u4471:
 13997  002BFC  EF15  F016         	goto	l4063
 13998  002C00                     u4470:
 13999  002C00  2841               	incf	___fladd@bexp^0,w,c
 14000  002C02  A4D8               	btfss	status,2,c
 14001  002C04  EF06  F016         	goto	u4481
 14002  002C08  EF08  F016         	goto	u4480
 14003  002C0C                     u4481:
 14004  002C0C  EF10  F016         	goto	l4059
 14005  002C10                     u4480:
 14006  002C10  0E00               	movlw	0
 14007  002C12  6E33               	movwf	___fladd@b^0,c
 14008  002C14  0E00               	movlw	0
 14009  002C16  6E34               	movwf	(___fladd@b+1)^0,c
 14010  002C18  0E00               	movlw	0
 14011  002C1A  6E35               	movwf	(___fladd@b+2)^0,c
 14012  002C1C  0E00               	movlw	0
 14013  002C1E  6E36               	movwf	(___fladd@b+3)^0,c
 14014  002C20                     l4059:
 14015  002C20  8E35               	bsf	(___fladd@b+2)^0,7,c
 14016  002C22  0E00               	movlw	0
 14017  002C24  6E36               	movwf	(___fladd@b+3)^0,c
 14018  002C26  EF1D  F016         	goto	l4065
 14019  002C2A                     l4063:
 14020  002C2A  0E00               	movlw	0
 14021  002C2C  6E33               	movwf	___fladd@b^0,c
 14022  002C2E  0E00               	movlw	0
 14023  002C30  6E34               	movwf	(___fladd@b+1)^0,c
 14024  002C32  0E00               	movlw	0
 14025  002C34  6E35               	movwf	(___fladd@b+2)^0,c
 14026  002C36  0E00               	movlw	0
 14027  002C38  6E36               	movwf	(___fladd@b+3)^0,c
 14028  002C3A                     l4065:
 14029  002C3A  503A               	movf	(___fladd@a+3)^0,w,c
 14030  002C3C  0B80               	andlw	128
 14031  002C3E  6E40               	movwf	___fladd@aexp^0,c
 14032  002C40  503F               	movf	___fladd@signs^0,w,c
 14033  002C42  1840               	xorwf	___fladd@aexp^0,w,c
 14034  002C44  B4D8               	btfsc	status,2,c
 14035  002C46  EF27  F016         	goto	u4491
 14036  002C4A  EF29  F016         	goto	u4490
 14037  002C4E                     u4491:
 14038  002C4E  EF2A  F016         	goto	l4071
 14039  002C52                     u4490:
 14040  002C52  8C3F               	bsf	___fladd@signs^0,6,c
 14041  002C54                     l4071:
 14042  002C54  503A               	movf	(___fladd@a+3)^0,w,c
 14043  002C56  243A               	addwf	(___fladd@a+3)^0,w,c
 14044  002C58  6E40               	movwf	___fladd@aexp^0,c
 14045  002C5A  AE39               	btfss	(___fladd@a+2)^0,7,c
 14046  002C5C  EF32  F016         	goto	u4501
 14047  002C60  EF34  F016         	goto	u4500
 14048  002C64                     u4501:
 14049  002C64  EF35  F016         	goto	l4077
 14050  002C68                     u4500:
 14051  002C68  8040               	bsf	___fladd@aexp^0,0,c
 14052  002C6A                     l4077:
 14053  002C6A  5040               	movf	___fladd@aexp^0,w,c
 14054  002C6C  B4D8               	btfsc	status,2,c
 14055  002C6E  EF3B  F016         	goto	u4511
 14056  002C72  EF3D  F016         	goto	u4510
 14057  002C76                     u4511:
 14058  002C76  EF52  F016         	goto	l4087
 14059  002C7A                     u4510:
 14060  002C7A  2840               	incf	___fladd@aexp^0,w,c
 14061  002C7C  A4D8               	btfss	status,2,c
 14062  002C7E  EF43  F016         	goto	u4521
 14063  002C82  EF45  F016         	goto	u4520
 14064  002C86                     u4521:
 14065  002C86  EF4D  F016         	goto	l4083
 14066  002C8A                     u4520:
 14067  002C8A  0E00               	movlw	0
 14068  002C8C  6E37               	movwf	___fladd@a^0,c
 14069  002C8E  0E00               	movlw	0
 14070  002C90  6E38               	movwf	(___fladd@a+1)^0,c
 14071  002C92  0E00               	movlw	0
 14072  002C94  6E39               	movwf	(___fladd@a+2)^0,c
 14073  002C96  0E00               	movlw	0
 14074  002C98  6E3A               	movwf	(___fladd@a+3)^0,c
 14075  002C9A                     l4083:
 14076  002C9A  8E39               	bsf	(___fladd@a+2)^0,7,c
 14077  002C9C  0E00               	movlw	0
 14078  002C9E  6E3A               	movwf	(___fladd@a+3)^0,c
 14079  002CA0  EF5A  F016         	goto	l4089
 14080  002CA4                     l4087:
 14081  002CA4  0E00               	movlw	0
 14082  002CA6  6E37               	movwf	___fladd@a^0,c
 14083  002CA8  0E00               	movlw	0
 14084  002CAA  6E38               	movwf	(___fladd@a+1)^0,c
 14085  002CAC  0E00               	movlw	0
 14086  002CAE  6E39               	movwf	(___fladd@a+2)^0,c
 14087  002CB0  0E00               	movlw	0
 14088  002CB2  6E3A               	movwf	(___fladd@a+3)^0,c
 14089  002CB4                     l4089:
 14090  002CB4  5041               	movf	___fladd@bexp^0,w,c
 14091  002CB6  5C40               	subwf	___fladd@aexp^0,w,c
 14092  002CB8  B0D8               	btfsc	status,0,c
 14093  002CBA  EF61  F016         	goto	u4531
 14094  002CBE  EF63  F016         	goto	u4530
 14095  002CC2                     u4531:
 14096  002CC2  EF8A  F016         	goto	l4125
 14097  002CC6                     u4530:
 14098  002CC6  AC3F               	btfss	___fladd@signs^0,6,c
 14099  002CC8  EF68  F016         	goto	u4541
 14100  002CCC  EF6A  F016         	goto	u4540
 14101  002CD0                     u4541:
 14102  002CD0  EF6C  F016         	goto	l4095
 14103  002CD4                     u4540:
 14104  002CD4  0E80               	movlw	128
 14105  002CD6  1A3F               	xorwf	___fladd@signs^0,f,c
 14106  002CD8                     l4095:
 14107  002CD8  C041  F042         	movff	___fladd@bexp,___fladd@grs
 14108  002CDC  C040  F041         	movff	___fladd@aexp,___fladd@bexp
 14109  002CE0  C042  F040         	movff	___fladd@grs,___fladd@aexp
 14110  002CE4  C033  F042         	movff	___fladd@b,___fladd@grs
 14111  002CE8  C037  F033         	movff	___fladd@a,___fladd@b
 14112  002CEC  C042  F037         	movff	___fladd@grs,___fladd@a
 14113  002CF0  C034  F042         	movff	___fladd@b+1,___fladd@grs
 14114  002CF4  C038  F034         	movff	___fladd@a+1,___fladd@b+1
 14115  002CF8  C042  F038         	movff	___fladd@grs,___fladd@a+1
 14116  002CFC  C035  F042         	movff	___fladd@b+2,___fladd@grs
 14117  002D00  C039  F035         	movff	___fladd@a+2,___fladd@b+2
 14118  002D04  C042  F039         	movff	___fladd@grs,___fladd@a+2
 14119  002D08  C036  F042         	movff	___fladd@b+3,___fladd@grs
 14120  002D0C  C03A  F036         	movff	___fladd@a+3,___fladd@b+3
 14121  002D10  C042  F03A         	movff	___fladd@grs,___fladd@a+3
 14122  002D14                     l4125:
 14123  002D14  0E00               	movlw	0
 14124  002D16  6E42               	movwf	___fladd@grs^0,c
 14125  002D18  5041               	movf	___fladd@bexp^0,w,c
 14126  002D1A  C040  F03B         	movff	___fladd@aexp,??___fladd
 14127  002D1E  6A3C               	clrf	(??___fladd+1)^0,c
 14128  002D20  5E3B               	subwf	??___fladd^0,f,c
 14129  002D22  0E00               	movlw	0
 14130  002D24  5A3C               	subwfb	(??___fladd+1)^0,f,c
 14131  002D26  BE3C               	btfsc	(??___fladd+1)^0,7,c
 14132  002D28  EF9F  F016         	goto	u4551
 14133  002D2C  503C               	movf	(??___fladd+1)^0,w,c
 14134  002D2E  E109               	bnz	u4550
 14135  002D30  0E1A               	movlw	26
 14136  002D32  5C3B               	subwf	??___fladd^0,w,c
 14137  002D34  A0D8               	btfss	status,0,c
 14138  002D36  EF9F  F016         	goto	u4551
 14139  002D3A  EFA1  F016         	goto	u4550
 14140  002D3E                     u4551:
 14141  002D3E  EFD8  F016         	goto	l959
 14142  002D42                     u4550:
 14143  002D42  5033               	movf	___fladd@b^0,w,c
 14144  002D44  1034               	iorwf	(___fladd@b+1)^0,w,c
 14145  002D46  1035               	iorwf	(___fladd@b+2)^0,w,c
 14146  002D48  1036               	iorwf	(___fladd@b+3)^0,w,c
 14147  002D4A  A4D8               	btfss	status,2,c
 14148  002D4C  EFAA  F016         	goto	u4561
 14149  002D50  EFAD  F016         	goto	u4560
 14150  002D54                     u4561:
 14151  002D54  0E01               	movlw	1
 14152  002D56  EFAE  F016         	goto	u4570
 14153  002D5A                     u4560:
 14154  002D5A  0E00               	movlw	0
 14155  002D5C                     u4570:
 14156  002D5C  6E42               	movwf	___fladd@grs^0,c
 14157  002D5E  0E00               	movlw	0
 14158  002D60  6E33               	movwf	___fladd@b^0,c
 14159  002D62  0E00               	movlw	0
 14160  002D64  6E34               	movwf	(___fladd@b+1)^0,c
 14161  002D66  0E00               	movlw	0
 14162  002D68  6E35               	movwf	(___fladd@b+2)^0,c
 14163  002D6A  0E00               	movlw	0
 14164  002D6C  6E36               	movwf	(___fladd@b+3)^0,c
 14165  002D6E  C040  F041         	movff	___fladd@aexp,___fladd@bexp
 14166  002D72  EFE1  F016         	goto	l958
 14167  002D76                     l960:
 14168  002D76  A042               	btfss	___fladd@grs^0,0,c
 14169  002D78  EFC0  F016         	goto	u4581
 14170  002D7C  EFC2  F016         	goto	u4580
 14171  002D80                     u4581:
 14172  002D80  EFC8  F016         	goto	l4137
 14173  002D84                     u4580:
 14174  002D84  90D8               	bcf	status,0,c
 14175  002D86  3042               	rrcf	___fladd@grs^0,w,c
 14176  002D88  0901               	iorlw	1
 14177  002D8A  6E42               	movwf	___fladd@grs^0,c
 14178  002D8C  EFCA  F016         	goto	l4139
 14179  002D90                     l4137:
 14180  002D90  90D8               	bcf	status,0,c
 14181  002D92  3242               	rrcf	___fladd@grs^0,f,c
 14182  002D94                     l4139:
 14183  002D94  A033               	btfss	___fladd@b^0,0,c
 14184  002D96  EFCF  F016         	goto	u4591
 14185  002D9A  EFD1  F016         	goto	u4590
 14186  002D9E                     u4591:
 14187  002D9E  EFD2  F016         	goto	l4143
 14188  002DA2                     u4590:
 14189  002DA2  8E42               	bsf	___fladd@grs^0,7,c
 14190  002DA4                     l4143:
 14191  002DA4  3436               	rlcf	(___fladd@b+3)^0,w,c
 14192  002DA6  3236               	rrcf	(___fladd@b+3)^0,f,c
 14193  002DA8  3235               	rrcf	(___fladd@b+2)^0,f,c
 14194  002DAA  3234               	rrcf	(___fladd@b+1)^0,f,c
 14195  002DAC  3233               	rrcf	___fladd@b^0,f,c
 14196  002DAE  2A41               	incf	___fladd@bexp^0,f,c
 14197  002DB0                     l959:
 14198  002DB0  5040               	movf	___fladd@aexp^0,w,c
 14199  002DB2  5C41               	subwf	___fladd@bexp^0,w,c
 14200  002DB4  A0D8               	btfss	status,0,c
 14201  002DB6  EFDF  F016         	goto	u4601
 14202  002DBA  EFE1  F016         	goto	u4600
 14203  002DBE                     u4601:
 14204  002DBE  EFBB  F016         	goto	l960
 14205  002DC2                     u4600:
 14206  002DC2                     l958:
 14207  002DC2  BC3F               	btfsc	___fladd@signs^0,6,c
 14208  002DC4  EFE6  F016         	goto	u4611
 14209  002DC8  EFE8  F016         	goto	u4610
 14210  002DCC                     u4611:
 14211  002DCC  EF28  F017         	goto	l4171
 14212  002DD0                     u4610:
 14213  002DD0  5041               	movf	___fladd@bexp^0,w,c
 14214  002DD2  A4D8               	btfss	status,2,c
 14215  002DD4  EFEE  F016         	goto	u4621
 14216  002DD8  EFF0  F016         	goto	u4620
 14217  002DDC                     u4621:
 14218  002DDC  EFFA  F016         	goto	l4153
 14219  002DE0                     u4620:
 14220  002DE0  0E00               	movlw	0
 14221  002DE2  6E33               	movwf	?___fladd^0,c
 14222  002DE4  0E00               	movlw	0
 14223  002DE6  6E34               	movwf	(?___fladd+1)^0,c
 14224  002DE8  0E00               	movlw	0
 14225  002DEA  6E35               	movwf	(?___fladd+2)^0,c
 14226  002DEC  0E00               	movlw	0
 14227  002DEE  6E36               	movwf	(?___fladd+3)^0,c
 14228  002DF0  EF49  F018         	goto	l967
 14229  002DF4                     l4153:
 14230  002DF4  5037               	movf	___fladd@a^0,w,c
 14231  002DF6  2633               	addwf	___fladd@b^0,f,c
 14232  002DF8  5038               	movf	(___fladd@a+1)^0,w,c
 14233  002DFA  2234               	addwfc	(___fladd@b+1)^0,f,c
 14234  002DFC  5039               	movf	(___fladd@a+2)^0,w,c
 14235  002DFE  2235               	addwfc	(___fladd@b+2)^0,f,c
 14236  002E00  503A               	movf	(___fladd@a+3)^0,w,c
 14237  002E02  2236               	addwfc	(___fladd@b+3)^0,f,c
 14238  002E04  A036               	btfss	(___fladd@b+3)^0,0,c
 14239  002E06  EF07  F017         	goto	u4631
 14240  002E0A  EF09  F017         	goto	u4630
 14241  002E0E                     u4631:
 14242  002E0E  EFB5  F017         	goto	l4207
 14243  002E12                     u4630:
 14244  002E12  A042               	btfss	___fladd@grs^0,0,c
 14245  002E14  EF0E  F017         	goto	u4641
 14246  002E18  EF10  F017         	goto	u4640
 14247  002E1C                     u4641:
 14248  002E1C  EF16  F017         	goto	l4161
 14249  002E20                     u4640:
 14250  002E20  90D8               	bcf	status,0,c
 14251  002E22  3042               	rrcf	___fladd@grs^0,w,c
 14252  002E24  0901               	iorlw	1
 14253  002E26  6E42               	movwf	___fladd@grs^0,c
 14254  002E28  EF18  F017         	goto	l4163
 14255  002E2C                     l4161:
 14256  002E2C  90D8               	bcf	status,0,c
 14257  002E2E  3242               	rrcf	___fladd@grs^0,f,c
 14258  002E30                     l4163:
 14259  002E30  A033               	btfss	___fladd@b^0,0,c
 14260  002E32  EF1D  F017         	goto	u4651
 14261  002E36  EF1F  F017         	goto	u4650
 14262  002E3A                     u4651:
 14263  002E3A  EF20  F017         	goto	l4167
 14264  002E3E                     u4650:
 14265  002E3E  8E42               	bsf	___fladd@grs^0,7,c
 14266  002E40                     l4167:
 14267  002E40  3436               	rlcf	(___fladd@b+3)^0,w,c
 14268  002E42  3236               	rrcf	(___fladd@b+3)^0,f,c
 14269  002E44  3235               	rrcf	(___fladd@b+2)^0,f,c
 14270  002E46  3234               	rrcf	(___fladd@b+1)^0,f,c
 14271  002E48  3233               	rrcf	___fladd@b^0,f,c
 14272  002E4A  2A41               	incf	___fladd@bexp^0,f,c
 14273  002E4C  EFB5  F017         	goto	l4207
 14274  002E50                     l4171:
 14275  002E50  5037               	movf	___fladd@a^0,w,c
 14276  002E52  5C33               	subwf	___fladd@b^0,w,c
 14277  002E54  5038               	movf	(___fladd@a+1)^0,w,c
 14278  002E56  5834               	subwfb	(___fladd@b+1)^0,w,c
 14279  002E58  5039               	movf	(___fladd@a+2)^0,w,c
 14280  002E5A  5835               	subwfb	(___fladd@b+2)^0,w,c
 14281  002E5C  5036               	movf	(___fladd@b+3)^0,w,c
 14282  002E5E  0A80               	xorlw	128
 14283  002E60  6E3B               	movwf	??___fladd^0,c
 14284  002E62  503A               	movf	(___fladd@a+3)^0,w,c
 14285  002E64  0A80               	xorlw	128
 14286  002E66  583B               	subwfb	??___fladd^0,w,c
 14287  002E68  B0D8               	btfsc	status,0,c
 14288  002E6A  EF39  F017         	goto	u4661
 14289  002E6E  EF3B  F017         	goto	u4660
 14290  002E72                     u4661:
 14291  002E72  EF66  F017         	goto	l4181
 14292  002E76                     u4660:
 14293  002E76  5033               	movf	___fladd@b^0,w,c
 14294  002E78  5C37               	subwf	___fladd@a^0,w,c
 14295  002E7A  6E3B               	movwf	??___fladd^0,c
 14296  002E7C  5034               	movf	(___fladd@b+1)^0,w,c
 14297  002E7E  5838               	subwfb	(___fladd@a+1)^0,w,c
 14298  002E80  6E3C               	movwf	(??___fladd+1)^0,c
 14299  002E82  5035               	movf	(___fladd@b+2)^0,w,c
 14300  002E84  5839               	subwfb	(___fladd@a+2)^0,w,c
 14301  002E86  6E3D               	movwf	(??___fladd+2)^0,c
 14302  002E88  5036               	movf	(___fladd@b+3)^0,w,c
 14303  002E8A  583A               	subwfb	(___fladd@a+3)^0,w,c
 14304  002E8C  6E3E               	movwf	(??___fladd+3)^0,c
 14305  002E8E  0EFF               	movlw	255
 14306  002E90  243B               	addwf	??___fladd^0,w,c
 14307  002E92  6E33               	movwf	___fladd@b^0,c
 14308  002E94  0EFF               	movlw	255
 14309  002E96  203C               	addwfc	(??___fladd+1)^0,w,c
 14310  002E98  6E34               	movwf	(___fladd@b+1)^0,c
 14311  002E9A  0EFF               	movlw	255
 14312  002E9C  203D               	addwfc	(??___fladd+2)^0,w,c
 14313  002E9E  6E35               	movwf	(___fladd@b+2)^0,c
 14314  002EA0  0EFF               	movlw	255
 14315  002EA2  203E               	addwfc	(??___fladd+3)^0,w,c
 14316  002EA4  6E36               	movwf	(___fladd@b+3)^0,c
 14317  002EA6  0E80               	movlw	128
 14318  002EA8  1A3F               	xorwf	___fladd@signs^0,f,c
 14319  002EAA  6C42               	negf	___fladd@grs^0,c
 14320  002EAC  5042               	movf	___fladd@grs^0,w,c
 14321  002EAE  A4D8               	btfss	status,2,c
 14322  002EB0  EF5C  F017         	goto	u4671
 14323  002EB4  EF5E  F017         	goto	u4670
 14324  002EB8                     u4671:
 14325  002EB8  EF6E  F017         	goto	l975
 14326  002EBC                     u4670:
 14327  002EBC  0E01               	movlw	1
 14328  002EBE  2633               	addwf	___fladd@b^0,f,c
 14329  002EC0  0E00               	movlw	0
 14330  002EC2  2234               	addwfc	(___fladd@b+1)^0,f,c
 14331  002EC4  2235               	addwfc	(___fladd@b+2)^0,f,c
 14332  002EC6  2236               	addwfc	(___fladd@b+3)^0,f,c
 14333  002EC8  EF6E  F017         	goto	l975
 14334  002ECC                     l4181:
 14335  002ECC  5037               	movf	___fladd@a^0,w,c
 14336  002ECE  5E33               	subwf	___fladd@b^0,f,c
 14337  002ED0  5038               	movf	(___fladd@a+1)^0,w,c
 14338  002ED2  5A34               	subwfb	(___fladd@b+1)^0,f,c
 14339  002ED4  5039               	movf	(___fladd@a+2)^0,w,c
 14340  002ED6  5A35               	subwfb	(___fladd@b+2)^0,f,c
 14341  002ED8  503A               	movf	(___fladd@a+3)^0,w,c
 14342  002EDA  5A36               	subwfb	(___fladd@b+3)^0,f,c
 14343  002EDC                     l975:
 14344  002EDC  5033               	movf	___fladd@b^0,w,c
 14345  002EDE  1034               	iorwf	(___fladd@b+1)^0,w,c
 14346  002EE0  1035               	iorwf	(___fladd@b+2)^0,w,c
 14347  002EE2  1036               	iorwf	(___fladd@b+3)^0,w,c
 14348  002EE4  A4D8               	btfss	status,2,c
 14349  002EE6  EF77  F017         	goto	u4681
 14350  002EEA  EF79  F017         	goto	u4680
 14351  002EEE                     u4681:
 14352  002EEE  EFAE  F017         	goto	l4205
 14353  002EF2                     u4680:
 14354  002EF2  5042               	movf	___fladd@grs^0,w,c
 14355  002EF4  A4D8               	btfss	status,2,c
 14356  002EF6  EF7F  F017         	goto	u4691
 14357  002EFA  EF81  F017         	goto	u4690
 14358  002EFE                     u4691:
 14359  002EFE  EFAE  F017         	goto	l4205
 14360  002F02                     u4690:
 14361  002F02  0E00               	movlw	0
 14362  002F04  6E33               	movwf	?___fladd^0,c
 14363  002F06  0E00               	movlw	0
 14364  002F08  6E34               	movwf	(?___fladd+1)^0,c
 14365  002F0A  0E00               	movlw	0
 14366  002F0C  6E35               	movwf	(?___fladd+2)^0,c
 14367  002F0E  0E00               	movlw	0
 14368  002F10  6E36               	movwf	(?___fladd+3)^0,c
 14369  002F12  EF49  F018         	goto	l967
 14370  002F16                     l4189:
 14371  002F16  90D8               	bcf	status,0,c
 14372  002F18  3633               	rlcf	___fladd@b^0,f,c
 14373  002F1A  3634               	rlcf	(___fladd@b+1)^0,f,c
 14374  002F1C  3635               	rlcf	(___fladd@b+2)^0,f,c
 14375  002F1E  3636               	rlcf	(___fladd@b+3)^0,f,c
 14376  002F20  AE42               	btfss	___fladd@grs^0,7,c
 14377  002F22  EF95  F017         	goto	u4701
 14378  002F26  EF97  F017         	goto	u4700
 14379  002F2A                     u4701:
 14380  002F2A  EF98  F017         	goto	l4195
 14381  002F2E                     u4700:
 14382  002F2E  8033               	bsf	___fladd@b^0,0,c
 14383  002F30                     l4195:
 14384  002F30  A042               	btfss	___fladd@grs^0,0,c
 14385  002F32  EF9D  F017         	goto	u4711
 14386  002F36  EF9F  F017         	goto	u4710
 14387  002F3A                     u4711:
 14388  002F3A  EFA3  F017         	goto	l4199
 14389  002F3E                     u4710:
 14390  002F3E  80D8               	bsf	status,0,c
 14391  002F40  3642               	rlcf	___fladd@grs^0,f,c
 14392  002F42  EFA5  F017         	goto	l4201
 14393  002F46                     l4199:
 14394  002F46  90D8               	bcf	status,0,c
 14395  002F48  3642               	rlcf	___fladd@grs^0,f,c
 14396  002F4A                     l4201:
 14397  002F4A  5041               	movf	___fladd@bexp^0,w,c
 14398  002F4C  B4D8               	btfsc	status,2,c
 14399  002F4E  EFAB  F017         	goto	u4721
 14400  002F52  EFAD  F017         	goto	u4720
 14401  002F56                     u4721:
 14402  002F56  EFAE  F017         	goto	l4205
 14403  002F5A                     u4720:
 14404  002F5A  0641               	decf	___fladd@bexp^0,f,c
 14405  002F5C                     l4205:
 14406  002F5C  AE35               	btfss	(___fladd@b+2)^0,7,c
 14407  002F5E  EFB3  F017         	goto	u4731
 14408  002F62  EFB5  F017         	goto	u4730
 14409  002F66                     u4731:
 14410  002F66  EF8B  F017         	goto	l4189
 14411  002F6A                     u4730:
 14412  002F6A                     l4207:
 14413  002F6A  0E00               	movlw	0
 14414  002F6C  6E40               	movwf	___fladd@aexp^0,c
 14415  002F6E  AE42               	btfss	___fladd@grs^0,7,c
 14416  002F70  EFBC  F017         	goto	u4741
 14417  002F74  EFBE  F017         	goto	u4740
 14418  002F78                     u4741:
 14419  002F78  EFD6  F017         	goto	l984
 14420  002F7C                     u4740:
 14421  002F7C  C042  F03B         	movff	___fladd@grs,??___fladd
 14422  002F80  0E7F               	movlw	127
 14423  002F82  163B               	andwf	??___fladd^0,f,c
 14424  002F84  B4D8               	btfsc	status,2,c
 14425  002F86  EFC7  F017         	goto	u4751
 14426  002F8A  EFC9  F017         	goto	u4750
 14427  002F8E                     u4751:
 14428  002F8E  EFCD  F017         	goto	l985
 14429  002F92                     u4750:
 14430  002F92                     l4213:
 14431  002F92  0E01               	movlw	1
 14432  002F94  6E40               	movwf	___fladd@aexp^0,c
 14433  002F96  EFD6  F017         	goto	l984
 14434  002F9A                     l985:
 14435  002F9A  A033               	btfss	___fladd@b^0,0,c
 14436  002F9C  EFD2  F017         	goto	u4761
 14437  002FA0  EFD4  F017         	goto	u4760
 14438  002FA4                     u4761:
 14439  002FA4  EFD6  F017         	goto	l984
 14440  002FA8                     u4760:
 14441  002FA8  EFC9  F017         	goto	l4213
 14442  002FAC                     l984:
 14443  002FAC  5040               	movf	___fladd@aexp^0,w,c
 14444  002FAE  B4D8               	btfsc	status,2,c
 14445  002FB0  EFDC  F017         	goto	u4771
 14446  002FB4  EFDE  F017         	goto	u4770
 14447  002FB8                     u4771:
 14448  002FB8  EF09  F018         	goto	l4225
 14449  002FBC                     u4770:
 14450  002FBC  0E01               	movlw	1
 14451  002FBE  2633               	addwf	___fladd@b^0,f,c
 14452  002FC0  0E00               	movlw	0
 14453  002FC2  2234               	addwfc	(___fladd@b+1)^0,f,c
 14454  002FC4  2235               	addwfc	(___fladd@b+2)^0,f,c
 14455  002FC6  2236               	addwfc	(___fladd@b+3)^0,f,c
 14456  002FC8  A036               	btfss	(___fladd@b+3)^0,0,c
 14457  002FCA  EFE9  F017         	goto	u4781
 14458  002FCE  EFEB  F017         	goto	u4780
 14459  002FD2                     u4781:
 14460  002FD2  EF09  F018         	goto	l4225
 14461  002FD6                     u4780:
 14462  002FD6  C033  F03B         	movff	___fladd@b,??___fladd
 14463  002FDA  C034  F03C         	movff	___fladd@b+1,??___fladd+1
 14464  002FDE  C035  F03D         	movff	___fladd@b+2,??___fladd+2
 14465  002FE2  C036  F03E         	movff	___fladd@b+3,??___fladd+3
 14466  002FE6  343E               	rlcf	(??___fladd+3)^0,w,c
 14467  002FE8  323E               	rrcf	(??___fladd+3)^0,f,c
 14468  002FEA  323D               	rrcf	(??___fladd+2)^0,f,c
 14469  002FEC  323C               	rrcf	(??___fladd+1)^0,f,c
 14470  002FEE  323B               	rrcf	??___fladd^0,f,c
 14471  002FF0  C03B  F033         	movff	??___fladd,___fladd@b
 14472  002FF4  C03C  F034         	movff	??___fladd+1,___fladd@b+1
 14473  002FF8  C03D  F035         	movff	??___fladd+2,___fladd@b+2
 14474  002FFC  C03E  F036         	movff	??___fladd+3,___fladd@b+3
 14475  003000  2841               	incf	___fladd@bexp^0,w,c
 14476  003002  B4D8               	btfsc	status,2,c
 14477  003004  EF06  F018         	goto	u4791
 14478  003008  EF08  F018         	goto	u4790
 14479  00300C                     u4791:
 14480  00300C  EF09  F018         	goto	l4225
 14481  003010                     u4790:
 14482  003010  2A41               	incf	___fladd@bexp^0,f,c
 14483  003012                     l4225:
 14484  003012  2841               	incf	___fladd@bexp^0,w,c
 14485  003014  B4D8               	btfsc	status,2,c
 14486  003016  EF0F  F018         	goto	u4801
 14487  00301A  EF11  F018         	goto	u4800
 14488  00301E                     u4801:
 14489  00301E  EF19  F018         	goto	l4229
 14490  003022                     u4800:
 14491  003022  5041               	movf	___fladd@bexp^0,w,c
 14492  003024  A4D8               	btfss	status,2,c
 14493  003026  EF17  F018         	goto	u4811
 14494  00302A  EF19  F018         	goto	u4810
 14495  00302E                     u4811:
 14496  00302E  EF2B  F018         	goto	l4233
 14497  003032                     u4810:
 14498  003032                     l4229:
 14499  003032  0E00               	movlw	0
 14500  003034  6E33               	movwf	___fladd@b^0,c
 14501  003036  0E00               	movlw	0
 14502  003038  6E34               	movwf	(___fladd@b+1)^0,c
 14503  00303A  0E00               	movlw	0
 14504  00303C  6E35               	movwf	(___fladd@b+2)^0,c
 14505  00303E  0E00               	movlw	0
 14506  003040  6E36               	movwf	(___fladd@b+3)^0,c
 14507  003042  5041               	movf	___fladd@bexp^0,w,c
 14508  003044  A4D8               	btfss	status,2,c
 14509  003046  EF27  F018         	goto	u4821
 14510  00304A  EF29  F018         	goto	u4820
 14511  00304E                     u4821:
 14512  00304E  EF2B  F018         	goto	l4233
 14513  003052                     u4820:
 14514  003052  0E00               	movlw	0
 14515  003054  6E3F               	movwf	___fladd@signs^0,c
 14516  003056                     l4233:
 14517  003056  A041               	btfss	___fladd@bexp^0,0,c
 14518  003058  EF30  F018         	goto	u4831
 14519  00305C  EF32  F018         	goto	u4830
 14520  003060                     u4831:
 14521  003060  EF35  F018         	goto	l4237
 14522  003064                     u4830:
 14523  003064  8E35               	bsf	(___fladd@b+2)^0,7,c
 14524  003066  EF36  F018         	goto	l4239
 14525  00306A                     l4237:
 14526  00306A  9E35               	bcf	(___fladd@b+2)^0,7,c
 14527  00306C                     l4239:
 14528  00306C  90D8               	bcf	status,0,c
 14529  00306E  3041               	rrcf	___fladd@bexp^0,w,c
 14530  003070  6E36               	movwf	(___fladd@b+3)^0,c
 14531  003072  AE3F               	btfss	___fladd@signs^0,7,c
 14532  003074  EF3E  F018         	goto	u4841
 14533  003078  EF40  F018         	goto	u4840
 14534  00307C                     u4841:
 14535  00307C  EF41  F018         	goto	l4245
 14536  003080                     u4840:
 14537  003080  8E36               	bsf	(___fladd@b+3)^0,7,c
 14538  003082                     l4245:
 14539  003082  C033  F033         	movff	___fladd@b,?___fladd
 14540  003086  C034  F034         	movff	___fladd@b+1,?___fladd+1
 14541  00308A  C035  F035         	movff	___fladd@b+2,?___fladd+2
 14542  00308E  C036  F036         	movff	___fladd@b+3,?___fladd+3
 14543  003092                     l967:
 14544  003092  0012               	return		;funcret
 14545  003094                     __end_of___fladd:
 14546                           	opt callstack 0
 14547                           
 14548 ;; *************** function _dameDato *****************
 14549 ;; Defined at:
 14550 ;;		line 194 in file "main.c"
 14551 ;; Parameters:    Size  Location     Type
 14552 ;;  cadenaFragme    2    0[COMRAM] PTR unsigned char 
 14553 ;;		 -> main@cadenaFragmentada(65), 
 14554 ;;  numComas        2    2[COMRAM] int 
 14555 ;;  variable        2    4[COMRAM] PTR unsigned char 
 14556 ;;		 -> main@longitud(13), main@latitud(13), main@fecha(9), 
 14557 ;; Auto vars:     Size  Location     Type
 14558 ;;  i               2   13[COMRAM] int 
 14559 ;;  j               2   11[COMRAM] int 
 14560 ;;  comasContada    2    9[COMRAM] int 
 14561 ;; Return value:  Size  Location     Type
 14562 ;;                  1    wreg      void 
 14563 ;; Registers used:
 14564 ;;		wreg, fsr1l, fsr1h, fsr2l, fsr2h, status,2, status,0
 14565 ;; Tracked objects:
 14566 ;;		On entry : 0/0
 14567 ;;		On exit  : 0/0
 14568 ;;		Unchanged: 0/0
 14569 ;; Data sizes:     COMRAM   BANK0   BANK1   BANK2   BANK3   BANK4   BANK5   BANK6   BANK7
 14570 ;;      Params:         6       0       0       0       0       0       0       0       0
 14571 ;;      Locals:         6       0       0       0       0       0       0       0       0
 14572 ;;      Temps:          3       0       0       0       0       0       0       0       0
 14573 ;;      Totals:        15       0       0       0       0       0       0       0       0
 14574 ;;Total ram usage:       15 bytes
 14575 ;; Hardware stack levels used:    1
 14576 ;; This function calls:
 14577 ;;		Nothing
 14578 ;; This function is called by:
 14579 ;;		_main
 14580 ;; This function uses a non-reentrant model
 14581 ;;
 14582                           
 14583                           	psect	text54
 14584  005456                     __ptext54:
 14585                           	opt callstack 0
 14586  005456                     _dameDato:
 14587                           	opt callstack 30
 14588  005456                     
 14589                           ;main.c: 196:     if (cadenaFragmentada[0] != 'G') {
 14590  005456  C001  FFD9         	movff	dameDato@cadenaFragmentada,fsr2l
 14591  00545A  C002  FFDA         	movff	dameDato@cadenaFragmentada+1,fsr2h
 14592  00545E  0E47               	movlw	71
 14593  005460  18DE               	xorwf	postinc2,w,c
 14594  005462  B4D8               	btfsc	status,2,c
 14595  005464  EF36  F02A         	goto	u8631
 14596  005468  EF38  F02A         	goto	u8630
 14597  00546C                     u8631:
 14598  00546C  EF94  F02A         	goto	l174
 14599  005470                     u8630:
 14600  005470                     
 14601                           ;main.c: 197:         int comasContadas = 0;
 14602  005470  0E00               	movlw	0
 14603  005472  6E0B               	movwf	(dameDato@comasContadas+1)^0,c
 14604  005474  0E00               	movlw	0
 14605  005476  6E0A               	movwf	dameDato@comasContadas^0,c
 14606                           
 14607                           ;main.c: 198:         int i = 0;
 14608  005478  0E00               	movlw	0
 14609  00547A  6E0F               	movwf	(dameDato@i+1)^0,c
 14610  00547C  0E00               	movlw	0
 14611  00547E  6E0E               	movwf	dameDato@i^0,c
 14612                           
 14613                           ;main.c: 199:         int j = 0;
 14614  005480  0E00               	movlw	0
 14615  005482  6E0D               	movwf	(dameDato@j+1)^0,c
 14616  005484  0E00               	movlw	0
 14617  005486  6E0C               	movwf	dameDato@j^0,c
 14618                           
 14619                           ;main.c: 201:         while (comasContadas != numComas) {
 14620  005488  EF5D  F02A         	goto	l6373
 14621  00548C                     l6369:
 14622                           
 14623                           ;main.c: 202:             if (cadenaFragmentada[i++] == ',') {
 14624  00548C  500E               	movf	dameDato@i^0,w,c
 14625  00548E  6E07               	movwf	??_dameDato^0,c
 14626  005490  500F               	movf	(dameDato@i+1)^0,w,c
 14627  005492  6E08               	movwf	(??_dameDato+1)^0,c
 14628  005494  4A0E               	infsnz	dameDato@i^0,f,c
 14629  005496  2A0F               	incf	(dameDato@i+1)^0,f,c
 14630  005498  5007               	movf	??_dameDato^0,w,c
 14631  00549A  2401               	addwf	dameDato@cadenaFragmentada^0,w,c
 14632  00549C  6ED9               	movwf	fsr2l,c
 14633  00549E  5008               	movf	(??_dameDato+1)^0,w,c
 14634  0054A0  2002               	addwfc	(dameDato@cadenaFragmentada+1)^0,w,c
 14635  0054A2  6EDA               	movwf	fsr2h,c
 14636  0054A4  0E2C               	movlw	44
 14637  0054A6  18DE               	xorwf	postinc2,w,c
 14638  0054A8  A4D8               	btfss	status,2,c
 14639  0054AA  EF59  F02A         	goto	u8641
 14640  0054AE  EF5B  F02A         	goto	u8640
 14641  0054B2                     u8641:
 14642  0054B2  EF5D  F02A         	goto	l6373
 14643  0054B6                     u8640:
 14644  0054B6                     
 14645                           ;main.c: 203:                 comasContadas++;
 14646  0054B6  4A0A               	infsnz	dameDato@comasContadas^0,f,c
 14647  0054B8  2A0B               	incf	(dameDato@comasContadas+1)^0,f,c
 14648  0054BA                     l6373:
 14649                           
 14650                           ;main.c: 201:         while (comasContadas != numComas) {
 14651  0054BA  5003               	movf	dameDato@numComas^0,w,c
 14652  0054BC  180A               	xorwf	dameDato@comasContadas^0,w,c
 14653  0054BE  E107               	bnz	u8651
 14654  0054C0  5004               	movf	(dameDato@numComas+1)^0,w,c
 14655  0054C2  180B               	xorwf	(dameDato@comasContadas+1)^0,w,c
 14656  0054C4  A4D8               	btfss	status,2,c
 14657  0054C6  EF67  F02A         	goto	u8651
 14658  0054CA  EF69  F02A         	goto	u8650
 14659  0054CE                     u8651:
 14660  0054CE  EF46  F02A         	goto	l6369
 14661  0054D2                     u8650:
 14662  0054D2  EF7D  F02A         	goto	l6381
 14663  0054D6                     l6375:
 14664                           
 14665                           ;main.c: 208:             variable[j++] = cadenaFragmentada[i++];
 14666  0054D6  500E               	movf	dameDato@i^0,w,c
 14667  0054D8  2401               	addwf	dameDato@cadenaFragmentada^0,w,c
 14668  0054DA  6ED9               	movwf	fsr2l,c
 14669  0054DC  500F               	movf	(dameDato@i+1)^0,w,c
 14670  0054DE  2002               	addwfc	(dameDato@cadenaFragmentada+1)^0,w,c
 14671  0054E0  6EDA               	movwf	fsr2h,c
 14672  0054E2  500C               	movf	dameDato@j^0,w,c
 14673  0054E4  2405               	addwf	dameDato@variable^0,w,c
 14674  0054E6  6EE1               	movwf	fsr1l,c
 14675  0054E8  500D               	movf	(dameDato@j+1)^0,w,c
 14676  0054EA  2006               	addwfc	(dameDato@variable+1)^0,w,c
 14677  0054EC  6EE2               	movwf	fsr1h,c
 14678  0054EE  CFDF FFE7          	movff	indf2,indf1
 14679  0054F2  4A0E               	infsnz	dameDato@i^0,f,c
 14680  0054F4  2A0F               	incf	(dameDato@i+1)^0,f,c
 14681  0054F6  4A0C               	infsnz	dameDato@j^0,f,c
 14682  0054F8  2A0D               	incf	(dameDato@j+1)^0,f,c
 14683  0054FA                     l6381:
 14684                           
 14685                           ;main.c: 207:         while (cadenaFragmentada[i] != ',') {
 14686  0054FA  500E               	movf	dameDato@i^0,w,c
 14687  0054FC  2401               	addwf	dameDato@cadenaFragmentada^0,w,c
 14688  0054FE  6ED9               	movwf	fsr2l,c
 14689  005500  500F               	movf	(dameDato@i+1)^0,w,c
 14690  005502  2002               	addwfc	(dameDato@cadenaFragmentada+1)^0,w,c
 14691  005504  6EDA               	movwf	fsr2h,c
 14692  005506  0E2C               	movlw	44
 14693  005508  18DE               	xorwf	postinc2,w,c
 14694  00550A  A4D8               	btfss	status,2,c
 14695  00550C  EF8A  F02A         	goto	u8661
 14696  005510  EF8C  F02A         	goto	u8660
 14697  005514                     u8661:
 14698  005514  EF6B  F02A         	goto	l6375
 14699  005518                     u8660:
 14700  005518                     
 14701                           ;main.c: 211:         variable[j] = '\0';
 14702  005518  500C               	movf	dameDato@j^0,w,c
 14703  00551A  2405               	addwf	dameDato@variable^0,w,c
 14704  00551C  6ED9               	movwf	fsr2l,c
 14705  00551E  500D               	movf	(dameDato@j+1)^0,w,c
 14706  005520  2006               	addwfc	(dameDato@variable+1)^0,w,c
 14707  005522  6EDA               	movwf	fsr2h,c
 14708  005524  0E00               	movlw	0
 14709  005526  6EDF               	movwf	indf2,c
 14710  005528                     l174:
 14711  005528  0012               	return		;funcret
 14712  00552A                     __end_of_dameDato:
 14713                           	opt callstack 0
 14714                           
 14715 ;; *************** function _configurarAdc *****************
 14716 ;; Defined at:
 14717 ;;		line 32 in file "main.c"
 14718 ;; Parameters:    Size  Location     Type
 14719 ;;		None
 14720 ;; Auto vars:     Size  Location     Type
 14721 ;;		None
 14722 ;; Return value:  Size  Location     Type
 14723 ;;                  1    wreg      void 
 14724 ;; Registers used:
 14725 ;;		wreg, status,2
 14726 ;; Tracked objects:
 14727 ;;		On entry : 0/0
 14728 ;;		On exit  : 0/0
 14729 ;;		Unchanged: 0/0
 14730 ;; Data sizes:     COMRAM   BANK0   BANK1   BANK2   BANK3   BANK4   BANK5   BANK6   BANK7
 14731 ;;      Params:         0       0       0       0       0       0       0       0       0
 14732 ;;      Locals:         0       0       0       0       0       0       0       0       0
 14733 ;;      Temps:          0       0       0       0       0       0       0       0       0
 14734 ;;      Totals:         0       0       0       0       0       0       0       0       0
 14735 ;;Total ram usage:        0 bytes
 14736 ;; Hardware stack levels used:    1
 14737 ;; This function calls:
 14738 ;;		Nothing
 14739 ;; This function is called by:
 14740 ;;		_main
 14741 ;; This function uses a non-reentrant model
 14742 ;;
 14743                           
 14744                           	psect	text55
 14745  0062E0                     __ptext55:
 14746                           	opt callstack 0
 14747  0062E0                     _configurarAdc:
 14748                           	opt callstack 30
 14749  0062E0                     
 14750                           ;main.c: 33:     ADCON0bits.ADON = 1;
 14751  0062E0  80C2               	bsf	194,0,c	;volatile
 14752  0062E2                     
 14753                           ;main.c: 34:     ADCON1 = 0b00001110;
 14754  0062E2  0E0E               	movlw	14
 14755  0062E4  6EC1               	movwf	193,c	;volatile
 14756                           
 14757                           ;main.c: 35:     ADCON2 = 0b10100101;
 14758  0062E6  0EA5               	movlw	165
 14759  0062E8  6EC0               	movwf	192,c	;volatile
 14760                           
 14761                           ;main.c: 36:     TRISA = 0b000001;
 14762  0062EA  0E01               	movlw	1
 14763  0062EC  6E92               	movwf	146,c	;volatile
 14764  0062EE  0012               	return		;funcret
 14765  0062F0                     __end_of_configurarAdc:
 14766                           	opt callstack 0
 14767                           
 14768 ;; *************** function _UART_printf *****************
 14769 ;; Defined at:
 14770 ;;		line 39 in file "./UART.h"
 14771 ;; Parameters:    Size  Location     Type
 14772 ;;  cadena          2    1[COMRAM] PTR unsigned char 
 14773 ;;		 -> main@datoSalida(50), 
 14774 ;; Auto vars:     Size  Location     Type
 14775 ;;		None
 14776 ;; Return value:  Size  Location     Type
 14777 ;;                  1    wreg      void 
 14778 ;; Registers used:
 14779 ;;		wreg, fsr2l, fsr2h, status,2, status,0, cstack
 14780 ;; Tracked objects:
 14781 ;;		On entry : 0/0
 14782 ;;		On exit  : 0/0
 14783 ;;		Unchanged: 0/0
 14784 ;; Data sizes:     COMRAM   BANK0   BANK1   BANK2   BANK3   BANK4   BANK5   BANK6   BANK7
 14785 ;;      Params:         2       0       0       0       0       0       0       0       0
 14786 ;;      Locals:         0       0       0       0       0       0       0       0       0
 14787 ;;      Temps:          0       0       0       0       0       0       0       0       0
 14788 ;;      Totals:         2       0       0       0       0       0       0       0       0
 14789 ;;Total ram usage:        2 bytes
 14790 ;; Hardware stack levels used:    1
 14791 ;; Hardware stack levels required when called:    1
 14792 ;; This function calls:
 14793 ;;		_UART_write
 14794 ;; This function is called by:
 14795 ;;		_main
 14796 ;; This function uses a non-reentrant model
 14797 ;;
 14798                           
 14799                           	psect	text56
 14800  0061DE                     __ptext56:
 14801                           	opt callstack 0
 14802  0061DE                     _UART_printf:
 14803                           	opt callstack 29
 14804  0061DE                     
 14805                           ;./UART.h: 40:     while (*cadena) {
 14806  0061DE  EFFA  F030         	goto	l6173
 14807  0061E2                     l6169:
 14808                           
 14809                           ;./UART.h: 41:         UART_write(*cadena++);
 14810  0061E2  C002  FFD9         	movff	UART_printf@cadena,fsr2l
 14811  0061E6  C003  FFDA         	movff	UART_printf@cadena+1,fsr2h
 14812  0061EA  50DF               	movf	indf2,w,c
 14813  0061EC  EC5B  F031         	call	_UART_write
 14814  0061F0  4A02               	infsnz	UART_printf@cadena^0,f,c
 14815  0061F2  2A03               	incf	(UART_printf@cadena+1)^0,f,c
 14816  0061F4                     l6173:
 14817                           
 14818                           ;./UART.h: 40:     while (*cadena) {
 14819  0061F4  C002  FFD9         	movff	UART_printf@cadena,fsr2l
 14820  0061F8  C003  FFDA         	movff	UART_printf@cadena+1,fsr2h
 14821  0061FC  50DF               	movf	indf2,w,c
 14822  0061FE  A4D8               	btfss	status,2,c
 14823  006200  EF04  F031         	goto	u8481
 14824  006204  EF06  F031         	goto	u8480
 14825  006208                     u8481:
 14826  006208  EFF1  F030         	goto	l6169
 14827  00620C                     u8480:
 14828  00620C  0012               	return		;funcret
 14829  00620E                     __end_of_UART_printf:
 14830                           	opt callstack 0
 14831                           
 14832 ;; *************** function _UART_write *****************
 14833 ;; Defined at:
 14834 ;;		line 34 in file "./UART.h"
 14835 ;; Parameters:    Size  Location     Type
 14836 ;;  dato            1    wreg     unsigned char 
 14837 ;; Auto vars:     Size  Location     Type
 14838 ;;  dato            1    0[COMRAM] unsigned char 
 14839 ;; Return value:  Size  Location     Type
 14840 ;;                  1    wreg      void 
 14841 ;; Registers used:
 14842 ;;		wreg
 14843 ;; Tracked objects:
 14844 ;;		On entry : 0/0
 14845 ;;		On exit  : 0/0
 14846 ;;		Unchanged: 0/0
 14847 ;; Data sizes:     COMRAM   BANK0   BANK1   BANK2   BANK3   BANK4   BANK5   BANK6   BANK7
 14848 ;;      Params:         0       0       0       0       0       0       0       0       0
 14849 ;;      Locals:         1       0       0       0       0       0       0       0       0
 14850 ;;      Temps:          0       0       0       0       0       0       0       0       0
 14851 ;;      Totals:         1       0       0       0       0       0       0       0       0
 14852 ;;Total ram usage:        1 bytes
 14853 ;; Hardware stack levels used:    1
 14854 ;; This function calls:
 14855 ;;		Nothing
 14856 ;; This function is called by:
 14857 ;;		_UART_printf
 14858 ;; This function uses a non-reentrant model
 14859 ;;
 14860                           
 14861                           	psect	text57
 14862  0062B6                     __ptext57:
 14863                           	opt callstack 0
 14864  0062B6                     _UART_write:
 14865                           	opt callstack 29
 14866                           
 14867                           ;incstack = 0
 14868                           ;UART_write@dato stored from wreg
 14869  0062B6  6E01               	movwf	UART_write@dato^0,c
 14870  0062B8                     
 14871                           ;./UART.h: 35:     TXREG = dato;
 14872  0062B8  C001  FFAD         	movff	UART_write@dato,4013	;volatile
 14873  0062BC                     l66:
 14874  0062BC  A2AC               	btfss	4012,1,c	;volatile
 14875  0062BE  EF63  F031         	goto	u8361
 14876  0062C2  EF65  F031         	goto	u8360
 14877  0062C6                     u8361:
 14878  0062C6  EF5E  F031         	goto	l66
 14879  0062CA                     u8360:
 14880  0062CA  0012               	return		;funcret
 14881  0062CC                     __end_of_UART_write:
 14882                           	opt callstack 0
 14883                           
 14884 ;; *************** function _UART_init *****************
 14885 ;; Defined at:
 14886 ;;		line 6 in file "./UART.h"
 14887 ;; Parameters:    Size  Location     Type
 14888 ;;  BAUD            4   14[COMRAM] long 
 14889 ;; Auto vars:     Size  Location     Type
 14890 ;;  frecuenciaCr    4    0        long 
 14891 ;; Return value:  Size  Location     Type
 14892 ;;                  1    wreg      void 
 14893 ;; Registers used:
 14894 ;;		wreg, status,2, status,0, cstack
 14895 ;; Tracked objects:
 14896 ;;		On entry : 0/0
 14897 ;;		On exit  : 0/0
 14898 ;;		Unchanged: 0/0
 14899 ;; Data sizes:     COMRAM   BANK0   BANK1   BANK2   BANK3   BANK4   BANK5   BANK6   BANK7
 14900 ;;      Params:         4       0       0       0       0       0       0       0       0
 14901 ;;      Locals:         8       0       0       0       0       0       0       0       0
 14902 ;;      Temps:          0       0       0       0       0       0       0       0       0
 14903 ;;      Totals:        12       0       0       0       0       0       0       0       0
 14904 ;;Total ram usage:       12 bytes
 14905 ;; Hardware stack levels used:    1
 14906 ;; Hardware stack levels required when called:    1
 14907 ;; This function calls:
 14908 ;;		___aldiv
 14909 ;; This function is called by:
 14910 ;;		_main
 14911 ;; This function uses a non-reentrant model
 14912 ;;
 14913                           
 14914                           	psect	text58
 14915  005B60                     __ptext58:
 14916                           	opt callstack 0
 14917  005B60                     _UART_init:
 14918                           	opt callstack 29
 14919  005B60                     
 14920                           ;./UART.h: 8:     TRISCbits.TRISC6 = 0;
 14921  005B60  9C94               	bcf	148,6,c	;volatile
 14922  005B62                     
 14923                           ;./UART.h: 9:     TRISCbits.TRISC7 = 1;
 14924  005B62  8E94               	bsf	148,7,c	;volatile
 14925  005B64                     
 14926                           ;./UART.h: 12:     SPBRG = (frecuenciaCristal / 16 / BAUD) - 1;
 14927  005B64  0E10               	movlw	16
 14928  005B66  6E05               	movwf	___aldiv@divisor^0,c
 14929  005B68  0E00               	movlw	0
 14930  005B6A  6E06               	movwf	(___aldiv@divisor+1)^0,c
 14931  005B6C  0E00               	movlw	0
 14932  005B6E  6E07               	movwf	(___aldiv@divisor+2)^0,c
 14933  005B70  0E00               	movlw	0
 14934  005B72  6E08               	movwf	(___aldiv@divisor+3)^0,c
 14935  005B74  0E00               	movlw	0
 14936  005B76  6E01               	movwf	___aldiv@dividend^0,c
 14937  005B78  0E09               	movlw	9
 14938  005B7A  6E02               	movwf	(___aldiv@dividend+1)^0,c
 14939  005B7C  0E3D               	movlw	61
 14940  005B7E  6E03               	movwf	(___aldiv@dividend+2)^0,c
 14941  005B80  0E00               	movlw	0
 14942  005B82  6E04               	movwf	(___aldiv@dividend+3)^0,c
 14943  005B84  ECB6  F027         	call	___aldiv	;wreg free
 14944  005B88  C001  F017         	movff	?___aldiv,_UART_init$1619
 14945  005B8C  C002  F018         	movff	?___aldiv+1,_UART_init$1619+1
 14946  005B90  C003  F019         	movff	?___aldiv+2,_UART_init$1619+2
 14947  005B94  C004  F01A         	movff	?___aldiv+3,_UART_init$1619+3
 14948  005B98                     
 14949                           ;./UART.h: 12:     SPBRG = (frecuenciaCristal / 16 / BAUD) - 1;
 14950  005B98  C017  F001         	movff	_UART_init$1619,___aldiv@dividend
 14951  005B9C  C018  F002         	movff	_UART_init$1619+1,___aldiv@dividend+1
 14952  005BA0  C019  F003         	movff	_UART_init$1619+2,___aldiv@dividend+2
 14953  005BA4  C01A  F004         	movff	_UART_init$1619+3,___aldiv@dividend+3
 14954  005BA8  C00F  F005         	movff	UART_init@BAUD,___aldiv@divisor
 14955  005BAC  C010  F006         	movff	UART_init@BAUD+1,___aldiv@divisor+1
 14956  005BB0  C011  F007         	movff	UART_init@BAUD+2,___aldiv@divisor+2
 14957  005BB4  C012  F008         	movff	UART_init@BAUD+3,___aldiv@divisor+3
 14958  005BB8  ECB6  F027         	call	___aldiv	;wreg free
 14959  005BBC  0401               	decf	?___aldiv^0,w,c
 14960  005BBE  6EAF               	movwf	175,c	;volatile
 14961  005BC0                     
 14962                           ;./UART.h: 15:     TXSTAbits.BRGH = 1;
 14963  005BC0  84AC               	bsf	172,2,c	;volatile
 14964  005BC2                     
 14965                           ;./UART.h: 16:     TXSTAbits.SYNC = 0;
 14966  005BC2  98AC               	bcf	172,4,c	;volatile
 14967  005BC4                     
 14968                           ;./UART.h: 17:     RCSTAbits.SPEN = 1;
 14969  005BC4  8EAB               	bsf	171,7,c	;volatile
 14970  005BC6                     
 14971                           ;./UART.h: 20:     TXSTAbits.TX9 = 0;
 14972  005BC6  9CAC               	bcf	172,6,c	;volatile
 14973  005BC8                     
 14974                           ;./UART.h: 21:     TXSTAbits.TXEN = 1;
 14975  005BC8  8AAC               	bsf	172,5,c	;volatile
 14976  005BCA                     
 14977                           ;./UART.h: 24:     RCSTAbits.RC9 = 0;
 14978  005BCA  9CAB               	bcf	171,6,c	;volatile
 14979  005BCC                     
 14980                           ;./UART.h: 25:     RCSTAbits.CREN = 1;
 14981  005BCC  88AB               	bsf	171,4,c	;volatile
 14982  005BCE  0012               	return		;funcret
 14983  005BD0                     __end_of_UART_init:
 14984                           	opt callstack 0
 14985                           
 14986 ;; *************** function ___aldiv *****************
 14987 ;; Defined at:
 14988 ;;		line 7 in file "/opt/microchip/xc8/v2.10/pic/sources/c99/common/aldiv.c"
 14989 ;; Parameters:    Size  Location     Type
 14990 ;;  dividend        4    0[COMRAM] long 
 14991 ;;  divisor         4    4[COMRAM] long 
 14992 ;; Auto vars:     Size  Location     Type
 14993 ;;  quotient        4   10[COMRAM] long 
 14994 ;;  sign            1    9[COMRAM] unsigned char 
 14995 ;;  counter         1    8[COMRAM] unsigned char 
 14996 ;; Return value:  Size  Location     Type
 14997 ;;                  4    0[COMRAM] long 
 14998 ;; Registers used:
 14999 ;;		wreg, status,2, status,0
 15000 ;; Tracked objects:
 15001 ;;		On entry : 0/0
 15002 ;;		On exit  : 0/0
 15003 ;;		Unchanged: 0/0
 15004 ;; Data sizes:     COMRAM   BANK0   BANK1   BANK2   BANK3   BANK4   BANK5   BANK6   BANK7
 15005 ;;      Params:         8       0       0       0       0       0       0       0       0
 15006 ;;      Locals:         6       0       0       0       0       0       0       0       0
 15007 ;;      Temps:          0       0       0       0       0       0       0       0       0
 15008 ;;      Totals:        14       0       0       0       0       0       0       0       0
 15009 ;;Total ram usage:       14 bytes
 15010 ;; Hardware stack levels used:    1
 15011 ;; This function calls:
 15012 ;;		Nothing
 15013 ;; This function is called by:
 15014 ;;		_UART_init
 15015 ;; This function uses a non-reentrant model
 15016 ;;
 15017                           
 15018                           	psect	text59
 15019  004F6C                     __ptext59:
 15020                           	opt callstack 0
 15021  004F6C                     ___aldiv:
 15022                           	opt callstack 29
 15023  004F6C  0E00               	movlw	0
 15024  004F6E  6E0A               	movwf	___aldiv@sign^0,c
 15025  004F70  BE08               	btfsc	(___aldiv@divisor+3)^0,7,c
 15026  004F72  EFBF  F027         	goto	u8420
 15027  004F76  EFBD  F027         	goto	u8421
 15028  004F7A                     u8421:
 15029  004F7A  EFC9  F027         	goto	l6107
 15030  004F7E                     u8420:
 15031  004F7E  1E08               	comf	(___aldiv@divisor+3)^0,f,c
 15032  004F80  1E07               	comf	(___aldiv@divisor+2)^0,f,c
 15033  004F82  1E06               	comf	(___aldiv@divisor+1)^0,f,c
 15034  004F84  6C05               	negf	___aldiv@divisor^0,c
 15035  004F86  0E00               	movlw	0
 15036  004F88  2206               	addwfc	(___aldiv@divisor+1)^0,f,c
 15037  004F8A  2207               	addwfc	(___aldiv@divisor+2)^0,f,c
 15038  004F8C  2208               	addwfc	(___aldiv@divisor+3)^0,f,c
 15039  004F8E  0E01               	movlw	1
 15040  004F90  6E0A               	movwf	___aldiv@sign^0,c
 15041  004F92                     l6107:
 15042  004F92  BE04               	btfsc	(___aldiv@dividend+3)^0,7,c
 15043  004F94  EFD0  F027         	goto	u8430
 15044  004F98  EFCE  F027         	goto	u8431
 15045  004F9C                     u8431:
 15046  004F9C  EFDA  F027         	goto	l6113
 15047  004FA0                     u8430:
 15048  004FA0  1E04               	comf	(___aldiv@dividend+3)^0,f,c
 15049  004FA2  1E03               	comf	(___aldiv@dividend+2)^0,f,c
 15050  004FA4  1E02               	comf	(___aldiv@dividend+1)^0,f,c
 15051  004FA6  6C01               	negf	___aldiv@dividend^0,c
 15052  004FA8  0E00               	movlw	0
 15053  004FAA  2202               	addwfc	(___aldiv@dividend+1)^0,f,c
 15054  004FAC  2203               	addwfc	(___aldiv@dividend+2)^0,f,c
 15055  004FAE  2204               	addwfc	(___aldiv@dividend+3)^0,f,c
 15056  004FB0  0E01               	movlw	1
 15057  004FB2  1A0A               	xorwf	___aldiv@sign^0,f,c
 15058  004FB4                     l6113:
 15059  004FB4  0E00               	movlw	0
 15060  004FB6  6E0B               	movwf	___aldiv@quotient^0,c
 15061  004FB8  0E00               	movlw	0
 15062  004FBA  6E0C               	movwf	(___aldiv@quotient+1)^0,c
 15063  004FBC  0E00               	movlw	0
 15064  004FBE  6E0D               	movwf	(___aldiv@quotient+2)^0,c
 15065  004FC0  0E00               	movlw	0
 15066  004FC2  6E0E               	movwf	(___aldiv@quotient+3)^0,c
 15067  004FC4  5005               	movf	___aldiv@divisor^0,w,c
 15068  004FC6  1006               	iorwf	(___aldiv@divisor+1)^0,w,c
 15069  004FC8  1007               	iorwf	(___aldiv@divisor+2)^0,w,c
 15070  004FCA  1008               	iorwf	(___aldiv@divisor+3)^0,w,c
 15071  004FCC  B4D8               	btfsc	status,2,c
 15072  004FCE  EFEB  F027         	goto	u8441
 15073  004FD2  EFED  F027         	goto	u8440
 15074  004FD6                     u8441:
 15075  004FD6  EF23  F028         	goto	l6135
 15076  004FDA                     u8440:
 15077  004FDA  0E01               	movlw	1
 15078  004FDC  6E09               	movwf	___aldiv@counter^0,c
 15079  004FDE  EFF7  F027         	goto	l6121
 15080  004FE2                     l6119:
 15081  004FE2  90D8               	bcf	status,0,c
 15082  004FE4  3605               	rlcf	___aldiv@divisor^0,f,c
 15083  004FE6  3606               	rlcf	(___aldiv@divisor+1)^0,f,c
 15084  004FE8  3607               	rlcf	(___aldiv@divisor+2)^0,f,c
 15085  004FEA  3608               	rlcf	(___aldiv@divisor+3)^0,f,c
 15086  004FEC  2A09               	incf	___aldiv@counter^0,f,c
 15087  004FEE                     l6121:
 15088  004FEE  AE08               	btfss	(___aldiv@divisor+3)^0,7,c
 15089  004FF0  EFFC  F027         	goto	u8451
 15090  004FF4  EFFE  F027         	goto	u8450
 15091  004FF8                     u8451:
 15092  004FF8  EFF1  F027         	goto	l6119
 15093  004FFC                     u8450:
 15094  004FFC                     l6123:
 15095  004FFC  90D8               	bcf	status,0,c
 15096  004FFE  360B               	rlcf	___aldiv@quotient^0,f,c
 15097  005000  360C               	rlcf	(___aldiv@quotient+1)^0,f,c
 15098  005002  360D               	rlcf	(___aldiv@quotient+2)^0,f,c
 15099  005004  360E               	rlcf	(___aldiv@quotient+3)^0,f,c
 15100  005006  5005               	movf	___aldiv@divisor^0,w,c
 15101  005008  5C01               	subwf	___aldiv@dividend^0,w,c
 15102  00500A  5006               	movf	(___aldiv@divisor+1)^0,w,c
 15103  00500C  5802               	subwfb	(___aldiv@dividend+1)^0,w,c
 15104  00500E  5007               	movf	(___aldiv@divisor+2)^0,w,c
 15105  005010  5803               	subwfb	(___aldiv@dividend+2)^0,w,c
 15106  005012  5008               	movf	(___aldiv@divisor+3)^0,w,c
 15107  005014  5804               	subwfb	(___aldiv@dividend+3)^0,w,c
 15108  005016  A0D8               	btfss	status,0,c
 15109  005018  EF10  F028         	goto	u8461
 15110  00501C  EF12  F028         	goto	u8460
 15111  005020                     u8461:
 15112  005020  EF1B  F028         	goto	l6131
 15113  005024                     u8460:
 15114  005024  5005               	movf	___aldiv@divisor^0,w,c
 15115  005026  5E01               	subwf	___aldiv@dividend^0,f,c
 15116  005028  5006               	movf	(___aldiv@divisor+1)^0,w,c
 15117  00502A  5A02               	subwfb	(___aldiv@dividend+1)^0,f,c
 15118  00502C  5007               	movf	(___aldiv@divisor+2)^0,w,c
 15119  00502E  5A03               	subwfb	(___aldiv@dividend+2)^0,f,c
 15120  005030  5008               	movf	(___aldiv@divisor+3)^0,w,c
 15121  005032  5A04               	subwfb	(___aldiv@dividend+3)^0,f,c
 15122  005034  800B               	bsf	___aldiv@quotient^0,0,c
 15123  005036                     l6131:
 15124  005036  90D8               	bcf	status,0,c
 15125  005038  3208               	rrcf	(___aldiv@divisor+3)^0,f,c
 15126  00503A  3207               	rrcf	(___aldiv@divisor+2)^0,f,c
 15127  00503C  3206               	rrcf	(___aldiv@divisor+1)^0,f,c
 15128  00503E  3205               	rrcf	___aldiv@divisor^0,f,c
 15129  005040  2E09               	decfsz	___aldiv@counter^0,f,c
 15130  005042  EFFE  F027         	goto	l6123
 15131  005046                     l6135:
 15132  005046  500A               	movf	___aldiv@sign^0,w,c
 15133  005048  B4D8               	btfsc	status,2,c
 15134  00504A  EF29  F028         	goto	u8471
 15135  00504E  EF2B  F028         	goto	u8470
 15136  005052                     u8471:
 15137  005052  EF33  F028         	goto	l6139
 15138  005056                     u8470:
 15139  005056  1E0E               	comf	(___aldiv@quotient+3)^0,f,c
 15140  005058  1E0D               	comf	(___aldiv@quotient+2)^0,f,c
 15141  00505A  1E0C               	comf	(___aldiv@quotient+1)^0,f,c
 15142  00505C  6C0B               	negf	___aldiv@quotient^0,c
 15143  00505E  0E00               	movlw	0
 15144  005060  220C               	addwfc	(___aldiv@quotient+1)^0,f,c
 15145  005062  220D               	addwfc	(___aldiv@quotient+2)^0,f,c
 15146  005064  220E               	addwfc	(___aldiv@quotient+3)^0,f,c
 15147  005066                     l6139:
 15148  005066  C00B  F001         	movff	___aldiv@quotient,?___aldiv
 15149  00506A  C00C  F002         	movff	___aldiv@quotient+1,?___aldiv+1
 15150  00506E  C00D  F003         	movff	___aldiv@quotient+2,?___aldiv+2
 15151  005072  C00E  F004         	movff	___aldiv@quotient+3,?___aldiv+3
 15152  005076  0012               	return		;funcret
 15153  005078                     __end_of___aldiv:
 15154                           	opt callstack 0
 15155                           
 15156 ;; *************** function _Lcd_Init *****************
 15157 ;; Defined at:
 15158 ;;		line 66 in file "./lcd.h"
 15159 ;; Parameters:    Size  Location     Type
 15160 ;;		None
 15161 ;; Auto vars:     Size  Location     Type
 15162 ;;		None
 15163 ;; Return value:  Size  Location     Type
 15164 ;;                  1    wreg      void 
 15165 ;; Registers used:
 15166 ;;		wreg, status,2, cstack
 15167 ;; Tracked objects:
 15168 ;;		On entry : 0/0
 15169 ;;		On exit  : 0/0
 15170 ;;		Unchanged: 0/0
 15171 ;; Data sizes:     COMRAM   BANK0   BANK1   BANK2   BANK3   BANK4   BANK5   BANK6   BANK7
 15172 ;;      Params:         0       0       0       0       0       0       0       0       0
 15173 ;;      Locals:         0       0       0       0       0       0       0       0       0
 15174 ;;      Temps:          1       0       0       0       0       0       0       0       0
 15175 ;;      Totals:         1       0       0       0       0       0       0       0       0
 15176 ;;Total ram usage:        1 bytes
 15177 ;; Hardware stack levels used:    1
 15178 ;; Hardware stack levels required when called:    2
 15179 ;; This function calls:
 15180 ;;		_Lcd_Cmd
 15181 ;;		_Lcd_Port
 15182 ;; This function is called by:
 15183 ;;		_main
 15184 ;; This function uses a non-reentrant model
 15185 ;;
 15186                           
 15187                           	psect	text60
 15188  005A7E                     __ptext60:
 15189                           	opt callstack 0
 15190  005A7E                     _Lcd_Init:
 15191                           	opt callstack 28
 15192  005A7E                     
 15193                           ;./lcd.h: 68:   Lcd_Port(0x00);
 15194  005A7E  0E00               	movlw	0
 15195  005A80  EC3C  F02F         	call	_Lcd_Port
 15196  005A84                     
 15197                           ;./lcd.h: 69:    _delay((unsigned long)((20)*(4000000/4000.0)));
 15198  005A84  0E1A               	movlw	26
 15199  005A86  6E04               	movwf	??_Lcd_Init^0,c
 15200  005A88  0EF8               	movlw	248
 15201  005A8A                     u8797:
 15202  005A8A  2EE8               	decfsz	wreg,f,c
 15203  005A8C  D7FE               	bra	u8797
 15204  005A8E  2E04               	decfsz	??_Lcd_Init^0,f,c
 15205  005A90  D7FC               	bra	u8797
 15206  005A92  D000               	nop2	
 15207  005A94                     
 15208                           ;./lcd.h: 70:   Lcd_Cmd(0x03);
 15209  005A94  0E03               	movlw	3
 15210  005A96  EC3E  F031         	call	_Lcd_Cmd
 15211  005A9A                     
 15212                           ;./lcd.h: 71:  _delay((unsigned long)((5)*(4000000/4000.0)));
 15213  005A9A  0E07               	movlw	7
 15214  005A9C  6E04               	movwf	??_Lcd_Init^0,c
 15215  005A9E  0E7D               	movlw	125
 15216  005AA0                     u8807:
 15217  005AA0  2EE8               	decfsz	wreg,f,c
 15218  005AA2  D7FE               	bra	u8807
 15219  005AA4  2E04               	decfsz	??_Lcd_Init^0,f,c
 15220  005AA6  D7FC               	bra	u8807
 15221  005AA8  F000               	nop	
 15222  005AAA                     
 15223                           ;./lcd.h: 72:   Lcd_Cmd(0x03);
 15224  005AAA  0E03               	movlw	3
 15225  005AAC  EC3E  F031         	call	_Lcd_Cmd
 15226  005AB0                     
 15227                           ;./lcd.h: 73:  _delay((unsigned long)((11)*(4000000/4000.0)));
 15228  005AB0  0E0F               	movlw	15
 15229  005AB2  6E04               	movwf	??_Lcd_Init^0,c
 15230  005AB4  0E48               	movlw	72
 15231  005AB6                     u8817:
 15232  005AB6  2EE8               	decfsz	wreg,f,c
 15233  005AB8  D7FE               	bra	u8817
 15234  005ABA  2E04               	decfsz	??_Lcd_Init^0,f,c
 15235  005ABC  D7FC               	bra	u8817
 15236  005ABE                     
 15237                           ;./lcd.h: 74:   Lcd_Cmd(0x03);
 15238  005ABE  0E03               	movlw	3
 15239  005AC0  EC3E  F031         	call	_Lcd_Cmd
 15240  005AC4                     
 15241                           ;./lcd.h: 76:   Lcd_Cmd(0x02);
 15242  005AC4  0E02               	movlw	2
 15243  005AC6  EC3E  F031         	call	_Lcd_Cmd
 15244  005ACA                     
 15245                           ;./lcd.h: 77:   Lcd_Cmd(0x02);
 15246  005ACA  0E02               	movlw	2
 15247  005ACC  EC3E  F031         	call	_Lcd_Cmd
 15248  005AD0                     
 15249                           ;./lcd.h: 78:   Lcd_Cmd(0x08);
 15250  005AD0  0E08               	movlw	8
 15251  005AD2  EC3E  F031         	call	_Lcd_Cmd
 15252  005AD6                     
 15253                           ;./lcd.h: 79:   Lcd_Cmd(0x00);
 15254  005AD6  0E00               	movlw	0
 15255  005AD8  EC3E  F031         	call	_Lcd_Cmd
 15256  005ADC                     
 15257                           ;./lcd.h: 80:   Lcd_Cmd(0x0C);
 15258  005ADC  0E0C               	movlw	12
 15259  005ADE  EC3E  F031         	call	_Lcd_Cmd
 15260  005AE2                     
 15261                           ;./lcd.h: 81:   Lcd_Cmd(0x00);
 15262  005AE2  0E00               	movlw	0
 15263  005AE4  EC3E  F031         	call	_Lcd_Cmd
 15264  005AE8                     
 15265                           ;./lcd.h: 82:   Lcd_Cmd(0x06);
 15266  005AE8  0E06               	movlw	6
 15267  005AEA  EC3E  F031         	call	_Lcd_Cmd
 15268  005AEE  0012               	return		;funcret
 15269  005AF0                     __end_of_Lcd_Init:
 15270                           	opt callstack 0
 15271                           
 15272 ;; *************** function _Lcd_Cmd *****************
 15273 ;; Defined at:
 15274 ;;		line 30 in file "./lcd.h"
 15275 ;; Parameters:    Size  Location     Type
 15276 ;;  a               1    wreg     unsigned char 
 15277 ;; Auto vars:     Size  Location     Type
 15278 ;;  a               1    2[COMRAM] unsigned char 
 15279 ;; Return value:  Size  Location     Type
 15280 ;;                  1    wreg      void 
 15281 ;; Registers used:
 15282 ;;		wreg, status,2, cstack
 15283 ;; Tracked objects:
 15284 ;;		On entry : 0/0
 15285 ;;		On exit  : 0/0
 15286 ;;		Unchanged: 0/0
 15287 ;; Data sizes:     COMRAM   BANK0   BANK1   BANK2   BANK3   BANK4   BANK5   BANK6   BANK7
 15288 ;;      Params:         0       0       0       0       0       0       0       0       0
 15289 ;;      Locals:         1       0       0       0       0       0       0       0       0
 15290 ;;      Temps:          1       0       0       0       0       0       0       0       0
 15291 ;;      Totals:         2       0       0       0       0       0       0       0       0
 15292 ;;Total ram usage:        2 bytes
 15293 ;; Hardware stack levels used:    1
 15294 ;; Hardware stack levels required when called:    1
 15295 ;; This function calls:
 15296 ;;		_Lcd_Port
 15297 ;; This function is called by:
 15298 ;;		_Lcd_Clear
 15299 ;;		_Lcd_Set_Cursor
 15300 ;;		_Lcd_Init
 15301 ;; This function uses a non-reentrant model
 15302 ;;
 15303                           
 15304                           	psect	text61
 15305  00627C                     __ptext61:
 15306                           	opt callstack 0
 15307  00627C                     _Lcd_Cmd:
 15308                           	opt callstack 27
 15309                           
 15310                           ;incstack = 0
 15311                           ;Lcd_Cmd@a stored from wreg
 15312  00627C  6E03               	movwf	Lcd_Cmd@a^0,c
 15313  00627E                     
 15314                           ;./lcd.h: 30: void Lcd_Cmd(char a);./lcd.h: 31: {;./lcd.h: 32:  LATD2 = 0;
 15315  00627E  948C               	bcf	3980,2,c	;volatile
 15316  006280                     
 15317                           ;./lcd.h: 33:  Lcd_Port(a);
 15318  006280  5003               	movf	Lcd_Cmd@a^0,w,c
 15319  006282  EC3C  F02F         	call	_Lcd_Port
 15320  006286                     
 15321                           ;./lcd.h: 34:  LATD3 = 1;
 15322  006286  868C               	bsf	3980,3,c	;volatile
 15323  006288                     
 15324                           ;./lcd.h: 35:         _delay((unsigned long)((4)*(4000000/4000.0)));
 15325  006288  0E06               	movlw	6
 15326  00628A  6E02               	movwf	??_Lcd_Cmd^0,c
 15327  00628C  0E30               	movlw	48
 15328  00628E                     u8827:
 15329  00628E  2EE8               	decfsz	wreg,f,c
 15330  006290  D7FE               	bra	u8827
 15331  006292  2E02               	decfsz	??_Lcd_Cmd^0,f,c
 15332  006294  D7FC               	bra	u8827
 15333  006296  D000               	nop2	
 15334  006298                     
 15335                           ;./lcd.h: 36:         LATD3 = 0;
 15336  006298  968C               	bcf	3980,3,c	;volatile
 15337  00629A  0012               	return		;funcret
 15338  00629C                     __end_of_Lcd_Cmd:
 15339                           	opt callstack 0
 15340                           
 15341 ;; *************** function _Lcd_Port *****************
 15342 ;; Defined at:
 15343 ;;		line 8 in file "./lcd.h"
 15344 ;; Parameters:    Size  Location     Type
 15345 ;;  a               1    wreg     unsigned char 
 15346 ;; Auto vars:     Size  Location     Type
 15347 ;;  a               1    0[COMRAM] unsigned char 
 15348 ;; Return value:  Size  Location     Type
 15349 ;;                  1    wreg      void 
 15350 ;; Registers used:
 15351 ;;		wreg
 15352 ;; Tracked objects:
 15353 ;;		On entry : 0/0
 15354 ;;		On exit  : 0/0
 15355 ;;		Unchanged: 0/0
 15356 ;; Data sizes:     COMRAM   BANK0   BANK1   BANK2   BANK3   BANK4   BANK5   BANK6   BANK7
 15357 ;;      Params:         0       0       0       0       0       0       0       0       0
 15358 ;;      Locals:         1       0       0       0       0       0       0       0       0
 15359 ;;      Temps:          0       0       0       0       0       0       0       0       0
 15360 ;;      Totals:         1       0       0       0       0       0       0       0       0
 15361 ;;Total ram usage:        1 bytes
 15362 ;; Hardware stack levels used:    1
 15363 ;; This function calls:
 15364 ;;		Nothing
 15365 ;; This function is called by:
 15366 ;;		_Lcd_Cmd
 15367 ;;		_Lcd_Init
 15368 ;;		_Lcd_Write_Char
 15369 ;; This function uses a non-reentrant model
 15370 ;;
 15371                           
 15372                           	psect	text62
 15373  005E78                     __ptext62:
 15374                           	opt callstack 0
 15375  005E78                     _Lcd_Port:
 15376                           	opt callstack 27
 15377                           
 15378                           ;incstack = 0
 15379                           ;Lcd_Port@a stored from wreg
 15380  005E78  6E01               	movwf	Lcd_Port@a^0,c
 15381  005E7A                     
 15382                           ;./lcd.h: 8: void Lcd_Port(char a);./lcd.h: 9: {;./lcd.h: 10:  if(a & 1)
 15383  005E7A  A001               	btfss	Lcd_Port@a^0,0,c
 15384  005E7C  EF42  F02F         	goto	u6901
 15385  005E80  EF44  F02F         	goto	u6900
 15386  005E84                     u6901:
 15387  005E84  EF47  F02F         	goto	l78
 15388  005E88                     u6900:
 15389  005E88                     
 15390                           ;./lcd.h: 11:   LATD4 = 1;
 15391  005E88  888C               	bsf	3980,4,c	;volatile
 15392  005E8A  EF48  F02F         	goto	l5371
 15393  005E8E                     l78:
 15394                           
 15395                           ;./lcd.h: 13:   LATD4 = 0;
 15396  005E8E  988C               	bcf	3980,4,c	;volatile
 15397  005E90                     l5371:
 15398                           
 15399                           ;./lcd.h: 15:  if(a & 2)
 15400  005E90  A201               	btfss	Lcd_Port@a^0,1,c
 15401  005E92  EF4D  F02F         	goto	u6911
 15402  005E96  EF4F  F02F         	goto	u6910
 15403  005E9A                     u6911:
 15404  005E9A  EF52  F02F         	goto	l80
 15405  005E9E                     u6910:
 15406  005E9E                     
 15407                           ;./lcd.h: 16:   LATD5 = 1;
 15408  005E9E  8A8C               	bsf	3980,5,c	;volatile
 15409  005EA0  EF53  F02F         	goto	l5375
 15410  005EA4                     l80:
 15411                           
 15412                           ;./lcd.h: 18:   LATD5 = 0;
 15413  005EA4  9A8C               	bcf	3980,5,c	;volatile
 15414  005EA6                     l5375:
 15415                           
 15416                           ;./lcd.h: 20:  if(a & 4)
 15417  005EA6  A401               	btfss	Lcd_Port@a^0,2,c
 15418  005EA8  EF58  F02F         	goto	u6921
 15419  005EAC  EF5A  F02F         	goto	u6920
 15420  005EB0                     u6921:
 15421  005EB0  EF5D  F02F         	goto	l82
 15422  005EB4                     u6920:
 15423  005EB4                     
 15424                           ;./lcd.h: 21:   LATD6 = 1;
 15425  005EB4  8C8C               	bsf	3980,6,c	;volatile
 15426  005EB6  EF5E  F02F         	goto	l5379
 15427  005EBA                     l82:
 15428                           
 15429                           ;./lcd.h: 23:   LATD6 = 0;
 15430  005EBA  9C8C               	bcf	3980,6,c	;volatile
 15431  005EBC                     l5379:
 15432                           
 15433                           ;./lcd.h: 25:  if(a & 8)
 15434  005EBC  A601               	btfss	Lcd_Port@a^0,3,c
 15435  005EBE  EF63  F02F         	goto	u6931
 15436  005EC2  EF65  F02F         	goto	u6930
 15437  005EC6                     u6931:
 15438  005EC6  EF68  F02F         	goto	l84
 15439  005ECA                     u6930:
 15440  005ECA                     
 15441                           ;./lcd.h: 26:   LATD7 = 1;
 15442  005ECA  8E8C               	bsf	3980,7,c	;volatile
 15443  005ECC  EF69  F02F         	goto	l86
 15444  005ED0                     l84:
 15445                           
 15446                           ;./lcd.h: 28:   LATD7 = 0;
 15447  005ED0  9E8C               	bcf	3980,7,c	;volatile
 15448  005ED2                     l86:
 15449  005ED2  0012               	return		;funcret
 15450  005ED4                     __end_of_Lcd_Port:
 15451                           	opt callstack 0
 15452                           
 15453                           	psect	rparam
 15454  0000                     tosu	equ	0xFFF
 15455                           tosh	equ	0xFFE
 15456                           tosl	equ	0xFFD
 15457                           stkptr	equ	0xFFC
 15458                           pclatu	equ	0xFFB
 15459                           pclath	equ	0xFFA
 15460                           pcl	equ	0xFF9
 15461                           tblptru	equ	0xFF8
 15462                           tblptrh	equ	0xFF7
 15463                           tblptrl	equ	0xFF6
 15464                           tablat	equ	0xFF5
 15465                           prodh	equ	0xFF4
 15466                           prodl	equ	0xFF3
 15467                           indf0	equ	0xFEF
 15468                           postinc0	equ	0xFEE
 15469                           postdec0	equ	0xFED
 15470                           preinc0	equ	0xFEC
 15471                           plusw0	equ	0xFEB
 15472                           fsr0h	equ	0xFEA
 15473                           fsr0l	equ	0xFE9
 15474                           wreg	equ	0xFE8
 15475                           indf1	equ	0xFE7
 15476                           postinc1	equ	0xFE6
 15477                           postdec1	equ	0xFE5
 15478                           preinc1	equ	0xFE4
 15479                           plusw1	equ	0xFE3
 15480                           fsr1h	equ	0xFE2
 15481                           fsr1l	equ	0xFE1
 15482                           bsr	equ	0xFE0
 15483                           indf2	equ	0xFDF
 15484                           postinc2	equ	0xFDE
 15485                           postdec2	equ	0xFDD
 15486                           preinc2	equ	0xFDC
 15487                           plusw2	equ	0xFDB
 15488                           fsr2h	equ	0xFDA
 15489                           fsr2l	equ	0xFD9
 15490                           status	equ	0xFD8


Data Sizes:
    Strings     173
    Constant    0
    Data        25
    BSS         97
    Persistent  0
    Stack       0

Auto Spaces:
    Space          Size  Autos    Used
    COMRAM           95     94      94
    BANK0           160    146     158
    BANK1           256    218     248
    BANK2           256      0      80
    BANK3           256      0       0
    BANK4           256      0       0
    BANK5           256      0       0
    BANK6           256      0       0
    BANK7           256      0       0

Pointer List with Targets:

    nanf@s	PTR const unsigned char  size(2) Largest target is 1
		 -> STR_35(CODE[1]), 

    atof@s	PTR const unsigned char  size(2) Largest target is 13
		 -> main@longitud(BANK1[13]), main@latitud(BANK1[13]), 

    strtof@s	PTR const unsigned char  size(2) Largest target is 13
		 -> main@longitud(BANK1[13]), main@latitud(BANK1[13]), 

    strtof@res	PTR PTR unsigned char  size(2) Largest target is 0
		 -> NULL(NULL[0]), 

    strncmp@_r	PTR const unsigned char  size(2) Largest target is 3
		 -> STR_24(CODE[3]), 

    strncmp@r	PTR const unsigned char  size(2) Largest target is 3
		 -> STR_24(CODE[3]), 

    strncmp@_l	PTR const unsigned char  size(2) Largest target is 3
		 -> vfpfcnvrt@ct(BANK0[3]), 

    strncmp@l	PTR const unsigned char  size(2) Largest target is 3
		 -> vfpfcnvrt@ct(BANK0[3]), 

    strlen@s	PTR const unsigned char  size(2) Largest target is 80
		 -> ?_sprintf(BANK0[2]), stoa@nuls(COMRAM[7]), dbuf(BANK2[80]), main@bufferFecha(BANK1[20]), 
		 -> main@longitudMostrar(BANK1[4]), main@horaCompleta(BANK1[9]), 

    strlen@a	PTR const unsigned char  size(2) Largest target is 80
		 -> ?_sprintf(BANK0[2]), stoa@nuls(COMRAM[7]), dbuf(BANK2[80]), main@bufferFecha(BANK1[20]), 
		 -> main@longitudMostrar(BANK1[4]), main@horaCompleta(BANK1[9]), 

    strcpy@dest	PTR unsigned char  size(2) Largest target is 80
		 -> dbuf(BANK2[80]), 

    strcpy@d	PTR unsigned char  size(2) Largest target is 80
		 -> dbuf(BANK2[80]), 

    strcpy@src	PTR const unsigned char  size(2) Largest target is 80
		 -> STR_19(CODE[4]), STR_18(CODE[4]), STR_15(CODE[4]), STR_14(CODE[4]), 
		 -> dbuf(BANK2[80]), 

    strcpy@s	PTR const unsigned char  size(2) Largest target is 80
		 -> STR_19(CODE[4]), STR_18(CODE[4]), STR_15(CODE[4]), STR_14(CODE[4]), 
		 -> dbuf(BANK2[80]), 

    sprintf@fmt	PTR const unsigned char  size(2) Largest target is 22
		 -> STR_13(CODE[22]), STR_12(CODE[11]), STR_10(CODE[15]), STR_9(CODE[13]), 
		 -> STR_8(CODE[11]), STR_7(CODE[9]), STR_6(CODE[11]), STR_5(CODE[11]), 
		 -> STR_4(CODE[3]), STR_3(CODE[3]), STR_1(CODE[15]), 

    sprintf@s	PTR unsigned char  size(2) Largest target is 50
		 -> main@datoSalida(BANK1[50]), main@bufferFecha(BANK1[20]), main@buffer(BANK1[20]), dameHora@unidadHora(BANK0[2]), 
		 -> dameHora@decenaHora(BANK0[2]), mensajeEspera@buffer(BANK0[20]), 

    sprintf@ap	PTR void [1] size(2) Largest target is 2
		 -> ?_sprintf(BANK0[2]), 

    f.buffer	PTR unsigned char  size(2) Largest target is 50
		 -> main@datoSalida(BANK1[50]), main@bufferFecha(BANK1[20]), main@buffer(BANK1[20]), dameHora@unidadHora(BANK0[2]), 
		 -> dameHora@decenaHora(BANK0[2]), mensajeEspera@buffer(BANK0[20]), 

    fputs@s	PTR const unsigned char  size(2) Largest target is 80
		 -> dbuf(BANK2[80]), 

    fputs@fp	PTR struct _IO_FILE size(2) Largest target is 7
		 -> sprintf@f(BANK0[6]), 

    S1189_IO_FILE$buffer	PTR unsigned char  size(2) Largest target is 50
		 -> main@datoSalida(BANK1[50]), main@bufferFecha(BANK1[20]), main@buffer(BANK1[20]), dameHora@unidadHora(BANK0[2]), 
		 -> dameHora@decenaHora(BANK0[2]), mensajeEspera@buffer(BANK0[20]), 

    fputc@fp.buffer	PTR unsigned char  size(2) Largest target is 50
		 -> main@datoSalida(BANK1[50]), main@bufferFecha(BANK1[20]), main@buffer(BANK1[20]), dameHora@unidadHora(BANK0[2]), 
		 -> dameHora@decenaHora(BANK0[2]), mensajeEspera@buffer(BANK0[20]), 

    fputc@fp	PTR struct _IO_FILE size(2) Largest target is 7
		 -> sprintf@f(BANK0[6]), 

    atoi@s	PTR const unsigned char  size(2) Largest target is 22
		 -> STR_13(CODE[22]), STR_12(CODE[11]), STR_10(CODE[15]), STR_9(CODE[13]), 
		 -> STR_8(CODE[11]), STR_7(CODE[9]), STR_6(CODE[11]), STR_5(CODE[11]), 
		 -> STR_4(CODE[3]), STR_3(CODE[3]), STR_1(CODE[15]), 

    vfprintf@ap	PTR PTR void  size(2) Largest target is 2
		 -> sprintf@ap(BANK0[2]), 

    vfprintf@fp	PTR struct _IO_FILE size(2) Largest target is 7
		 -> sprintf@f(BANK0[6]), 

    vfprintf@fmt	PTR const unsigned char  size(2) Largest target is 22
		 -> STR_13(CODE[22]), STR_12(CODE[11]), STR_10(CODE[15]), STR_9(CODE[13]), 
		 -> STR_8(CODE[11]), STR_7(CODE[9]), STR_6(CODE[11]), STR_5(CODE[11]), 
		 -> STR_4(CODE[3]), STR_3(CODE[3]), STR_1(CODE[15]), 

    vfprintf@cfmt	PTR unsigned char  size(2) Largest target is 22
		 -> STR_13(CODE[22]), STR_12(CODE[11]), STR_10(CODE[15]), STR_9(CODE[13]), 
		 -> STR_8(CODE[11]), STR_7(CODE[9]), STR_6(CODE[11]), STR_5(CODE[11]), 
		 -> STR_4(CODE[3]), STR_3(CODE[3]), STR_1(CODE[15]), 

    vfpfcnvrt@cp	PTR unsigned char  size(2) Largest target is 2
		 -> ?_sprintf(BANK0[2]), main@bufferFecha(BANK1[20]), main@longitudMostrar(BANK1[4]), main@horaCompleta(BANK1[9]), 

    vfpfcnvrt@fp	PTR struct _IO_FILE size(2) Largest target is 7
		 -> sprintf@f(BANK0[6]), 

    vfpfcnvrt@ap	PTR PTR void  size(2) Largest target is 2
		 -> sprintf@ap(BANK0[2]), 

    vfpfcnvrt@fmt	PTR PTR unsigned char  size(2) Largest target is 2
		 -> vfprintf@cfmt(COMRAM[2]), 

    stoa@fp	PTR struct _IO_FILE size(2) Largest target is 7
		 -> sprintf@f(BANK0[6]), 

    stoa@s	PTR unsigned char  size(2) Largest target is 2
		 -> ?_sprintf(BANK0[2]), main@bufferFecha(BANK1[20]), main@longitudMostrar(BANK1[4]), main@horaCompleta(BANK1[9]), 

    stoa@cp	PTR unsigned char  size(2) Largest target is 7
		 -> ?_sprintf(BANK0[2]), stoa@nuls(COMRAM[7]), main@bufferFecha(BANK1[20]), main@longitudMostrar(BANK1[4]), 
		 -> main@horaCompleta(BANK1[9]), 

    efgtoa@fp	PTR struct _IO_FILE size(2) Largest target is 7
		 -> sprintf@f(BANK0[6]), 

    sp__strcpy	PTR unsigned char  size(2) Largest target is 80
		 -> dbuf(BANK2[80]), 

    dtoa@fp	PTR struct _IO_FILE size(2) Largest target is 7
		 -> sprintf@f(BANK0[6]), 

    ctoa@fp	PTR struct _IO_FILE size(2) Largest target is 7
		 -> sprintf@f(BANK0[6]), 

    pad@fp	PTR struct _IO_FILE size(2) Largest target is 7
		 -> sprintf@f(BANK0[6]), 

    pad@buf	PTR unsigned char  size(2) Largest target is 80
		 -> dbuf(BANK2[80]), 

    dameDato@variable	PTR unsigned char  size(2) Largest target is 13
		 -> main@longitud(BANK1[13]), main@latitud(BANK1[13]), main@fecha(BANK1[9]), 

    dameDato@cadenaFragmentada	PTR unsigned char  size(2) Largest target is 65
		 -> main@cadenaFragmentada(BANK1[65]), 

    dameGrados@cadenaFragmentada	PTR unsigned char  size(2) Largest target is 13
		 -> main@longitud(BANK1[13]), main@latitud(BANK1[13]), 

    dameHora@cadenaFragmentada	PTR unsigned char  size(2) Largest target is 65
		 -> main@cadenaFragmentada(BANK1[65]), 

    dameHora@hora	PTR unsigned char  size(2) Largest target is 9
		 -> main@horaCompleta(BANK1[9]), 

    leerGps@cadenaInicial	PTR unsigned char  size(2) Largest target is 65
		 -> main@cadenaFragmentada(BANK1[65]), 

    dameTemperaturaLm35@temperatura	PTR float  size(2) Largest target is 4
		 -> main@temperatura(BANK1[4]), 

    Lcd_Write_String@a	PTR unsigned char  size(2) Largest target is 20
		 -> STR_11(CODE[8]), main@bufferFecha(BANK1[20]), main@buffer(BANK1[20]), STR_2(CODE[18]), 
		 -> mensajeEspera@buffer(BANK0[20]), 

    UART_printf@cadena	PTR unsigned char  size(2) Largest target is 50
		 -> main@datoSalida(BANK1[50]), 


Critical Paths under _main in COMRAM

    _Lcd_Write_String->_Lcd_Write_Char
    _Lcd_Write_Char->_Lcd_Port
    _Lcd_Set_Cursor->_Lcd_Cmd
    _Lcd_Clear->_Lcd_Cmd
    _dameTemperaturaLm35->___flmul
    _sprintf->_vfprintf
    _vfprintf->_vfpfcnvrt
    _vfpfcnvrt->_efgtoa
    _stoa->_fputc
    _efgtoa->___flsub
    _tolower->_isupper
    _floorf->___fldiv
    ___awmod->___awdiv
    _dtoa->_pad
    _abs->___aomod
    _ctoa->_pad
    _pad->_fputs
    _fputs->_fputc
    _atoi->_isspace
    _dameGrados->_atof
    _atof->_strtof
    _strtof->___fldiv
    _toupper->_islower
    ___flge->___flmul
    ___fldiv->___flmul
    ___flsub->___fladd
    ___fladd->___fldiv
    _UART_printf->_UART_write
    _UART_init->___aldiv
    _Lcd_Init->_Lcd_Cmd
    _Lcd_Cmd->_Lcd_Port

Critical Paths under _main in BANK0

    _main->_mensajeEspera
    _mensajeEspera->_sprintf
    _dameHora->_sprintf
    _sprintf->_vfprintf
    _vfprintf->_vfpfcnvrt
    _vfpfcnvrt->_efgtoa

Critical Paths under _main in BANK1

    None.

Critical Paths under _main in BANK2

    None.

Critical Paths under _main in BANK3

    None.

Critical Paths under _main in BANK4

    None.

Critical Paths under _main in BANK5

    None.

Critical Paths under _main in BANK6

    None.

Critical Paths under _main in BANK7

    None.

Call Graph Tables:

 ---------------------------------------------------------------------------------
 (Depth) Function   	        Calls       Base Space   Used Autos Params    Refs
 ---------------------------------------------------------------------------------
 (0) _main                                               222   222      0  200371
                                            142 BANK0      4     4      0
                                              0 BANK1    218   218      0
                          _Lcd_Clear
                           _Lcd_Init
                     _Lcd_Set_Cursor
                   _Lcd_Write_String
                          _UART_init
                        _UART_printf
                            ___flmul
                             ___wmul
                      _configurarAdc
                           _dameDato
                         _dameGrados
                           _dameHora
                _dameTemperaturaLm35
                            _leerGps
                      _mensajeEspera
                            _sprintf
 ---------------------------------------------------------------------------------
 (1) _mensajeEspera                                       24    22      2   52157
                                            118 BANK0     24    22      2
                          _Lcd_Clear
                     _Lcd_Set_Cursor
                   _Lcd_Write_String
                            _sprintf
 ---------------------------------------------------------------------------------
 (2) _Lcd_Write_String                                     6     4      2     952
                                              4 COMRAM     6     4      2
                     _Lcd_Write_Char
 ---------------------------------------------------------------------------------
 (3) _Lcd_Write_Char                                       3     3      0     178
                                              1 COMRAM     3     3      0
                           _Lcd_Port
 ---------------------------------------------------------------------------------
 (2) _Lcd_Set_Cursor                                       5     4      1    1064
                                              3 COMRAM     5     4      1
                            _Lcd_Cmd
 ---------------------------------------------------------------------------------
 (2) _Lcd_Clear                                            0     0      0     110
                            _Lcd_Cmd
 ---------------------------------------------------------------------------------
 (1) _leerGps                                             11     9      2     580
                                              0 COMRAM    11     9      2
                       _EUSART1_Read
 ---------------------------------------------------------------------------------
 (2) _EUSART1_Read                                         0     0      0       0
 ---------------------------------------------------------------------------------
 (1) _dameTemperaturaLm35                                  4     2      2    4032
                                             25 COMRAM     4     2      2
                            ___flmul
                           ___xxtofl
 ---------------------------------------------------------------------------------
 (1) _dameHora                                            18    14      4   53697
                                            118 BANK0     18    14      4
                            ___awdiv
                            ___awmod
                             ___wmul
                            _sprintf
 ---------------------------------------------------------------------------------
 (1) _sprintf                                             30    10     20   49860
                                             88 BANK0     30    10     20
                           _vfprintf
 ---------------------------------------------------------------------------------
 (2) _vfprintf                                             8     2      6   47977
                                             92 COMRAM     2     2      0
                                             82 BANK0      6     0      6
                          _vfpfcnvrt
 ---------------------------------------------------------------------------------
 (3) _vfpfcnvrt                                           47    41      6   47595
                                             86 COMRAM     6     0      6
                                             56 BANK0     26    26      0
                               _atoi
                               _ctoa
                               _dtoa
                             _efgtoa
                              _fputc
                            _isdigit
                            _isupper
                               _stoa
                            _strncmp
                            _tolower
 ---------------------------------------------------------------------------------
 (4) _strncmp                                             11     5      6     453
                                              0 COMRAM    11     5      6
 ---------------------------------------------------------------------------------
 (4) _stoa                                                22    18      4    2139
                                              9 COMRAM    22    18      4
                              _fputc
                             _strlen
 ---------------------------------------------------------------------------------
 (4) _efgtoa                                              68    61      7   26025
                                             74 COMRAM    12     5      7
                                              0 BANK0     56    56      0
                            ___awdiv
                            ___awmod
                            ___fladd
                            ___fldiv
                             ___fleq
                             ___flge
                            ___flmul
                            ___flneg
                            ___flsub
                            ___fltol
                      ___fpclassifyf
                             _floorf
                            _isupper
                                _pad
                             _strcpy
                            _tolower
 ---------------------------------------------------------------------------------
 (4) _tolower                                              8     6      2     944
                                              6 COMRAM     8     6      2
                            _isupper
 ---------------------------------------------------------------------------------
 (5) _isupper                                              6     4      2     465
                                              0 COMRAM     6     4      2
 ---------------------------------------------------------------------------------
 (5) _strcpy                                              10     6      4     856
                                              0 COMRAM    10     6      4
 ---------------------------------------------------------------------------------
 (5) _floorf                                              20    16      4     490
                                             50 COMRAM    20    16      4
                            ___fldiv (ARG)
 ---------------------------------------------------------------------------------
 (5) ___fpclassifyf                                       14    10      4     287
                                              0 COMRAM    14    10      4
 ---------------------------------------------------------------------------------
 (5) ___awmod                                              6     2      4     752
                                              8 COMRAM     6     2      4
                            ___awdiv (ARG)
 ---------------------------------------------------------------------------------
 (5) ___awdiv                                              8     4      4     604
                                              0 COMRAM     8     4      4
 ---------------------------------------------------------------------------------
 (4) _dtoa                                                36    26     10    6258
                                             27 COMRAM    36    26     10
                            ___aodiv
                            ___aomod
                                _abs
                                _pad
 ---------------------------------------------------------------------------------
 (5) _abs                                                  4     2      2     142
                                             18 COMRAM     4     2      2
                            ___aomod (ARG)
 ---------------------------------------------------------------------------------
 (5) ___aomod                                             18     2     16     448
                                              0 COMRAM    18     2     16
 ---------------------------------------------------------------------------------
 (5) ___aodiv                                             26    10     16     452
                                              0 COMRAM    26    10     16
 ---------------------------------------------------------------------------------
 (4) _ctoa                                                 7     4      3    4829
                                             27 COMRAM     5     2      3
                                _pad
 ---------------------------------------------------------------------------------
 (5) _pad                                                 11     5      6    4609
                                             16 COMRAM    11     5      6
                              _fputc
                              _fputs
                             _strlen
 ---------------------------------------------------------------------------------
 (5) _strlen                                               4     2      2     242
                                              0 COMRAM     4     2      2
 ---------------------------------------------------------------------------------
 (6) _fputs                                                7     3      4    1691
                                              9 COMRAM     7     3      4
                              _fputc
 ---------------------------------------------------------------------------------
 (5) _fputc                                                9     5      4    1290
                                              0 COMRAM     9     5      4
                              _putch
 ---------------------------------------------------------------------------------
 (6) _putch                                                1     1      0       0
 ---------------------------------------------------------------------------------
 (4) _atoi                                                15    13      2    2779
                                              7 COMRAM    15    13      2
                             ___wmul
                            _isdigit
                            _isspace
 ---------------------------------------------------------------------------------
 (1) _dameGrados                                          14    10      4   29875
                                              0 BANK0     14    10      4
                            ___fladd
                            ___fldiv
                            ___flmul
                            ___flsub
                            ___fltol
                           ___xxtofl
                               _atof
 ---------------------------------------------------------------------------------
 (2) _atof                                                 4     0      4   16821
                                             88 COMRAM     4     0      4
                             _strtof
 ---------------------------------------------------------------------------------
 (3) _strtof                                              38    34      4   16723
                                             50 COMRAM    38    34      4
                            ___fldiv
                             ___fleq
                             ___flge
                            ___flmul
                            ___flneg
                             ___lmul
                             ___wmul
                           ___xxtofl
                            _isdigit
                            _isspace
                           _isxdigit
                               _nanf
                            _toupper
 ---------------------------------------------------------------------------------
 (4) _toupper                                              8     6      2     488
                                              6 COMRAM     8     6      2
                            _islower
 ---------------------------------------------------------------------------------
 (5) _islower                                              6     4      2     161
                                              0 COMRAM     6     4      2
 ---------------------------------------------------------------------------------
 (4) _nanf                                                 8     4      4      99
                                              0 COMRAM     8     4      4
 ---------------------------------------------------------------------------------
 (4) _isxdigit                                             7     5      2     283
                                              0 COMRAM     7     5      2
 ---------------------------------------------------------------------------------
 (5) _isspace                                              7     5      2     283
                                              0 COMRAM     7     5      2
 ---------------------------------------------------------------------------------
 (4) _isdigit                                              6     4      2     844
                                              0 COMRAM     6     4      2
 ---------------------------------------------------------------------------------
 (2) ___xxtofl                                            14    10      4     626
                                              0 COMRAM    14    10      4
 ---------------------------------------------------------------------------------
 (5) ___wmul                                               6     2      4    1255
                                              0 COMRAM     6     2      4
 ---------------------------------------------------------------------------------
 (4) ___lmul                                              12     4      8     370
                                              0 COMRAM    12     4      8
 ---------------------------------------------------------------------------------
 (5) ___flneg                                              4     0      4     197
                                              0 COMRAM     4     0      4
 ---------------------------------------------------------------------------------
 (5) ___flmul                                             25    17      8    3264
                                              0 COMRAM    25    17      8
 ---------------------------------------------------------------------------------
 (5) ___flge                                              12     4      8     942
                                             25 COMRAM    12     4      8
                            ___flmul (ARG)
 ---------------------------------------------------------------------------------
 (5) ___fleq                                              12     4      8     798
                                              0 COMRAM    12     4      8
 ---------------------------------------------------------------------------------
 (5) ___fldiv                                             25    17      8    2615
                                             25 COMRAM    25    17      8
                            ___flmul (ARG)
 ---------------------------------------------------------------------------------
 (5) ___fltol                                             10     6      4     457
                                              0 COMRAM    10     6      4
 ---------------------------------------------------------------------------------
 (5) ___flsub                                              8     0      8    3193
                                             66 COMRAM     8     0      8
                            ___fladd
                            ___flmul (ARG)
                           ___xxtofl (ARG)
 ---------------------------------------------------------------------------------
 (6) ___fladd                                             16     8      8    2566
                                             50 COMRAM    16     8      8
                            ___fldiv (ARG)
                            ___flmul (ARG)
                           ___xxtofl (ARG)
 ---------------------------------------------------------------------------------
 (1) _dameDato                                            15     9      6     976
                                              0 COMRAM    15     9      6
 ---------------------------------------------------------------------------------
 (1) _configurarAdc                                        0     0      0       0
 ---------------------------------------------------------------------------------
 (1) _UART_printf                                          2     0      2     143
                                              1 COMRAM     2     0      2
                         _UART_write
 ---------------------------------------------------------------------------------
 (2) _UART_write                                           1     1      0      22
                                              0 COMRAM     1     1      0
 ---------------------------------------------------------------------------------
 (1) _UART_init                                           12     8      4     748
                                             14 COMRAM    12     8      4
                            ___aldiv
 ---------------------------------------------------------------------------------
 (2) ___aldiv                                             14     6      8     604
                                              0 COMRAM    14     6      8
 ---------------------------------------------------------------------------------
 (1) _Lcd_Init                                             1     1      0     198
                                              3 COMRAM     1     1      0
                            _Lcd_Cmd
                           _Lcd_Port
 ---------------------------------------------------------------------------------
 (3) _Lcd_Cmd                                              2     2      0     110
                                              1 COMRAM     2     2      0
                           _Lcd_Port
 ---------------------------------------------------------------------------------
 (4) _Lcd_Port                                             1     1      0      88
                                              0 COMRAM     1     1      0
 ---------------------------------------------------------------------------------
 Estimated maximum stack depth 6
 ---------------------------------------------------------------------------------

 Call Graph Graphs:

 _main (ROOT)
   _Lcd_Clear
     _Lcd_Cmd
       _Lcd_Port
   _Lcd_Init
     _Lcd_Cmd
       _Lcd_Port
     _Lcd_Port
   _Lcd_Set_Cursor
     _Lcd_Cmd
       _Lcd_Port
   _Lcd_Write_String
     _Lcd_Write_Char
       _Lcd_Port
   _UART_init
     ___aldiv
   _UART_printf
     _UART_write
   ___flmul
   ___wmul
   _configurarAdc
   _dameDato
   _dameGrados
     ___fladd
       ___fldiv (ARG)
         ___flmul (ARG)
       ___flmul (ARG)
       ___xxtofl (ARG)
     ___fldiv
       ___flmul (ARG)
     ___flmul
     ___flsub
       ___fladd
         ___fldiv (ARG)
           ___flmul (ARG)
         ___flmul (ARG)
         ___xxtofl (ARG)
       ___flmul (ARG)
       ___xxtofl (ARG)
     ___fltol
     ___xxtofl
     _atof
       _strtof
         ___fldiv
           ___flmul (ARG)
         ___fleq
         ___flge
           ___flmul (ARG)
         ___flmul
         ___flneg
         ___lmul
         ___wmul
         ___xxtofl
         _isdigit
         _isspace
         _isxdigit
         _nanf
         _toupper
           _islower
   _dameHora
     ___awdiv
     ___awmod
       ___awdiv (ARG)
     ___wmul
     _sprintf
       _vfprintf
         _vfpfcnvrt
           _atoi
             ___wmul
             _isdigit
             _isspace
           _ctoa
             _pad
               _fputc
                 _putch
               _fputs
                 _fputc
                   _putch
               _strlen
           _dtoa
             ___aodiv
             ___aomod
             _abs
               ___aomod (ARG)
             _pad
               _fputc
                 _putch
               _fputs
                 _fputc
                   _putch
               _strlen
           _efgtoa
             ___awdiv
             ___awmod
               ___awdiv (ARG)
             ___fladd
               ___fldiv (ARG)
                 ___flmul (ARG)
               ___flmul (ARG)
               ___xxtofl (ARG)
             ___fldiv
               ___flmul (ARG)
             ___fleq
             ___flge
               ___flmul (ARG)
             ___flmul
             ___flneg
             ___flsub
               ___fladd
                 ___fldiv (ARG)
                   ___flmul (ARG)
                 ___flmul (ARG)
                 ___xxtofl (ARG)
               ___flmul (ARG)
               ___xxtofl (ARG)
             ___fltol
             ___fpclassifyf
             _floorf
               ___fldiv (ARG)
                 ___flmul (ARG)
             _isupper
             _pad
               _fputc
                 _putch
               _fputs
                 _fputc
                   _putch
               _strlen
             _strcpy
             _tolower
               _isupper
           _fputc
             _putch
           _isdigit
           _isupper
           _stoa
             _fputc
               _putch
             _strlen
           _strncmp
           _tolower
             _isupper
   _dameTemperaturaLm35
     ___flmul
     ___xxtofl
   _leerGps
     _EUSART1_Read
   _mensajeEspera
     _Lcd_Clear
       _Lcd_Cmd
         _Lcd_Port
     _Lcd_Set_Cursor
       _Lcd_Cmd
         _Lcd_Port
     _Lcd_Write_String
       _Lcd_Write_Char
         _Lcd_Port
     _sprintf
       _vfprintf
         _vfpfcnvrt
           _atoi
             ___wmul
             _isdigit
             _isspace
           _ctoa
             _pad
               _fputc
                 _putch
               _fputs
                 _fputc
                   _putch
               _strlen
           _dtoa
             ___aodiv
             ___aomod
             _abs
               ___aomod (ARG)
             _pad
               _fputc
                 _putch
               _fputs
                 _fputc
                   _putch
               _strlen
           _efgtoa
             ___awdiv
             ___awmod
               ___awdiv (ARG)
             ___fladd
               ___fldiv (ARG)
                 ___flmul (ARG)
               ___flmul (ARG)
               ___xxtofl (ARG)
             ___fldiv
               ___flmul (ARG)
             ___fleq
             ___flge
               ___flmul (ARG)
             ___flmul
             ___flneg
             ___flsub
               ___fladd
                 ___fldiv (ARG)
                   ___flmul (ARG)
                 ___flmul (ARG)
                 ___xxtofl (ARG)
               ___flmul (ARG)
               ___xxtofl (ARG)
             ___fltol
             ___fpclassifyf
             _floorf
               ___fldiv (ARG)
                 ___flmul (ARG)
             _isupper
             _pad
               _fputc
                 _putch
               _fputs
                 _fputc
                   _putch
               _strlen
             _strcpy
             _tolower
               _isupper
           _fputc
             _putch
           _isdigit
           _isupper
           _stoa
             _fputc
               _putch
             _strlen
           _strncmp
           _tolower
             _isupper
   _sprintf
     _vfprintf
       _vfpfcnvrt
         _atoi
           ___wmul
           _isdigit
           _isspace
         _ctoa
           _pad
             _fputc
               _putch
             _fputs
               _fputc
                 _putch
             _strlen
         _dtoa
           ___aodiv
           ___aomod
           _abs
             ___aomod (ARG)
           _pad
             _fputc
               _putch
             _fputs
               _fputc
                 _putch
             _strlen
         _efgtoa
           ___awdiv
           ___awmod
             ___awdiv (ARG)
           ___fladd
             ___fldiv (ARG)
               ___flmul (ARG)
             ___flmul (ARG)
             ___xxtofl (ARG)
           ___fldiv
             ___flmul (ARG)
           ___fleq
           ___flge
             ___flmul (ARG)
           ___flmul
           ___flneg
           ___flsub
             ___fladd
               ___fldiv (ARG)
                 ___flmul (ARG)
               ___flmul (ARG)
               ___xxtofl (ARG)
             ___flmul (ARG)
             ___xxtofl (ARG)
           ___fltol
           ___fpclassifyf
           _floorf
             ___fldiv (ARG)
               ___flmul (ARG)
           _isupper
           _pad
             _fputc
               _putch
             _fputs
               _fputc
                 _putch
             _strlen
           _strcpy
           _tolower
             _isupper
         _fputc
           _putch
         _isdigit
         _isupper
         _stoa
           _fputc
             _putch
           _strlen
         _strncmp
         _tolower
           _isupper

 Address spaces:
Name               Size   Autos  Total    Cost      Usage
BIGRAM             7FF      0       0      21        0.0%
EEDATA             100      0       0       0        0.0%
BITBANK7           100      0       0      18        0.0%
BANK7              100      0       0      19        0.0%
BITBANK6           100      0       0      16        0.0%
BANK6              100      0       0      17        0.0%
BITBANK5           100      0       0      14        0.0%
BANK5              100      0       0      15        0.0%
BITBANK4           100      0       0      12        0.0%
BANK4              100      0       0      13        0.0%
BITBANK3           100      0       0      10        0.0%
BANK3              100      0       0      11        0.0%
BITBANK2           100      0       0       8        0.0%
BANK2              100      0      50       9       31.2%
BITBANK1           100      0       0       6        0.0%
BANK1              100     DA      F8       7       96.9%
BITBANK0            A0      0       0       4        0.0%
BANK0               A0     92      9E       5       98.8%
BITCOMRAM           5F      0       0       0        0.0%
COMRAM              5F     5E      5E       1       98.9%
BITSFR               0      0       0     200        0.0%
SFR                  0      0       0     200        0.0%
STACK                0      0       0       2        0.0%
NULL                 0      0       0       0        0.0%
ABS                  0      0     244      20        0.0%
DATA                 0      0     244       3        0.0%
CODE                 0      0       0       0        0.0%


Microchip Technology PIC18 Macro Assembler V2.10 build 88905656 
Symbol Table                                                                                   Thu Oct 10 04:07:34 2019

                  ___fldiv@aexp 0032                    ___fldiv@bexp 0031                    ___fldiv@sign 002A  
                            l60 62CC                              l62 62DA                              l63 62DE  
                            l80 5EA4                              l57 5BCE                              l82 5EBA  
                            l66 62BC                              l75 620C                              l84 5ED0  
                            l92 62FC                              l69 62CA                              l86 5ED2  
                            l78 5E8E                              l89 629A                              l98 5C9E  
                  ___awdiv@sign 0006                  ?_configurarAdc 0001             ___wmul@multiplicand 0003  
                   __CFG_BORV$3 000000                    __CFG_CP0$OFF 000000                    __CFG_CP1$OFF 000000  
                  __CFG_CP2$OFF 000000                    __CFG_CP3$OFF 000000                             l101 5AEE  
                           l110 5A7C                             l104 60C6                             l121 5976  
                           l115 62EE                             l118 58E0                             l127 59FE  
                           l160 42B6                             l313 1DF2                             l145 499A  
                           l242 567C                             l163 4F6A                             l251 5E76  
                           l244 56B8                             l174 5528                             l430 6258  
                           l239 563A                             l408 2BD2                             l441 5C28  
                           l257 3D94                             l442 5C38                             l426 5CF8  
                           l259 3D9C                             l339 218A                             l419 2AA2  
                           l427 5D00                             l187 3242                             l700 5280  
                           l509 5076                             l277 3FD6                             l295 25B4  
                           l391 4CA8                             l375 4BA4                             l704 61A6  
                           l544 4B22                             l377 4BAC                             l386 4C56  
                           l387 4CA0                             l557 4E0C                             l661 577C  
                           l727 517C                             l674 582C                             l695 523A  
                           l960 2D76                             l689 58D6                             l958 2DC2  
                           l975 2EDC                             l967 3092                             l959 2DB0  
                           l984 2FAC                             l985 2F9A                    __CFG_CPB$OFF 000000  
                  __CFG_CPD$OFF 000000                    __CFG_BOR$OFF 000000                             _abs 6050  
                           _pad 55F4                    ___awmod@sign 000E                             wreg 000FE8  
                  ___flmul@aexp 0012                    ___flmul@bexp 0013                    ___flmul@sign 000D  
                  ___flmul@temp 0018                    ___flmul@prod 0014                    __CFG_LVP$OFF 000000  
                  ___fltol@exp1 000A                    __CFG_WDT$OFF 000000                            l1000 600A  
                          l1012 3CF2                            l1014 3B52                            l1023 3B98  
                          l1111 537E                            l1025 3C10                            l1017 3B16  
                          l1026 3BFE                            l1210 5F24                            l1051 37EA  
                          l1203 604E                            ?_abs 0013                            l1044 35F4  
                          l1116 6086                            l1061 391A                            l1053 3862  
                          l1213 62FE                            l1054 3850                            l1150 480C  
                          l1119 608E                            l1048 3958                            l1225 61DC  
                          l1315 1A04                            l1147 4804                            l1219 5E1A  
                          l1092 45B8                            l1156 44C8                            l1180 60FE  
                          l1085 4520                            l1229 5454                            l1166 616E  
                          l1174 5F76                            l1422 6232                            l1159 440C  
                          l1088 467C                            l1360 1392                            l1433 5D58  
                          l1370 1440                            l1099 4614                            l1451 5DBE  
                          l1371 14AA                            l1195 55F2                            l4011 552A  
                          l4101 2CE4                            l1349 11C8                            l1269 19C2  
                          l4021 55AC                            l4013 553C                            l1446 5DB6  
                          l1438 5D60                            l4111 2CF8                            l4103 2CE8  
                          l4015 554E                            l4031 602E                            l4201 2F4A  
                          l4121 2D0C                            l4113 2CFC                            l4105 2CEC  
                          l1473 627A                            l1457 6136                            l1369 1498  
                          l4017 5558                            l4025 600C                            l4033 61A8  
                          l5001 1B4A                            l4211 2F7C                            l4203 2F5A  
                          l4131 2D5E                            l4123 2D10                            l4115 2D00  
                          l4107 2CF0                            l4051 2BEE                            l1467 5B5E  
                          l4019 5576                            l4027 6018                            l4035 61B4  
                          l4043 60C8                            l5011 1BBA                            l5003 1B62  
                          l4221 2FD6                            l4213 2F92                            l4205 2F5C  
                          l4141 2DA2                            l4133 2D6E                            l4117 2D04  
                          l4109 2CF4                            l4125 2D14                            l4061 2C22  
                          l4053 2BF0                            l4029 602A                            l4037 61B8  
                          l4301 5D02                            l5101 1F3C                            l5005 1B6C  
                          l4231 3052                            l4223 3010                            l4207 2F6A  
                          l4143 2DA4                            l4135 2D84                            l4127 2D18  
                          l4119 2D08                            l4071 2C54                            l4055 2C00  
                          l4063 2C2A                            l4047 2BD4                            l4039 61D0  
                          l4311 42B8                            l5111 2050                            l5103 1FA0  
                          l5015 1BF0                            l4241 3072                            l4233 3056  
                          l4217 2FBC                            l4225 3012                            l4209 2F6E  
                          l4161 2E2C                            l4153 2DF4                            l4145 2DAE  
                          l4137 2D90                            l4129 2D42                            l4081 2C8A  
                          l4073 2C5A                            l4065 2C3A                            l4057 2C10  
                          l4049 2BE0                            l6001 1820                            l4401 4CE0  
                          l4313 42D8                            l4305 5D38                            l5201 2428  
                          l5121 210E                            l5113 2084                            l5105 1FF8  
                          l5041 1D52                            l5033 1C8A                            l5017 1C02  
                          l5009 1B94                            l4243 3080                            l4235 3064  
                          l4227 3022                            l4219 2FC8                            l4163 2E30  
                          l4155 2E04                            l4147 2DD0                            l4171 2E50  
                          l4139 2D94                            l4091 2CC6                            l4083 2C9A  
                          l4075 2C68                            l4067 2C40                            l4059 2C20  
                          l6011 1886                            l6003 1832                            l4251 5604  
                          l4411 4D48                            l4403 4CEE                            l4331 4480  
                          l4323 43C0                            l4315 432E                            l4307 5D4A  
                          l5211 245A                            l5203 2430                            l5131 2182  
                          l5123 211E                            l5115 20B6                            l5107 202C  
                          l5051 1DB2                            l5043 1D5A                            l5035 1CBE  
                          l5019 1C1E                            l5027 1C3A                            l6101 4F70  
                          l4245 3082                            l4237 306A                            l4229 3032  
                          l4173 2E76                            l4181 2ECC                            l4165 2E3E  
                          l4157 2E12                            l4149 2DE0                            l4093 2CD4  
                          l4085 2C9C                            l4077 2C6A                            l4069 2C52  
                          l4501 3B06                            l6021 18EC                            l6005 1864  
                          l5301 467E                            l4261 565A                            l4253 5618  
                          l4413 4D56                            l4421 4DBC                            l4405 4D0E  
                          l4333 44A8                            l4325 43FC                            l4317 4342  
                          l5213 2460                            l5221 24B0                            l5205 243E  
                          l5141 223E                            l5133 21A6                            l5125 2152  
                          l5117 20CC                            l5109 2032                            l5053 1DC4  
                          l5037 1CC4                            l5045 1D8C                            l5029 1C54  
                          l6111 4FB0                            l6103 4F7E                            l4239 306C  
                          l4191 2F20                            l4183 2EF2                            l4175 2EAA  
                          l4167 2E40                            l4159 2E20                            l4095 2CD8  
                          l4079 2C7A                            l4087 2CA4                            l4511 3B50  
                          l4503 3B14                            l4431 3966                            l4343 6234  
                          l6031 195A                            l6023 18F4                            l6007 1872  
                          l6015 189A                            l5311 46EC                            l5303 4692  
                          l4263 565E                            l4255 5626                            l4351 49A0  
                          l4423 4DCC                            l4415 4D84                            l4407 4D2C  
                          l4271 6050                            l4335 44B8                            l4319 4350  
                          l4327 4430                            l5231 2500                            l5223 24C2  
                          l5215 2486                            l5207 2446                            l5151 2284  
                          l5143 224C                            l5135 220A                            l5127 2162  
                          l5119 20FE                            l5071 1E74                            l5055 1DCC  
                          l5047 1D9C                            l5039 1D1E                            l6201 5AE8  
                          l6121 4FEE                            l6113 4FB4                            l6105 4F8E  
                          l4193 2F2E                            l4185 2F02                            l4177 2EAC  
                          l4169 2E4A                            l4097 2CDC                            l4089 2CB4  
                          l4521 3B96                            l4513 3B62                            l4505 3B20  
                          l4441 39A6                            l4433 3974                            l4601 3604  
                          l4345 6250                            l6033 198C                            l6025 190E  
                          l5321 4714                            l5313 46F0                            l5305 4696  
                          l4265 568C                            l4257 5632                            l4249 55F4  
                          l4361 4A00                            l4353 49AE                            l4425 4DEC  
                          l4417 4DA4                            l4409 4D34                            l4273 606A  
                          l4281 5308                            l4329 446C                            l5233 2508  
                          l5225 24DC                            l5217 24A2                            l5209 244E  
                          l5161 22AE                            l5153 2288                            l5137 221A  
                          l5145 2254                            l5129 2176                            l5081 1EAC  
                          l5073 1E7C                            l5065 1E10                            l5057 1DE6  
                          l5049 1DA0                            l5401 2696                            l6131 5036  
                          l6123 4FFC                            l6115 4FC4                            l6107 4F92  
                          l6203 62E0                            l4195 2F30                            l4179 2EBC  
                          l4099 2CE0                            l4531 3BF6                            l4515 3B78  
                          l4523 3BA8                            l4507 3B3E                            l4451 39CC  
                          l4443 39A8                            l4435 3976                            l4611 363E  
                          l4603 3614                            l4339 6138                            l6043 19D0  
                          l6035 199A                            l6027 1942                            l6019 18B8  
                          l5323 471C                            l5307 469A                            l4267 56A0  
                          l4259 5646                            l4371 4A4A                            l4363 4A04  
                          l4355 49CE                            l4419 4DB6                            l4283 5314  
                          l4275 5282                            l5251 258E                            l5243 2558  
                          l5235 2518                            l5227 24E2                            l5219 24AA  
                          l5171 22E2                            l5163 22B4                            l5155 228E  
                          l5147 2266                            l5139 222C                            l5091 1EF6  
                          l5083 1EBA                            l5067 1E22                            l5075 1E80  
                          l5059 1DFE                            l5403 26B6                            l5411 271E  
                          l6211 58DE                            l6051 62DC                            l6133 5040  
                          l6125 5006                            l6117 4FDA                            l6109 4FA0  
                          l6205 62E2                            l4197 2F3E                            l4189 2F16  
                          l4541 3C64                            l4525 3BB6                            l4517 3B7E  
                          l4509 3B40                            l4461 3A0C                            l4453 39DA  
                          l4437 3986                            l4445 39B0                            l4429 395A  
                          l4621 3690                            l4613 3654                            l5501 5BE0  
                          l6045 19F4                            l6029 1948                            l5333 47C4  
                          l5325 4750                            l5317 46F6                            l5309 46B6  
                          l4381 4ABA                            l4373 4A58                            l4365 4A10  
                          l4357 49D2                            l4349 499C                            l4293 5376  
                          l4277 52A2                            l5253 2594                            l5245 256A  
                          l5237 251E                            l5229 24F4                            l5157 229A  
                          l5149 2274                            l5165 22BA                            l5173 22E8  
                          l5181 2380                            l5093 1F08                            l5085 1EBE  
                          l5077 1E88                            l5069 1E3E                            l5261 4B36  
                          l5421 27C4                            l5413 2740                            l5405 26C4  
                          l6301 4056                            l6213 58EE                            l6061 5C4C  
                          l6221 5998                            ?_pad 0011                            l6127 5024  
                          l6119 4FE2                            l6135 5046                            l6151 5B98  
                          l6143 5B60                            l6055 62B8                            l4199 2F46  
                          l4551 3CCE                            l4535 3C20                            l4543 3C68  
                          l4527 3BBA                            l4519 3B88                            l4471 3A4C  
                          l4463 3A0E                            l4455 39DC                            l4447 39C0  
                          l4439 3996                            l4631 36D6                            l4623 369E  
                          l4615 3660                            l4607 3628                            l5503 5BEE  
                          l5511 44DC                            l6039 19AE                            l5335 47D6  
                          l5319 470C                            l4383 4ACC                            l4375 4A6A  
                          l4367 4A2E                            l4359 49E0                            l4711 56D8  
                          l4703 56BA                            l4279 52E0                            l4287 5320  
                          l5247 2576                            l5239 2524                            l5191 23EA  
                          l5183 239E                            l5175 2340                            l5167 22CC  
                          l5159 22AA                            l5087 1ED0                            l5095 1F10  
                          l5079 1E9A                            l5271 4B74                            l5263 4B3E  
                          l5351 53C4                            l5343 5380                            l5431 285A  
                          l5423 27E8                            l5415 2750                            l6311 40AE  
                          l6303 4082                            l6215 5932                            l6207 58D8  
                          l6071 5C92                            l6063 5C5E                            l6231 59C8  
                          l6223 599C                            l6137 5056                            l6129 5034  
                          l6161 5BC8                            l6153 5BC0                            l6145 5B60  
                          l4553 3CD2                            l4545 3C82                            l4537 3C2C  
                          l4529 3BC8                            l4481 3A7C                            l4473 3A54  
                          l4457 39EC                            l4465 3A16                            l4449 39C6  
                          l4801 51AC                            l4641 3744                            l4633 36F0  
                          l4625 36AA                            l4617 3678                            l4609 3634  
                          l5505 5BFE                            l5521 455A                            l5513 44EA  
                          l5337 47E8                            l5329 4786                            l4377 4A98  
                          l4369 4A36                            l4385 4AD2                            l4393 4CAA  
                          l4721 570C                            l4713 56E6                            l4705 56BE  
                          l4289 5332                            l4297 5DC0                            l5249 257E  
                          l5193 23EE                            l5185 23BA                            l5177 2374  
                          l5169 22DE                            l5097 1F18                            l5089 1EDE  
                          l5281 4BE8                            l5273 4B82                            l5265 4B50  
                          l5353 53DC                            l5345 53AA                            l5441 2910  
                          l5433 287E                            l5425 281A                            l5417 2782  
                          l5409 270C                            l6321 413C                            l6313 40B4  
                          l6305 408A                            l6209 58DC                            l6049 62CC  
                          l6241 4822                            l6057 62F0                            l6073 5C98  
                          l6065 5C64                            l5601 60AA                            l6081 5A40  
                          l6233 59E2                            l6225 59A6                            l6217 5978  
                          l6401 30F4                            l5371 5E90                            l6139 5066  
                          l6163 5BCA                            l6155 5BC2                            l6147 5B62  
                          l6171 61F0                            l4555 3CE0                            l4547 3C98  
                          l4539 3C3A                            l4491 3ABA                            l4483 3A7C  
                          l4475 3A58                            l4467 3A26                            l4459 39FC  
                          l4811 521A                            l4803 51BC                            l4651 37DA  
                          l4643 376E                            l4635 3700                            l4627 36BA  
                          l4619 3684                            l4571 354A                            l5507 5C08  
                          l5531 45AE                            l5523 4562                            l5515 4530  
                          l5363 6100                            l4387 4AE2                            l4379 4AB8  
                          l4395 4CAE                            l4731 5746                            l4723 5714  
                          l4715 56EE                            l4707 56CC                            l4299 5DD0  
                          l5195 23FE                            l5187 23CC                            l5179 237C  
                          l5099 1F28                            l5291 4C38                            l5283 4C06  
                          l5267 4B58                            l5259 4B24                            l5355 53F8  
                          l5443 2926                            l5451 2990                            l5435 28C6  
                          l5419 2792                            l6091 5F12                            l6083 5ED4  
                          l6331 41C6                            l6323 4148                            l6315 40E4  
                          l6307 4098                            l6251 4852                            l6243 4828  
                          l6067 5C6E                            l6059 5C3C                            l5611 60C4  
                          l5603 60B2                            l6075 5A00                            l6227 59B2  
                          l6219 597C                            l6235 59EA                            l6411 314C  
                          l6403 3102                            l5381 5ECA                            l5373 5E9E  
                          l6181 5A9A                            l6165 5BCC                            l6157 5BC4  
                          l6149 5B64                            l6173 61F4                            l4557 3CE6  
                          l4549 3CB2                            l4493 3ACA                            l4469 3A3C  
                          l4813 5228                            l4805 51EA                            l4661 381A  
                          l4653 37E8                            l4645 37A4                            l4637 371C  
                          l4629 36C6                            l4581 3582                            l4573 354C  
                          l4821 6170                            l5541 4624                            l5533 45EA  
                          l5525 456E                            l5517 4546                            l5509 44CC  
                          l5701 0BA6                            l5621 08B0                            l4389 4B02  
                          l4397 4CBC                            l4901 3D14                            l4741 576C  
                          l4733 574E                            l4725 571C                            l4717 56F2  
                          l4709 56D4                            l5197 2410                            l5189 23DA  
                          l5285 4C12                            l5277 4BD0                            l5269 4B6C  
                          l5357 540A                            l5349 53B6                            l5461 2A72  
                          l5453 29BE                            l5445 2934                            l5429 2836  
                          l5613 5CA0                            l6085 5EE6                            l6333 41D6  
                          l6325 415E                            l6317 4102                            l6309 40A4  
                          l6341 4286                            l6261 48B4                            l6253 4864  
                          l6245 482E                            l6237 480E                            l6069 5C80  
                          l5605 60B4                            l6077 5A0C                            l6229 59BC  
                          l6421 31E0                            l6413 3168                            l6405 310E  
                          l5375 5EA6                            l5367 5E7A                            l6191 5ACA  
                          l6183 5AAA                            l6175 5A7E                            l6159 5BC6  
                          l6167 61DE                            l4831 508E                            l4559 3CE8  
                          l4495 3ADA                            l4487 3A90                            l4479 3A6C  
                          l4815 5278                            l4807 51FA                            l4671 388C  
                          l4663 3848                            l4655 37FA                            l4647 37B2  
                          l4639 3728                            l4591 35AE                            l4583 3592  
                          l4575 355C                            l4567 3530                            l4823 6186  
                          l5551 466C                            l5543 4628                            l5535 45F6  
                          l5527 45A0                            l5711 0C34                            l5703 0BC4  
                          l5631 0912                            l5623 08C2                            l6095 620E  
                          l6351 4E0E                            l4399 4CDC                            l4911 3D88  
                          l4903 3D3C                            l4743 5774                            l4735 5750  
                          l4727 572A                            l4719 56FA                            l4751 5790  
                          l5199 2418                            l5295 4C6A                            l5287 4C30  
                          l5279 4BE4                            l5359 5432                            l5471 2B10  
                          l5447 2964                            l5439 28FE                            l5391 25FE  
                          l5383 25B6                            l5615 5CA8                            l6087 5EEE  
                          l6343 428A                            l6335 420E                            l6327 416E  
                          l6319 411E                            l6271 4920                            l6263 48D2  
                          l6255 4874                            l6247 4840                            l6239 4816  
                          l5607 60BA                            l6079 5A3C                            l6423 31F2  
                          l6415 3184                            l6407 311A                            l5377 5EB4  
                          l5369 5E88                            l6193 5AD0                            l6185 5AB0  
                          l6177 5A84                            l6169 61E2                            l4841 50DE  
                          l4497 3AE2                            l4489 3AAA                            l4817 527E  
                          l4809 5208                            l4681 3902                            l4673 38B6  
                          l4657 3808                            l4649 37D0                            l4593 35BE  
                          l4585 3598                            l4577 356C                            l4569 353C  
                          l4825 6196                            l5545 464C                            l5537 4604  
                          l5529 45A2                            l5561 5AF0                            l5801 1012  
                          l5721 0CA0                            l5713 0C36                            l5705 0BE2  
                          l5641 096E                            l5633 0952                            l5625 08D6  
                          l6361 4F5A                            l6353 4E2A                            l4921 3DD2  
                          l4913 3DA4                            l4905 3D5C                            l4737 5756  
                          l4729 5730                            l4761 57C4                            l4753 5798  
                          l5297 4C7E                            l5289 4C34                            l5481 2B76  
                          l5457 2A2C                            l5393 2622                            l5385 25DA  
                          l5617 5CB6                            l6089 5EF6                            l6345 42A6  
                          l6329 419A                            l6273 4930                            l6265 48F0  
                          l6257 487C                            l6249 484C                            l6281 496A  
                          l5609 60BC                            l6441 3274                            l6433 3250  
                          l6417 3196                            l6425 31F8                            l6409 3130  
                          l5379 5EBC                            l6195 5AD6                            l6187 5ABE  
                          l6179 5A94                            l6099 4F6C                            l6371 54B6  
                          l4851 5108                            l4843 50E2                            l4835 50A2  
                          l4499 3AF2                            l4683 391E                            l4691 3944  
                          l4667 3872                            l4675 38BA                            l4659 380C  
                          l4595 35CE                            l4587 359E                            l4579 357C  
                          l5547 465C                            l5539 4622                            l5563 5AF4  
                          l5555 625A                            l5811 1062                            l5803 1016  
                          l5731 0CE2                            l5723 0CB6                            l5715 0C54  
                          l5707 0BF8                            l5643 0972                            l5635 0956  
                          l5627 08DA                            l6355 4E5E                            l4931 3E70  
                          l4923 3DDC                            l4915 3DB6                            l4907 3D6C  
                          l4739 575C                            l4771 5800                            l4763 57CC  
                          l4755 579C                            l4747 577E                            l5299 4C82  
                          l5475 2B30                            l5459 2A3E                            l5467 2AB6  
                          l5395 262A                            l5387 25E8                            l5491 2B9C  
                          l5619 5CDC                            l6339 423A                            l6283 497C  
                          l6275 4934                            l6267 490E                            l6259 4896  
                          l6451 330A                            l6443 329A                            l6435 3254  
                          l6427 3216                            l6419 31B6                            l6197 5ADC  
                          l6189 5AC4                            l6381 54FA                            l6373 54BA  
                          l6365 5456                            l4861 5130                            l4853 5112  
                          l4845 50F0                            l4837 50CC                            l4829 5078  
                          l4693 3948                            l4685 392E                            l4677 38D4  
                          l4669 387E                            l4597 35DE                            l4589 35AC  
                          l5549 466A                            l5565 5B22                            l5557 626A  
                          l5573 5D62                            l5821 109C                            l5733 0D00  
                          l5805 1018                            l5725 0CBE                            l5717 0C64  
                          l5709 0C0C                            l5661 0A00                            l5653 09AA  
                          l5645 0986                            l5629 08DE                            l6357 4E7A  
                          l4941 3F40                            l4925 3DE2                            l4933 3ED4  
                          l4917 3DC4                            l4909 3D6E                            l4773 5806  
                          l4765 57D4                            l4757 57AA                            l4749 5782  
                          l5493 2BC0                            l5477 2B54                            l5485 2B82  
                          l5469 2ADA                            l5397 2638                            l5389 25FA  
                          l6293 3FE6                            l6285 4998                            l6277 4950  
                          l6269 491A                            l6461 3352                            l6445 32A6  
                          l6437 3266                            l6453 331A                            l6429 3234  
                          l5591 6298                            l5583 627E                            l6199 5AE2  
                          l6383 5518                            l6375 54D6                            l6367 5470  
                          l4863 513C                            l4855 511C                            l4839 50CE  
                          l4791 58AA                            l4783 582E                            l4687 393C  
                          l4679 38E8                            l4599 35E4                            l5567 5B54  
                          l5911 142C                            l5903 1400                            l5831 10D0  
                          l5823 10BA                            l5815 1076                            l5807 1026  
                          l5751 0DB8                            l5743 0D48                            l5727 0CC0  
                          l5719 0C82                            l5671 0A74                            l5663 0A30  
                          l5655 09B2                            l5647 098A                            l5639 095C  
                          l6359 4EC6                            l4951 3F8A                            l4935 3EEE  
                          l4943 3F50                            l4927 3E64                            l4919 3DCA  
                          l4767 57E2                            l4775 580C                            l4759 57B2  
                          l5487 2B90                            l5479 2B62                            l5399 265C  
                          l6535 4250                            l6295 4006                            l6287 3FD8  
                          l6279 4958                            l6471 33AC                            l6463 335C  
                          l6455 331E                            l6447 32B0                            l6439 326A  
                          l6391 30CA                            l5585 6280                            l6377 54F2  
                          l6369 548C                            l4697 5FC6                            l4865 514C  
                          l4793 58CE                            l4785 585C                            l4689 393E  
                          l4881 5F70                            l4873 5F26                            l5569 5B58  
                          l5577 5D98                            l5913 143A                            l5921 14B2  
                          l5841 1150                            l5833 10EE                            l5825 10BE  
                          l5817 1078                            l5809 1044                            l5761 0E5A  
                          l5753 0DCA                            l5745 0D74                            l5737 0D22  
                          l5729 0CDE                            l5681 0ABE                            l5673 0A78  
                          l5665 0A40                            l5657 09B4                            l5649 0992  
                          l6537 473A                            l4953 3F96                            l4945 3F62  
                          l4937 3F0C                            l4929 3E6A                            l4777 581C  
                          l4769 57F8                            l4961 1A06                            l6297 4022  
                          l5593 6092                            l6481 3448                            l6473 33B6  
                          l6465 3382                            l6457 3328                            l6449 32E4  
                          l6393 30CC                            l6385 3094                            l5587 6286  
                          l6379 54F6                            l4699 5FD6                            l4867 515C  
                          l4795 58D4                            l4787 586C                            l5499 5BD0  
                          l4875 5F2A                            l5579 5DAA                            l5931 1516  
                          l5923 14BA                            l5915 1444                            l5907 1416  
                          l5851 11B4                            l5835 10FA                            l5843 1152  
                          l5827 10C6                            l5819 1096                            l5771 0E84  
                          l5763 0E5E                            l5755 0DE0                            l5747 0D78  
                          l5739 0D40                            l5691 0B5E                            l5683 0AEE  
                          l5667 0A50                            l5675 0A98                            l5659 09D0  
                          l4891 5E48                            l4955 3F9E                            l4947 3F72  
                          l4939 3F26                            l4779 5824                            l4971 1A5A  
                          l4963 1A10                            l6299 403A                            l5595 609E  
                          l6491 34C6                            l6483 3452                            l6475 33C8  
                          l6467 338E                            l6459 3346                            l6395 30D0  
                          l6387 309E                            l5589 6288                            l4869 516C  
                          l4789 589A                            l4877 5F3E                            l5933 1530  
                          l5925 14D4                            l5917 1478                            l5909 1418  
                          l5861 11F8                            l5837 110A                            l5829 10CE  
                          l5781 0EF4                            l5773 0EA2                            l5757 0E00  
                          l5765 0E6A                            l5693 0B66                            l5685 0B1E  
                          l5677 0AA0                            l5669 0A62                            l4893 5E4C  
                          l4885 5E1C                            l4949 3F78                            l4957 3FAE  
                          l4981 1A9E                            l4973 1A64                            l4965 1A20  
                          l5597 60A0                            l6493 351C                            l6485 345E  
                          l6477 3402                            l6469 33A8                            l6397 30D4  
                          l6389 30B0                            l4799 517E                            l4879 5F6C  
                          l5943 158A                            l5927 14EE                            l5919 14A6  
                          l5871 1270                            l5863 1214                            l5855 11D6  
                          l5847 1192                            l5839 1126                            l5791 0F70  
                          l5783 0F00                            l5759 0E1C                            l5695 0B80  
                          l5687 0B30                            l5679 0AA2                            l4895 5E52  
                          l4887 5E30                            l4983 1AAA                            l4991 1AC0  
                          l4975 1A6C                            l4967 1A2E                            l5599 60A8  
                          l6479 343C                            l6399 30E8                            l5953 15F2  
                          l5945 159C                            l5937 1534                            l5929 150C  
                          l5881 12D6                            l5873 1284                            l5865 122A  
                          l5857 11DE                            l5849 11A4                            l5793 0F82  
                          l5785 0F2C                            l5777 0EC4                            l5769 0E7E  
                          l5697 0B88                            l5689 0B4C                            l4889 5E3C  
                          l4993 1AE6                            l4985 1AB2                            l4977 1A7E  
                          l4969 1A36                            l6489 3492                            l5963 1674  
                          l5955 1604                            l5947 15B2                            l5939 154E  
                          l5971 16CC                            l5891 1344                            l5883 12EC  
                          l5875 1294                            l5859 11E6                            l5795 0F98  
                          l5787 0F30                            l5779 0EE2                            l5699 0B8A  
                          l4899 3CF4                            l4987 1AB6                            l4979 1A8C  
                          l5981 172A                            l5973 16D4                            l5965 1686  
                          l5957 1634                            l5949 15B6                            l5893 1354  
                          l5885 12FC                            l5877 12A2                            l5869 123E  
                          l5797 0FB8                            l4997 1B1C                            l4989 1ABA  
                          l5991 178A                            l5983 175C                            l5975 16E6  
                          l5959 1638                            l5967 16B6                            l5895 13A0  
                          l5887 1318                            l5879 12BE                            l5799 0FD4  
                          l4999 1B2E                            l5993 17BE                            l5977 16F4  
                          l5969 16C4                            l5897 13BA                            l5889 1330  
                          l5995 17C6                            l5987 1770                            l5979 1704  
                          l5899 13C4                            l5997 17E6                            l5989 177E  
                          l5999 181A                            STR_1 0838                            STR_2 0817  
                          STR_3 08AB                            STR_4 08AB                            STR_5 086A  
                          STR_6 085F                            STR_7 0887                            STR_8 0854  
                          STR_9 0847                            _CREN 007D5C                            u5000 5D34  
                          u5010 5D4A                            u5011 5D46                            u5100 446C  
                          u5020 4300                            u5101 4468                            u5110 44A8  
                          u5030 432E                            u5111 44A4                            u5031 432A  
                          u5120 6168                            u4400 5576                            u5200 4AE2  
                          u6000 3D24                            u5040 4350                            u5121 6162  
                          u4401 5572                            u5201 4ADE                            u6001 3D1E  
                          u5041 434C                            u5025 42F6                            u5130 616A  
                          u4410 55AC                            u5210 4CBC                            u6010 3D26  
                          u4411 55A8                            u5211 4CB8                            u4500 2C68  
                          u5300 39DA                            u4420 604E                            u5140 49AE  
                          u5220 4CEE                            u6100 3F40                            u6020 3D3C  
                          u5060 43BC                            u4501 2C64                            u5301 39D6  
                          u4421 604A                            u5141 49AA                            u5221 4CEA  
                          u6101 3F3C                            u6021 3D38                            u5061 43B8  
                          u4510 2C7A                            u5310 39EC                            u4430 61D0  
                          u5150 49E0                            u5230 4D2C                            u6110 3F50  
                          u6030 3D6C                            u5070 43E0                            u4511 2C76  
                          u5311 39E8                            u4431 61CC                            u5151 49DC  
                          u5231 4D28                            u6111 3F4C                            u6031 3D68  
                          u5055 4364                            u4600 2DC2                            u4520 2C8A  
                          u5400 3B96                            u5320 39FC                            u5240 4D56  
                          u6120 3F62                            u6040 3D88                            u5080 43FC  
                          u5056 436E                            u4440 60F8                            u6200 1B14  
                          u7000 2750                            u4601 2DBE                            u4521 2C86  
                          u5401 3B92                            u5321 39F8                            u5161 4A0A  
                          u5241 4D52                            u6121 3F5E                            u6041 3D84  
                          u5081 43F8                            u5057 437E                            u4441 60F2  
                          u6201 1B0E                            u7001 274C                            u4610 2DD0  
                          u4530 2CC6                            u5410 3BB6                            u5330 3A3C  
                          u5170 4A2E                            u5250 4D84                            u6130 3F72  
                          u6050 3DB6                            u5090 4450                            u4450 60FA  
                          u6210 1B16                            u7010 2792                            u4611 2DCC  
                          u4531 2CC2                            u5411 3BB2                            u5331 3A38  
                          u5171 4A2A                            u5251 4D80                            u6131 3F6E  
                          u6051 3DB2                            u5075 43D6                            u7011 278E  
                          u4700 2F2E                            u4620 2DE0                            u4540 2CD4  
                          u4460 2BEE                            u5420 3BC8                            u5340 3A7C  
                          u5500 354A                            u4380 553C                            u5180 4A58  
                          u5260 4DCC                            u6140 3F8A                            u6060 3DC4  
                          u6300 1DB2                            u6220 1B2E                            u7100 2ADA  
                          u7020 27E8                            u4701 2F2A                            u4621 2DDC  
                          u4541 2CD0                            u4461 2BEA                            u5421 3BC4  
                          u5341 3A78                            u5501 3546                            u4381 5538  
                          u5181 4A54                            u5261 4DC8                            u6141 3F86  
                          u6061 3DC0                            u6301 1DAE                            u6221 1B2A  
                          u7101 2AD6                            u7021 27E4                            u4710 2F3E  
                          u4630 2E12                            u4550 2D42                            u4470 2C00  
                          u5430 3BF6                            u5350 3AF2                            u5270 3974  
                          u5510 355C                            u4390 554E                            u5190 4A98  
                          u6070 3EEE                            u6310 1DC4                            u6230 1BBA  
                          u6150 1A2E                            u7110 2B54                            u7030 285A  
                          u4711 2F3A                            u4631 2E0E                            u4551 2D3E  
                          u4471 2BFC                            u5431 3BF2                            u5351 3AEE  
                          u5271 3970                            u5511 3558                            u4391 554A  
                          u5191 4A94                            u6071 3EEA                            u5095 4446  
                          u6311 1DC0                            u6231 1BB6                            u6151 1A2A  
                          u7111 2B50                            u7031 2856                            u4800 3022  
                          u4720 2F5A                            u4640 2E20                            u4560 2D5A  
                          u4480 2C10                            u5440 3C0C                            u5360 3B14  
                          u5280 3986                            u5600 3808                            u5520 356C  
                          u7120 5BEE                            u7200 4614                            u8000 13FA  
                          u6080 3F0C                            u6400 1ED0                            u6320 1DE6  
                          u6240 1BE8                            u6160 1A7E                            u7040 287E  
                          u4801 301E                            u4721 2F56                            u4641 2E1C  
                          u4561 2D54                            u4481 2C0C                            u5441 3C08  
                          u5361 3B10                            u5281 3982                            u5601 3804  
                          u5521 3568                            u7121 5BEA                            u7201 4610  
                          u8001 13F4                            u6081 3F08                            u6401 1ECC  
                          u6321 1DE2                            u6241 1BE2                            u6161 1A7A  
                          u7041 287A                            u4810 3032                            u4730 2F6A  
                          u4650 2E3E                            u4570 2D5C                            u4490 2C52  
                          u5450 3C20                            u5370 3B3E                            u5290 3996  
                          u5610 381A                            u5530 35AC                            u7130 5C28  
                          u7210 4622                            u8010 13FC                            u6090 3F26  
                          u6410 1EDE                            u6330 1E0C                            u6250 1BEA  
                          u6170 1A8C                            u7050 2910                            u4811 302E  
                          u4731 2F66                            u4651 2E3A                            u4491 2C4E  
                          u5451 3C1C                            u5371 3B3A                            u5291 3992  
                          u5611 3816                            u5531 35A8                            u7131 5C24  
                          u7211 461E                            u6091 3F22                            u6411 1EDA  
                          u6331 1E08                            u6171 1A88                            u7051 290C  
                          u4820 3052                            u4740 2F7C                            u4660 2E76  
                          u4580 2D84                            u5460 3C3A                            u5380 3B62  
                          u5620 3848                            u5540 35BE                            u7220 465C  
                          u7140 44DC                            u8100 154E                            u8020 1412  
                          u7300 08C2                            u5700 56E6                            u4900 52C2  
                          u6500 223E                            u6420 1F08                            u6340 1E22  
                          u6260 1C02                            u6180 1A9E                            u7060 29BE  
                          _RCIF 007CF5                            u4821 304E                            u4741 2F78  
                          u4661 2E72                            u4581 2D80                            u5461 3C36  
                          u5381 3B5E                            u5621 3844                            u5541 35BA  
                          u7221 4658                            u7141 44D8                            u8101 154A  
                          u8021 140E                            u7301 08BE                            u5701 56E2  
                          u6501 223A                            u6421 1F04                            u6341 1E1E  
                          u6261 1BFE                            u6181 1A9A                            u7061 29BA  
                          u4830 3064                            u4750 2F92                            u4670 2EBC  
                          u4590 2DA2                            u5470 3C82                            u5390 3B78  
                          u5630 385E                            u5550 35CE                            u7230 466A  
                          u7150 44EA                            u8110 1584                            u8030 142C  
                          u7310 08FA                            u5710 570C                            u4910 52E0  
                          u6510 224C                            u6430 2050                            u6350 1E3E  
                          u6270 1C86                            u6190 1AE6                            u7070 2A26  
                          u4831 3060                            u4751 2F8E                            u4671 2EB8  
                          u4591 2D9E                            u5471 3C7E                            u5391 3B74  
                          u5631 385A                            u5551 35CA                            u7231 4666  
                          u7151 44E6                            u8111 157E                            u8031 1428  
                          u7311 08F4                            u5711 5708                            u4911 52DC  
                          u6511 2248                            u6431 204C                            u6351 1E3A  
                          u6271 1C82                            u6191 1AE2                            u7071 2A20  
                          u4840 3080                            u4760 2FA8                            u4680 2EF2  
                          u5480 3CB2                            u5640 3872                            u5560 3604  
                          u7160 4546                            u7240 5B22                            u8200 16C4  
                          u8120 1586                            u8040 143A                            u7400 0A30  
                          u7320 08FC                            u5720 572A                            u5800 581C  
                          u4920 5308                            u6600 243E                            u6520 2266  
                          u6440 20B6                            u6360 1E74                            u6280 1D1A  
                          u7080 2A28                            u4841 307C                            u4761 2FA4  
                          u4681 2EEE                            u5481 3CAE                            u5641 386E  
                          u5561 3600                            u7161 4542                            u7241 5B1E  
                          u8201 16C0                            u8041 1436                            u7401 0A2C  
                          u5721 5726                            u5801 5818                            u4921 5304  
                          u4905 52B8                            u6601 243A                            u6521 2262  
                          u6441 20B2                            u6361 1E70                            u6281 1D16  
                          u4770 2FBC                            u4690 2F02                            u5490 3CE0  
                          u5810 585C                            u5650 388C                            u5570 3614  
                          u7170 459C                            u7250 5B54                            u8210 16E6  
                          u8130 159C                            u8050 14A6                            u7410 0A40  
                          u7330 0912                            u4850 5604                            u5730 5746  
                          u4930 5332                            u6610 24C2                            u6530 2274  
                          u6450 20FE                            u6370 1E9A                            u6290 1D8C  
                          u7090 2A3E                            u4771 2FB8                            u4691 2EFE  
                          u5491 3CDC                            u5811 5858                            u5651 3888  
                          u5571 3610                            u7171 4598                            u7251 5B50  
                          u8211 16E2                            u8131 1598                            u8051 14A2  
                          u7411 0A3C                            u7331 090E                            u4851 5600  
                          u5731 5742                            u4931 532E                            u6611 24BE  
                          u6531 2270                            u6451 20FA                            u6371 1E96  
                          u6291 1D88                            u7091 2A3A                            u4780 2FD6  
                          u5900 508E                            u5820 589A                            u5660 38D4  
                          u5580 378E                            u7180 45E6                            u7260 5D92  
                          u8300 190A                            u8220 16F4                            u8140 15EC  
                          u8060 14D4                            u7500 0BA6                            u7420 0A62  
                          u7340 0952                            u4860 5626                            u5740 576C  
                          u6620 24DC                            u6540 22CC                            u6460 210E  
                          u6380 1EAC                            u6700 4BA0                            u4781 2FD2  
                          u5901 508A                            u5821 5896                            u5661 38D0  
                          u7181 45E2                            u7261 5D8C                            u8301 1906  
                          u8221 16F0                            u8141 15E6                            u8061 14D0  
                          u7501 0BA2                            u7421 0A5E                            u7341 094E  
                          u4861 5622                            u5741 5768                            u6621 24D8  
                          u6541 22C8                            u6461 210A                            u6381 1EA8  
                          u6701 4B9C                            u4790 3010                            u5910 50C2  
                          u5830 58CE                            u5670 3902                            u5590 37E8  
                          u7190 4604                            u7270 5D94                            u8310 195A  
                          u8230 175C                            u8150 15EE                            u8070 14EE  
                          u7510 0BC4                            u7430 0A74                            u7350 096E  
                          u4870 567C                            u5750 5790                            u4950 536C  
                          u6630 24F4                            u6550 239E                            u6470 2176  
                          u6390 1EBA                            u6710 4BCC                            u4791 300C  
                          u5831 58CA                            u5671 38FE                            u5591 37E4  
                          u7191 4600                            u8311 1956                            u8231 1758  
                          u8071 14EA                            u7511 0BC0                            u7431 0A70  
                          u7351 096A                            u4871 5678                            u5751 578C  
                          u4951 5366                            u6631 24F0                            u6551 239A  
                          u6471 2172                            u6391 1EB6                            u6711 4BC8  
                          u5920 50F0                            u5840 51AC                            u5680 393C  
                          u7280 5DAA                            u8320 198C                            u8240 177E  
                          u8160 1604                            u8080 150C                            u7600 0D40  
                          u7520 0BE2                            u7440 0ABE                            u7360 0986  
                          u6800 47C0                            u4880 568C                            u5760 57AA  
                          u4960 536E                            u6640 2552                            u6560 23BA  
                          u6480 221A                            u6720 4C06                            u8400 5A6C  
                          u5921 50EC                            u5841 51A8                            u5681 3938  
                          u5585 3784                            u7281 5DA6                            u8321 1988  
                          u8241 177A                            u8161 1600                            u8081 1508  
                          u7601 0D3C                            u7521 0BDE                            u7441 0ABA  
                          u7361 0982                            u4881 5688                            u5761 57A6  
                          u4945 5344                            u6641 254C                            u6561 23B6  
                          u6481 2216                            u6721 4C02                            u5930 5104  
                          u5850 51EA                            u8330 199A                            u8250 17E2  
                          u8170 166E                            u8090 1530                            u7610 0D74  
                          u7530 0C54                            u7450 0AEE                            u7370 09A6  
                          u6810 47D6                            u4890 606A                            u5690 56CC  
                          u5770 57C4                            u4970 5E08                            u6650 2554  
                          u6570 23CC                            u6490 222C                            u6730 4C56  
                          u7290 5CF8                            u8410 5A7C                            u5931 5100  
                          u5915 50B8                            u5851 51E6                            u8331 1996  
                          u8251 17DE                            u8171 1668                            u8091 152C  
                          u7611 0D70                            u7531 0C50                            u7451 0AEA  
                          u7371 09A2                            u6811 47D2                            u4891 6066  
                          u5691 56C8                            u5771 57C0                            u6571 23C8  
                          u6491 2228                            u6731 4C52                            u7291 5CF4  
                          u8411 5A78                            u6900 5E88                            u8420 4F7E  
                          u5940 512C                            u5860 5208                            u8340 19D0  
                          u8260 1832                            u8180 1670                            u7700 0EF4  
                          u7620 0DB2                            u7540 0C64                            u7460 0B1E  
                          u7380 09D0                            u6820 47E8                            u5780 57E2  
                          u4980 5E1A                            u6660 256A                            u6580 23DA  
                          u6740 4C66                            u8500 59FE                            u6901 5E84  
                          u8421 4F7A                            u5941 5128                            u5861 5204  
                          u8341 19CC                            u8261 182E                            u7701 0EF0  
                          u7621 0DAC                            u7541 0C60                            u7461 0B1A  
                          u7381 09CC                            u6821 47E4                            u5781 57DE  
                          u4981 5E16                            u6661 2566                            u6581 23D6  
                          u6741 4C62                            u8501 59FA                            u6910 5E9E  
                          u8430 4FA0                            u5950 514C                            u5870 5228  
                          u8270 1864                            u8190 1686                            u7710 0F2C  
                          u7630 0DB4                            u7550 0C82                            u7470 0B30  
                          u7390 0A00                            u5790 57F8                            u4990 5D32  
                          u6590 2410                            u6750 4CA0                            u6830 53AA  
                          u8350 62DA                            u8510 4840                            u6911 5E9A  
                          u8431 4F9C                            u5951 5148                            u5871 5224  
                          u8271 1860                            u8191 1682                            u7711 0F28  
                          u7551 0C7E                            u7471 0B2C                            u7391 09FC  
                          u5791 57F4                            u4991 5D2C                            u6591 240C  
                          u6751 4C9C                            u6671 4B2E                            u6831 53A6  
                          u8351 62D6                            u8511 483C                            u8407 5A62  
                          u6920 5EB4                            u8440 4FDA                            u8360 62CA  
                          u5960 515C                            u5880 5278                            u8280 1872  
                          u7800 1096                            u7720 0F6A                            u7640 0DCA  
                          u7560 0CA0                            u7480 0B5E                            u6760 46B6  
                          u6680 4B50                            u6840 53DC                            u8600 497C  
                          u8520 4864                            u6921 5EB0                            u8441 4FD6  
                          u8361 62C6                            u5961 5158                            u5881 5274  
                          u8281 186E                            u7801 1092                            u7721 0F64  
                          u7641 0DC6                            u7561 0C9C                            u7481 0B5A  
                          u6761 46B2                            u4977 5DFE                            u6681 4B4C  
                          u6841 53D8                            u8601 4978                            u8521 4860  
                          u6930 5ECA                            u8450 4FFC                            u5890 6186  
                          u5970 5F3E                            u8290 18B4                            u7810 10BA  
                          u7730 0F6C                            u7650 0E1C                            u7570 0CDE  
                          u7490 0B80                            u6770 46EC                            u6690 4B82  
                          u6850 53F8                            u8610 4098                            u8530 4896  
                          u8370 5C4C                            u6931 5EC6                            u8451 4FF8  
                          u5891 6182                            u5971 5F3A                            u8291 18B0  
                          u7811 10B6                            u7651 0E18                            u7571 0CDA  
                          u7491 0B7C                            u6771 46E8                            u6691 4B7E  
                          u6851 53F4                            u8611 4094                            u8531 4892  
                          u8371 5C48                            u8460 5024                            u5980 5F6C  
                          u7900 122A                            u7820 10EE                            u7740 0F82  
                          u7660 0E44                            u7580 0D00                            u6780 4708  
                          u6860 540A                            u6940 25DA                            u8620 42A6  
                          u8540 48B4                            u8380 5C80                            u8700 31F2  
                          u8461 5020                            u5981 5F68                            u7901 1226  
                          u7821 10EA                            u7741 0F7E                            u7581 0CFC  
                          u6781 4704                            u6861 5406                            u6941 25D6  
                          u8621 42A2                            u8541 48B0                            u8381 5C7C  
                          u8701 31EE                            u8470 5056                            u8630 5470  
                          u7910 1270                            u7830 110A                            u7750 0FD4  
                          u7670 0EA2                            u7590 0D1E                            u6790 47BE  
                          u5990 5E30                            u6870 5432                            u6950 2622  
                          u8550 48D2                            u8390 5A38                            u8710 3242  
                          u8471 5052                            u8631 546C                            u7911 126C  
                          u7831 1106                            u7751 0FD0                            u7671 0E9E  
                          u7591 0D1A                            u6791 47B8                            u5991 5E2C  
                          u6871 542E                            u6951 261E                            u8551 48CE  
                          u8711 323E                            u8480 620C                            u8640 54B6  
                          u6880 6130                            u7920 12A2                            u7840 118C  
                          u7760 0FFC                            u7680 0EC0                            u6960 265C  
                          u8560 48F0                            u8720 3250                            u8481 6208  
                          u8641 54B2                            u6881 612A                            u7921 129E  
                          u7841 1186                            u7681 0EBC                            u7665 0E3A  
                          u6961 2658                            u8561 48EC                            u8721 324C  
                          u8650 54D2                            u6890 6132                            u7930 12BE  
                          u7850 118E                            u7770 1026                            u7690 0EE2  
                          u6970 2706                            u8490 58EE                            u8570 490E  
                          u8730 3266                            u8651 54CE                            u7931 12BA  
                          u7771 1022                            u7691 0EDE                            u6971 2700  
                          u8491 58EA                            u8571 490A                            u8731 3262  
                          u8660 5518                            u7940 12EC                            u7860 11A4  
                          u7780 1044                            u6980 2708                            u8580 4950  
                          u8740 33C8                            u8661 5514                            u7941 12E8  
                          u7861 11A0                            u7781 1040                            u7765 0FF2  
                          u8581 494C                            u8397 5A2E                            u8741 33C4  
                          u7950 1318                            u7870 11B4                            u7790 1062  
                          u6990 271E                            u8590 496A                            u8807 5AA0  
                          u7951 1314                            u7871 11B0                            u7791 105E  
                          u6991 271A                            u8591 4966                            u8671 30A8  
                          u7880 11D6                            u8817 5AB6                            u7881 11D2  
                          u8681 30BA                            u7890 11F8                            u8690 3196  
                          u8827 628E                            u7891 11F4                            u8691 3192  
                          u7980 13A0                            u7981 139C                            u7965 1334  
                          u8757 339A                            u7990 13BA                            u7991 13B6  
                          u7975 136E                            u8767 59D4                            u8777 60AC  
                          u8787 60BE                            u8797 5A8A                     main@latitud 01B1  
                          _TRMT 007D61                            abs@a 0013               ?_Lcd_Write_String 0005  
                          _dbuf 0200                            _atof 620E                            _atoi 467E  
                          _ctoa 5E1C                            _main 3094                            _dtoa 3CF4  
                          _nanf 625A                   ?_EUSART1_Read 0001                            _prec 00FA  
                          _nout 00F6                            pad@i 0018                            pad@p 0015  
                          fsr1h 000FE2                            fsr2h 000FDA                            indf1 000FE7  
                          indf2 000FDF                            fsr1l 000FE1                            pad@w 001A  
                          fsr2l 000FD9                            _stoa 4B24                   ___fpclassifyf 5282  
                          prodh 000FF4                            prodl 000FF3                            start 0000  
            ??_Lcd_Write_String 0007                   __CFG_IESO$OFF 000000                 ___fldiv@new_exp 002B  
               __end_of_Lcd_Cmd 629C                    _tolower$1324 000D                     _strtof$1300 0045  
                   _strtof$1301 0047                     _strtof$1302 0049                     _strtof$1303 004B  
                   _strtof$1286 003D                     _strtof$1287 004D                     _strtof$1297 003F  
                   _strtof$1298 0041                     _strtof$1299 0043                    ___param_bank 000000  
                         ??_abs 0015                           ??_pad 0017                     leerGps@cont 0009  
                 __CFG_PLLDIV$1 000000                   ___fltol@sign1 0009                 __end_of___aldiv 5078  
               __end_of___aodiv 4B24                           ?_atof 0059                           ?_atoi 0008  
                         ?_ctoa 001C                 __end_of___fladd 3094                           ?_main 0001  
                         ?_dtoa 001C                           ?_nanf 0001                 __end_of___aomod 4E0E  
               __end_of___fldiv 3CF4                 __end_of___awdiv 577E                 __end_of___flneg 61A8  
                         STR_10 0829                           STR_11 0890                           STR_12 0854  
                         STR_13 0801                           STR_22 08A8                           STR_14 0898  
                         STR_15 08A0                           STR_24 08A8                           STR_32 08A4  
                         STR_33 089C                           STR_18 089C                           STR_35 0816  
                         STR_19 08A4                           STR_27 087E                           STR_28 0875  
               __end_of___awmod 582E                 __end_of___flmul 395A                 __end_of___flsub 600C  
               __end_of___fltol 517E                           ?_stoa 000A                 dameHora@horaGMT 00E4  
               ___awdiv@divisor 0003                           _LATD2 007C62                           _LATD3 007C63  
                         _LATD4 007C64                           _LATD5 007C65                           _LATD6 007C66  
                         _LATD7 007C67                 ___awdiv@counter 0005                           _RCREG 000FAE  
                  vfpfcnvrt@fmt 0059                           _SPBRG 000FAF                   __CFG_USBDIV$1 000000  
       __size_of_Lcd_Set_Cursor 0066                           _TRISA 000F92                           _TRISD 000F95  
                         _TXREG 000FAD             main@variableMostrar 01D3                   __CFG_PWRT$OFF 000000  
                 __CFG_WRT0$OFF 000000                   __CFG_WRT1$OFF 000000                   __CFG_WRT2$OFF 000000  
           ___lmul@multiplicand 0005                   __CFG_WRT3$OFF 000000                  __CFG_EBTR0$OFF 000000  
                __CFG_FCMEN$OFF 000000                  __CFG_EBTR1$OFF 000000                  __CFG_EBTR2$OFF 000000  
                __CFG_EBTR3$OFF 000000                   __CFG_WRTB$OFF 000000                   __CFG_WRTC$OFF 000000  
                 __CFG_WRTD$OFF 000000                 __end_of_leerGps 499C                  __CFG_EBTRB$OFF 000000  
                  main@longitud 01A4              __size_of_UART_init 0070                           _flags 00FC  
     dameDato@cadenaFragmentada 0001                           _fputc 552A                           _fputs 600C  
               __end_of_isdigit 6170                     ?_UART_write 0001                           atof@s 0059  
                         atoi@n 0015                           pad@fp 0011                           atoi@s 0008  
                         _width 00F8                           ctoa@c 001E                           _putch 62FE  
                         ctoa@w 001F                           dtoa@d 001E                           dtoa@i 003E  
                         dtoa@n 0036                           dtoa@p 0030                           dtoa@s 0034  
                         dtoa@w 0032                           nanf@s 0001                           nanf@u 0005  
               __end_of_islower 6138                 __end_of_isspace 5F78                 __end_of_isupper 6100  
                         tablat 000FF5                  ??_EUSART1_Read 0001                           plusw1 000FE3  
                         plusw2 000FDB                           stoa@i 0016                           stoa@l 001E  
                         stoa@p 001C                           stoa@s 000C                           stoa@w 0018  
                         status 000FD8                 __end_of_sprintf 5F26                  ?___fpclassifyf 0001  
               __end_of_tolower 5D62                 __end_of_strncmp 5456                 __end_of_toupper 5DC0  
                __CFG_ICPRT$OFF 000000                dameGrados@grados 006A         dameGrados@gradosDecimal 0068  
              __end_of_Lcd_Init 5AF0                    _toupper$1339 000D                __end_of_Lcd_Port 5ED4  
                __CFG_MCLRE$OFF 000000                 __initialization 5F78                    __end_of_atof 6234  
                  __end_of_atoi 480E                    __end_of_ctoa 5E78                    __end_of_main 3530  
                  __end_of_dtoa 3FD8                    __end_of_nanf 627C                 ??_configurarAdc 0001  
                  __end_of_stoa 4CAA                   main@fechaReal 01D4                          ??_atof 005D  
                        ??_atoi 000A                          ??_ctoa 001F                          ??_main 00EE  
                        ??_dtoa 0026                          ??_nanf 0005                          ??_stoa 000E  
            __size_of_Lcd_Clear 000E                   __activetblptr 000002                 __CFG_CCP2MX$OFF 000000  
                        _ADCON1 000FC1                          _ADCON2 000FC0                          ?_fputc 0001  
                        ?_fputs 000A                          _ADRESH 000FC4                          _ADRESL 000FC3  
              ___awdiv@dividend 0001                          ?_putch 0001                __end_of_dameDato 552A  
                     ??_Lcd_Cmd 0002                __end_of_dameHora 42B8         __size_of_Lcd_Write_Char 0038  
              __end_of___xxtofl 467E                  __CFG_XINST$OFF 000000                    vfprintf@cfmt 005D  
                        ___flge 517E                          ___fleq 582E                          ___lmul 5BD0  
                     ??___aldiv 0009                       ??___aodiv 0011                       ??___fladd 003B  
                     ??___aomod 0011                          ___wmul 6234               __end_of_UART_init 5BD0  
                     ??___fldiv 0022                       ??___awdiv 0005                       ??___flneg 0005  
                     ??___awmod 000D                       ??___flmul 0009                       ??___flsub 004B  
                     ??___fltol 0005                          _efgtoa 1A06                          _floorf 42B8  
           __size_of_UART_write 0016                    ?_UART_printf 0002                          clear_0 5F9E  
                        clear_1 5FB6                ___awdiv@quotient 0007                 ___awmod@divisor 000B  
                  _diaSiguiente 01F7                 ___awmod@counter 000D                          pad@buf 0013  
                        ctoa@fp 001C                          dtoa@fp 001C                          _strcpy 5DC0  
                        _strlen 61A8                          _strtof 08B0                       ??_leerGps 0003  
              __end_of_isxdigit 5B60                          fputc@c 0001                          fputs@c 000E  
                        fputs@i 000F                          fputs@s 000A                       ??_isdigit 0003  
               ___fpclassifyf@e 0009                 ___fpclassifyf@u 000B                 ___fpclassifyf@x 0001  
                     ??_islower 0003                    __mediumconst 0000                       ??_isspace 0003  
                        tblptrh 000FF7                       ??_isupper 0003                          tblptrl 000FF6  
                        tblptru 000FF8                          stoa@cp 001A                          stoa@fp 000A  
                        putch@c 0001                __end_of_vfprintf 5D02          __size_of_mensajeEspera 0088  
               leerGps@leerByte 000B                       ??_sprintf 005F                       ??_tolower 0009  
                     ??_strncmp 0007                       ??_toupper 0009                 Lcd_Set_Cursor@a 0005  
               Lcd_Set_Cursor@b 0004                 Lcd_Set_Cursor@y 0007                 Lcd_Set_Cursor@z 0006  
                    ___flge@ff1 001A                      ___flge@ff2 001E                 ??___fpclassifyf 0005  
                  ___xxtofl@arg 000B                    ___xxtofl@exp 000A                    ___xxtofl@val 0001  
                    ___fleq@ff1 0001                      ___fleq@ff2 0005     __end_of_dameTemperaturaLm35 5978  
                    __accesstop 0060         __end_of__initialization 5FBC                 __CFG_PBADEN$OFF 000000  
                    ___flneg@f1 0001                 __CFG_FOSC$XT_XT 000000               __end_of_Lcd_Clear 62FE  
                 ___rparam_used 000001                      ___fltol@f1 0001             main@longitudMostrar 01CF  
                __pcstackCOMRAM 0001                    __pidataBANK1 629C                   __end_of_fputc 55F4  
                 __end_of_fputs 6050                   __end_of_putch 6300            __end_of_EUSART1_Read 62E0  
                _Lcd_Set_Cursor 5C3A                  main@datoSalida 0100                      _dameGrados 4E0E  
                     ?_Lcd_Init 0001                       ?_Lcd_Port 0001                         ??_fputc 0005  
                       ??_fputs 000E                         ??_putch 0001                      __pbssBANK0 00F2  
                    __pbssBANK1 01F3                      __pbssBANK2 0200                      _efgtoa$630 0066  
                    _efgtoa$640 006E                      _efgtoa$634 0068                      _efgtoa$629 0064  
                    _efgtoa$638 006A                      _efgtoa$639 006C                         ?___flge 001A  
                       ?___fleq 0001                   _mensajeEspera 5978                         ?___lmul 0001  
                       ?___wmul 0001                         ?_efgtoa 004B                         ?_floorf 0033  
                ___lmul@product 0009       __size_of_Lcd_Write_String 007E          __end_of_Lcd_Set_Cursor 5CA0  
                       ?_strcpy 0001                         ?_strlen 0001                   _dameHora$1620 00E2  
                       ?_strtof 0033                       ?_dameDato 0001                       ?_dameHora 00D6  
                     ?___xxtofl 0001              __size_of_vfpfcnvrt 061E                      ??_Lcd_Init 0004  
                    ??_Lcd_Port 0001                    ??_UART_write 0001                 __CFG_VREGEN$OFF 000000  
                _Lcd_Write_Char 6090                         _Lcd_Cmd 627C                         __Hparam 0000  
                     ?_isxdigit 0001                         __Lparam 0000                  ?_mensajeEspera 00D6  
                       ___aldiv 4F6C                 __size_of___flge 0104                 __size_of___fleq 00AA  
                       ___aodiv 499C                         ___fladd 2BD4                         ___aomod 4CAA  
                       ___fldiv 395A                         ___awdiv 56BA                         ___flneg 6170  
               __size_of___lmul 006A                         ___awmod 577E                         ___flmul 3530  
                       ___flsub 5FC6                         ___fltol 5078                 __size_of___wmul 0026  
                     ?_vfprintf 00B2                    __psmallconst 0800                 __size_of_efgtoa 0BB0  
           mensajeEspera@buffer 00DA                 __CFG_STVREN$OFF 000000                 __size_of_floorf 0212  
                       __pcinit 5F78                         __ramtop 0800                 ?_Lcd_Set_Cursor 0004  
            __end_of_UART_write 62CC                         __ptext0 3094                         __ptext1 5978  
                       __ptext2 5A00                         __ptext3 6090                         __ptext4 5C3A  
                       __ptext5 62F0                         __ptext6 480E                         __ptext7 62CC  
                       __ptext8 58D8                         __ptext9 3FD8                         _leerGps 480E  
                    ??_dameDato 0007                 __size_of_strcpy 005C                 __size_of_strlen 0036  
          __size_of_UART_printf 0030                 __size_of_strtof 1156                      ??_dameHora 00DA  
                  __size_of_abs 0040                    __size_of_pad 00C6                         _isdigit 6138  
                    ??___xxtofl 0005                ___awmod@dividend 0009                     ?_dameGrados 0060  
              ___aldiv@dividend 0001                         _islower 6100                         _isspace 5F26  
                       _isupper 60C8                         efgtoa@c 0051                         efgtoa@d 0078  
                       efgtoa@e 0090                         efgtoa@f 004D                         efgtoa@g 008C  
                       efgtoa@h 0082                         efgtoa@i 008A                         efgtoa@l 0086  
                       efgtoa@m 0074                         efgtoa@n 0092                         efgtoa@p 007C  
                       efgtoa@t 0070                         efgtoa@u 0094                         efgtoa@w 007F  
                       atoi@neg 000E                         _sprintf 5ED4                         _tolower 5D02  
   dameGrados@cadenaFragmentada 0060          __end_of_Lcd_Write_Char 60C8                         _strncmp 5380  
                       _toupper 5D62            end_of_initialization 5FBC                         floorf@e 0041  
                       floorf@m 003D                         floorf@u 0043                         floorf@x 0033  
              main@horaCompleta 019B       dameHora@cadenaFragmentada 00D6                         fputc@fp 0003  
                 __Lmediumconst 0000                         fputs@fp 000C                      ??_isxdigit 0003  
             __end_of_vfpfcnvrt 2BD4                      efgtoa@mode 0081                      efgtoa@sign 007A  
                     _RCSTAbits 000FAB                 _dameGrados$1621 0064                ___aldiv@quotient 000B  
                       postdec1 000FE5                         postdec2 000FDD                         postinc0 000FEE  
                       postinc1 000FE6                         postinc2 000FDE           __size_of_EUSART1_Read 0014  
                     Lcd_Port@a 0001                      ??_vfprintf 005D           __end_of_configurarAdc 62F0  
                       strcpy@d 0009                         strlen@a 0003                         strcpy@s 0007  
                       strlen@s 0001                         strtof@i 0058                         strtof@s 0033  
                     _PORTBbits 000F81                       _UART_init 5B60                     ___fladd@grs 0042  
                 ___xxtofl@sign 0009                       _TRISBbits 000F93                       _TRISCbits 000F94  
         dameDato@comasContadas 000A                     ___fldiv@grs 002D                     ___fldiv@rem 0026  
               ?_Lcd_Write_Char 0001                    dameHora@hora 00D8               Lcd_Write_String@a 0005  
             Lcd_Write_String@i 0009                     ___flmul@grs 000E                  _UART_init$1619 0017  
                    main@buffer 0187                    _EUSART1_Read 62CC                       _TXSTAbits 000FAC  
               ??_mensajeEspera 00D8             __size_of_dameGrados 015E                       _Lcd_Clear 62F0  
                __end_of___flge 5282                  __end_of___fleq 58D8                  __end_of___lmul 5C3A  
                   vfpfcnvrt@ap 005B                     vfpfcnvrt@cp 00A4                     vfpfcnvrt@ct 00AE  
                   vfpfcnvrt@fp 0057                     vfpfcnvrt@ll 009C                  __end_of___wmul 625A  
              _Lcd_Write_String 5A00                  __end_of_efgtoa 25B6                  __end_of_floorf 44CA  
                    ?_UART_init 000F                      floorf@F524 01F3                  __end_of_strcpy 5E1C  
                __end_of_strlen 61DE                  __end_of_strtof 1A06             start_initialization 5F78  
                   __end_of_abs 6090                     __end_of_pad 56BA               __size_of_Lcd_Init 0072  
             __size_of_Lcd_Port 005C           __end_of___fpclassifyf 5380                     vfprintf@fmt 00B4  
  __size_of_dameTemperaturaLm35 00A0                dameDato@numComas 0003                      ?_Lcd_Clear 0001  
                      ??___flge 0022                        ??___fleq 0009                   _isxdigit$1359 0007  
                      ??___lmul 0009                        ??___wmul 0005                dameDato@variable 0005  
                      ??_efgtoa 0052                     __pdataBANK1 01DA                        ??_floorf 0037  
              __CFG_LPT1OSC$OFF 000000                 Lcd_Write_Char@a 0004                 Lcd_Write_Char@y 0003  
                      ??_strcpy 0005                        ??_strlen 0003                        ??_strtof 0037  
                     ___fladd@a 0037                       ___fladd@b 0033                       ___fldiv@a 001E  
                     ___fldiv@b 001A                       ___flmul@a 0005                       ___flmul@b 0001  
                     ___flsub@a 0047                       ___flsub@b 0043              dameHora@decenaHora 00DE  
                 __pcstackBANK0 0060                   __pcstackBANK1 0100               __size_of_dameDato 00D4  
              ___aodiv@dividend 0001               __size_of_dameHora 02E0               __size_of___xxtofl 01B4  
                      ?_Lcd_Cmd 0001               UART_printf@cadena 0002                       _atoi$1145 0010  
                     _atoi$1146 0014                       _atoi$1147 0012                 main@bufferFecha 0173  
                     _main$1622 01CB                ??_Lcd_Set_Cursor 0005                        ?___aldiv 0001  
                      ?___aodiv 0001                        ?___fladd 0033                        ?___aomod 0001  
             __size_of_isxdigit 0070                        ?___fldiv 001A                        ?___awdiv 0001  
         mensajeEspera@segundos 00D6                ___aodiv@quotient 0013                        ?___flneg 0001  
                      ?___awmod 0009                        ?___flmul 0001                        ?___flsub 0043  
                      ?___fltol 0001                       dameDato@i 000E                       dameDato@j 000C  
                   ??_UART_init 0013               __size_of_vfprintf 0062                       dameHora@i 00E6  
                      ?_leerGps 0001                     __smallconst 0800                        ?_isdigit 0001  
                  ??_dameGrados 005D                        ?_islower 0001                        ?_isspace 0001  
                      ?_isupper 0001                        ?_sprintf 00B8                        ?_tolower 0007  
                __size_of_fputc 00CA                  __size_of_fputs 0044                        ?_strncmp 0001  
                      ?_toupper 0007                  __size_of_putch 0002                 ___aldiv@divisor 0005  
               ___aldiv@counter 0009                  ___wmul@product 0005                        Lcd_Cmd@a 0003  
                   ??_Lcd_Clear 0004                __CFG_WDTPS$32768 000000              __end_of_dameGrados 4F6C  
                     main@F3602 01E3                       main@F3604 01DA                     strtof@digit 004E  
                   strtof@flags 004F                   ??_UART_printf 0004                     strtof@expon 0050  
                     _vfpfcnvrt 25B6                      _ADCON0bits 000FC2               ___wmul@multiplier 0001  
                     main@fecha 01BE                  UART_write@dato 0001                ??_Lcd_Write_Char 0002  
                  _isspace$1176 0007                       leerGps@ok 0007                        _Lcd_Init 5A7E  
                      _Lcd_Port 5E78                      vfpfcnvrt@c 00B1                      vfpfcnvrt@f 00AA  
             ___lmul@multiplier 0001                       copy_data0 5F8C        __end_of_Lcd_Write_String 5A7E  
              __size_of_Lcd_Cmd 0020                        __Hrparam 0000                   UART_init@BAUD 000F  
                    vfprintf@ap 00B6                        __Lrparam 0000                      vfprintf@fp 00B2  
              __size_of___aldiv 010C                __size_of___aodiv 0188                __size_of___fladd 04C0  
              __size_of___aomod 0164                __size_of___fldiv 039A                __size_of___awdiv 00C4  
              __size_of___flneg 0038                __size_of___awmod 00B0                __size_of___flmul 042A  
              __size_of___flsub 0046                __size_of___fltol 0106                      ?_vfpfcnvrt 0057  
               ___aodiv@divisor 0009              dameHora@unidadHora 00E0                 ___aodiv@counter 0011  
            ___fpclassifyf@F463 00F2                        _dameDato 5456                        _dameHora 3FD8  
                    sprintf@fmt 00BA                __size_of_leerGps 018E                        ___xxtofl 44CA  
           __end_of_UART_printf 620E                __size_of_isdigit 0038           main@cadenaFragmentada 0132  
                      _dtoa$606 002E             _dameTemperaturaLm35 58D8                __size_of_islower 0038  
              __size_of_isspace 0052                        __ptext10 5ED4                        __ptext11 5CA0  
                      __ptext20 5282                        __ptext12 25B6                        __ptext21 577E  
                      __ptext13 5380                        __ptext30 600C                        __ptext22 56BA  
                      __ptext14 4B24                        __ptext31 552A                        __ptext23 3CF4  
                      __ptext15 1A06                        __ptext40 5AF0                        __ptext32 62FE  
                      __ptext24 6050                        __ptext16 5D02                        __ptext41 5F26  
                      __ptext33 467E                        __ptext25 4CAA                        __ptext17 60C8  
                      __ptext50 395A                        __ptext42 6138                        __ptext34 4E0E  
                      __ptext26 499C                        __ptext18 5DC0                        __ptext51 5078  
                      __ptext43 44CA                        __ptext35 620E                        __ptext27 5E1C  
                      __ptext19 42B8                        __ptext60 5A7E                        __ptext52 5FC6  
                      __ptext44 6234                        __ptext36 08B0                        __ptext28 55F4  
                      __ptext61 627C                        __ptext53 2BD4                        __ptext45 5BD0  
                      __ptext37 5D62                        __ptext29 61A8                        __ptext62 5E78  
                      __ptext54 5456                        __ptext46 6170                        __ptext38 6100  
                      __ptext55 62E0                        __ptext47 3530                        __ptext39 625A  
                      __ptext56 61DE                        __ptext48 517E                        __ptext57 62B6  
                      __ptext49 582E                        __ptext58 5B60                        __ptext59 4F6C  
              __size_of_isupper 0038                       isxdigit@c 0001                __size_of_sprintf 0052  
              __size_of_tolower 0060                      strcpy@dest 0001                __size_of_strncmp 00D6  
              __size_of_toupper 005E          __size_of_configurarAdc 0010                   __size_of_atof 0026  
                 __size_of_atoi 0190                   __size_of_ctoa 005C                   __size_of_main 049C  
                 __size_of_dtoa 02E4                   __size_of_nanf 0022                   __size_of_stoa 0186  
                      _isxdigit 5AF0           __end_of_mensajeEspera 5A00                        efgtoa@fp 004B  
          ?_dameTemperaturaLm35 001A                        efgtoa@ne 0076                        efgtoa@pp 0072  
                      efgtoa@ou 0060                       stoa@F1166 01EC                      strtof@eexp 0052  
                      _vfprintf 5CA0                ___aomod@dividend 0001           __CFG_CPUDIV$OSC1_PLL2 000000  
               main@temperatura 01D6            leerGps@cadenaInicial 0001                        isdigit@c 0001  
            Lcd_Write_Char@temp 0002                       sprintf@ap 00CE                        islower@c 0001  
                      isspace@c 0001                       strcpy@src 0003                        isupper@c 0001  
                     strncmp@_l 0001                       strncmp@_r 0003           ??_dameTemperaturaLm35 001C  
dameTemperaturaLm35@temperatura 001A                       strtof@res 0035                     efgtoa@nmode 007E  
               ___aomod@divisor 0009                     ??_vfpfcnvrt 0098                        stoa@nuls 000F  
               ___aomod@counter 0011                   _vfpfcnvrt$671 00A8                   _vfpfcnvrt$665 00A6  
            Lcd_Set_Cursor@temp 0008                     _UART_printf 61DE                   _configurarAdc 62E0  
                      sprintf@f 00D0                        tolower@c 0007                        sprintf@s 00B8  
        __size_of___fpclassifyf 00FE                        strncmp@l 0008                        strncmp@n 0005  
                      strncmp@r 000A                        toupper@c 0007                    ___aldiv@sign 000A  
                      strtof@_u 0054                   ___fladd@signs 003F                      _UART_write 62B6  
                  ___aodiv@sign 0012              main@latitudMostrar 01C7                    ___fladd@aexp 0040  
                  ___fladd@bexp 0041                    ___aomod@sign 0012  
